SF:/home/leone/Documents/next-hat/nanocl/bin/nanocl/src/commands/cargo.rs
FN:131,_RNCNvNtNtCs6wcrk8Qgr6W_6nanocl8commands5cargo15exec_cargo_exec0B7_
FN:71,_RNCNvNtNtCs6wcrk8Qgr6W_6nanocl8commands5cargo13exec_cargo_ls0B7_
FN:127,_RNvNtNtCs6wcrk8Qgr6W_6nanocl8commands5cargo15exec_cargo_exec
FN:97,_RNCNvNtNtCs6wcrk8Qgr6W_6nanocl8commands5cargo15exec_cargo_stop0B7_
FN:120,_RNCNvNtNtCs6wcrk8Qgr6W_6nanocl8commands5cargo18exec_cargo_inspect0B7_
FN:198,_RNvNtNtCs6wcrk8Qgr6W_6nanocl8commands5cargo16exec_cargo_reset
FN:92,_RNvNtNtCs6wcrk8Qgr6W_6nanocl8commands5cargo15exec_cargo_stop
FN:86,_RNCNvNtNtCs6wcrk8Qgr6W_6nanocl8commands5cargo16exec_cargo_start0B7_
FN:31,_RNvNtNtCs6wcrk8Qgr6W_6nanocl8commands5cargo17exec_cargo_create
FN:46,_RNCNvNtNtCs6wcrk8Qgr6W_6nanocl8commands5cargo13exec_cargo_rm0B7_
FN:154,_RNvNtNtCs6wcrk8Qgr6W_6nanocl8commands5cargo18exec_cargo_history
FN:232,_RNvNtNtCs6wcrk8Qgr6W_6nanocl8commands5cargo10exec_cargo
FN:42,_RNvNtNtCs6wcrk8Qgr6W_6nanocl8commands5cargo13exec_cargo_rm
FN:235,_RNCNvNtNtCs6wcrk8Qgr6W_6nanocl8commands5cargo10exec_cargo0B7_
FN:103,_RNvNtNtCs6wcrk8Qgr6W_6nanocl8commands5cargo16exec_cargo_patch
FN:203,_RNCNvNtNtCs6wcrk8Qgr6W_6nanocl8commands5cargo16exec_cargo_reset0B7_
FN:159,_RNCNvNtNtCs6wcrk8Qgr6W_6nanocl8commands5cargo18exec_cargo_history0B7_
FN:115,_RNvNtNtCs6wcrk8Qgr6W_6nanocl8commands5cargo18exec_cargo_inspect
FN:35,_RNCNvNtNtCs6wcrk8Qgr6W_6nanocl8commands5cargo17exec_cargo_create0B7_
FN:173,_RNCNvNtNtCs6wcrk8Qgr6W_6nanocl8commands5cargo15exec_cargo_logs0B7_
FN:217,_RNCNvNtNtCs6wcrk8Qgr6W_6nanocl8commands5cargo14exec_cargo_run0B7_
FN:168,_RNvNtNtCs6wcrk8Qgr6W_6nanocl8commands5cargo15exec_cargo_logs
FN:81,_RNvNtNtCs6wcrk8Qgr6W_6nanocl8commands5cargo16exec_cargo_start
FN:107,_RNCNvNtNtCs6wcrk8Qgr6W_6nanocl8commands5cargo16exec_cargo_patch0B7_
FN:67,_RNvNtNtCs6wcrk8Qgr6W_6nanocl8commands5cargo13exec_cargo_ls
FN:211,_RNvNtNtCs6wcrk8Qgr6W_6nanocl8commands5cargo14exec_cargo_run
FNDA:1,_RNCNvNtNtCs6wcrk8Qgr6W_6nanocl8commands5cargo15exec_cargo_exec0B7_
FNDA:1,_RNCNvNtNtCs6wcrk8Qgr6W_6nanocl8commands5cargo13exec_cargo_ls0B7_
FNDA:1,_RNvNtNtCs6wcrk8Qgr6W_6nanocl8commands5cargo15exec_cargo_exec
FNDA:2,_RNCNvNtNtCs6wcrk8Qgr6W_6nanocl8commands5cargo15exec_cargo_stop0B7_
FNDA:1,_RNCNvNtNtCs6wcrk8Qgr6W_6nanocl8commands5cargo18exec_cargo_inspect0B7_
FNDA:1,_RNvNtNtCs6wcrk8Qgr6W_6nanocl8commands5cargo16exec_cargo_reset
FNDA:2,_RNvNtNtCs6wcrk8Qgr6W_6nanocl8commands5cargo15exec_cargo_stop
FNDA:1,_RNCNvNtNtCs6wcrk8Qgr6W_6nanocl8commands5cargo16exec_cargo_start0B7_
FNDA:1,_RNvNtNtCs6wcrk8Qgr6W_6nanocl8commands5cargo17exec_cargo_create
FNDA:2,_RNCNvNtNtCs6wcrk8Qgr6W_6nanocl8commands5cargo13exec_cargo_rm0B7_
FNDA:1,_RNvNtNtCs6wcrk8Qgr6W_6nanocl8commands5cargo18exec_cargo_history
FNDA:18,_RNvNtNtCs6wcrk8Qgr6W_6nanocl8commands5cargo10exec_cargo
FNDA:2,_RNvNtNtCs6wcrk8Qgr6W_6nanocl8commands5cargo13exec_cargo_rm
FNDA:18,_RNCNvNtNtCs6wcrk8Qgr6W_6nanocl8commands5cargo10exec_cargo0B7_
FNDA:1,_RNvNtNtCs6wcrk8Qgr6W_6nanocl8commands5cargo16exec_cargo_patch
FNDA:1,_RNCNvNtNtCs6wcrk8Qgr6W_6nanocl8commands5cargo16exec_cargo_reset0B7_
FNDA:1,_RNCNvNtNtCs6wcrk8Qgr6W_6nanocl8commands5cargo18exec_cargo_history0B7_
FNDA:1,_RNvNtNtCs6wcrk8Qgr6W_6nanocl8commands5cargo18exec_cargo_inspect
FNDA:1,_RNCNvNtNtCs6wcrk8Qgr6W_6nanocl8commands5cargo17exec_cargo_create0B7_
FNDA:0,_RNCNvNtNtCs6wcrk8Qgr6W_6nanocl8commands5cargo15exec_cargo_logs0B7_
FNDA:1,_RNCNvNtNtCs6wcrk8Qgr6W_6nanocl8commands5cargo14exec_cargo_run0B7_
FNDA:0,_RNvNtNtCs6wcrk8Qgr6W_6nanocl8commands5cargo15exec_cargo_logs
FNDA:1,_RNvNtNtCs6wcrk8Qgr6W_6nanocl8commands5cargo16exec_cargo_start
FNDA:1,_RNCNvNtNtCs6wcrk8Qgr6W_6nanocl8commands5cargo16exec_cargo_patch0B7_
FNDA:1,_RNvNtNtCs6wcrk8Qgr6W_6nanocl8commands5cargo13exec_cargo_ls
FNDA:1,_RNvNtNtCs6wcrk8Qgr6W_6nanocl8commands5cargo14exec_cargo_run
FNF:26
FNH:24
DA:31,1
DA:32,1
DA:33,1
DA:34,1
DA:35,1
DA:36,1
DA:37,8
DA:38,1
DA:39,1
DA:40,1
DA:42,2
DA:43,2
DA:44,2
DA:45,2
DA:46,2
DA:47,2
DA:48,0
DA:49,0
DA:50,0
DA:51,0
DA:52,0
DA:53,0
DA:55,0
DA:56,0
DA:57,0
DA:60,2
DA:61,4
DA:62,12
DA:64,2
DA:65,2
DA:67,1
DA:68,1
DA:69,1
DA:70,1
DA:71,6
DA:73,1
DA:74,1
DA:75,1
DA:76,1
DA:77,1
DA:78,1
DA:79,1
DA:81,1
DA:82,1
DA:83,1
DA:84,1
DA:85,1
DA:86,1
DA:87,1
DA:88,6
DA:89,1
DA:90,1
DA:92,2
DA:93,2
DA:94,2
DA:95,2
DA:96,2
DA:97,4
DA:98,18
DA:100,2
DA:101,2
DA:103,1
DA:104,1
DA:105,1
DA:106,1
DA:107,1
DA:108,1
DA:109,1
DA:110,1
DA:111,7
DA:112,1
DA:113,1
DA:115,1
DA:116,1
DA:117,1
DA:118,1
DA:119,1
DA:120,1
DA:121,1
DA:122,5
DA:123,1
DA:124,1
DA:125,1
DA:127,1
DA:128,1
DA:129,1
DA:130,1
DA:131,1
DA:132,1
DA:133,1
DA:134,1
DA:135,6
DA:137,4
DA:138,1
DA:139,1
DA:140,1
DA:141,1
DA:142,1
DA:143,0
DA:144,0
DA:145,0
DA:146,0
DA:147,0
DA:151,1
DA:152,1
DA:154,1
DA:155,1
DA:156,1
DA:157,1
DA:158,1
DA:159,1
DA:160,1
DA:161,5
DA:163,1
DA:164,1
DA:165,1
DA:166,1
DA:168,0
DA:169,0
DA:170,0
DA:171,0
DA:172,0
DA:173,0
DA:174,0
DA:175,0
DA:176,0
DA:177,0
DA:178,0
DA:179,0
DA:180,0
DA:181,0
DA:184,0
DA:185,0
DA:186,0
DA:187,0
DA:188,0
DA:189,0
DA:190,0
DA:191,0
DA:192,0
DA:195,0
DA:196,0
DA:198,1
DA:199,1
DA:200,1
DA:201,1
DA:202,1
DA:203,1
DA:204,1
DA:205,7
DA:206,1
DA:207,1
DA:208,1
DA:209,1
DA:211,1
DA:212,1
DA:213,1
DA:214,1
DA:215,1
DA:217,6
DA:218,0
DA:219,1
DA:221,1
DA:222,1
DA:223,5
DA:225,1
DA:226,1
DA:227,4
DA:229,1
DA:230,1
DA:232,18
DA:233,18
DA:234,18
DA:235,18
DA:236,18
DA:237,6
DA:238,1
DA:239,8
DA:241,2
DA:242,12
DA:244,5
DA:245,691
DA:247,1
DA:248,6
DA:250,2
DA:251,18
DA:253,1
DA:254,7
DA:256,1
DA:257,5
DA:259,1
DA:260,10
DA:262,1
DA:263,5
DA:265,1
DA:266,7
DA:268,0
DA:269,0
DA:271,15
DA:273,18
BRF:0
BRH:0
LF:205
LH:163
end_of_record
SF:/home/leone/Documents/next-hat/nanocl/bin/nanocl/src/commands/cargo_image.rs
FN:56,_RNvNtNtCs6wcrk8Qgr6W_6nanocl8commands11cargo_image15update_progress
FN:145,_RNCNvNtNtCs6wcrk8Qgr6W_6nanocl8commands11cargo_image24exec_cargo_image_inspect0B7_
FN:157,_RNCNCNvNtNtCs6wcrk8Qgr6W_6nanocl8commands11cargo_image23exec_cargo_image_import00B9_
FN:94,_RNCNvNtNtCs6wcrk8Qgr6W_6nanocl8commands11cargo_image23exec_cargo_image_create0B7_
FN:166,_RNvNtNtCs6wcrk8Qgr6W_6nanocl8commands11cargo_image16exec_cargo_image
FN:22,_RNvNtNtCs6wcrk8Qgr6W_6nanocl8commands11cargo_image19exec_cargo_image_ls
FN:154,_RNCNvNtNtCs6wcrk8Qgr6W_6nanocl8commands11cargo_image23exec_cargo_image_import0B7_
FN:141,_RNvNtNtCs6wcrk8Qgr6W_6nanocl8commands11cargo_image24exec_cargo_image_inspect
FN:23,_RNCNvNtNtCs6wcrk8Qgr6W_6nanocl8commands11cargo_image19exec_cargo_image_ls0B7_
FN:90,_RNvNtNtCs6wcrk8Qgr6W_6nanocl8commands11cargo_image23exec_cargo_image_create
FN:32,_RNvNtNtCs6wcrk8Qgr6W_6nanocl8commands11cargo_image19exec_cargo_image_rm
FN:150,_RNvNtNtCs6wcrk8Qgr6W_6nanocl8commands11cargo_image23exec_cargo_image_import
FN:169,_RNCNvNtNtCs6wcrk8Qgr6W_6nanocl8commands11cargo_image16exec_cargo_image0B7_
FN:35,_RNCNvNtNtCs6wcrk8Qgr6W_6nanocl8commands11cargo_image19exec_cargo_image_rm0B7_
FNDA:7,_RNvNtNtCs6wcrk8Qgr6W_6nanocl8commands11cargo_image15update_progress
FNDA:1,_RNCNvNtNtCs6wcrk8Qgr6W_6nanocl8commands11cargo_image24exec_cargo_image_inspect0B7_
FNDA:309,_RNCNCNvNtNtCs6wcrk8Qgr6W_6nanocl8commands11cargo_image23exec_cargo_image_import00B9_
FNDA:1,_RNCNvNtNtCs6wcrk8Qgr6W_6nanocl8commands11cargo_image23exec_cargo_image_create0B7_
FNDA:5,_RNvNtNtCs6wcrk8Qgr6W_6nanocl8commands11cargo_image16exec_cargo_image
FNDA:1,_RNvNtNtCs6wcrk8Qgr6W_6nanocl8commands11cargo_image19exec_cargo_image_ls
FNDA:1,_RNCNvNtNtCs6wcrk8Qgr6W_6nanocl8commands11cargo_image23exec_cargo_image_import0B7_
FNDA:1,_RNvNtNtCs6wcrk8Qgr6W_6nanocl8commands11cargo_image24exec_cargo_image_inspect
FNDA:1,_RNCNvNtNtCs6wcrk8Qgr6W_6nanocl8commands11cargo_image19exec_cargo_image_ls0B7_
FNDA:1,_RNvNtNtCs6wcrk8Qgr6W_6nanocl8commands11cargo_image23exec_cargo_image_create
FNDA:1,_RNvNtNtCs6wcrk8Qgr6W_6nanocl8commands11cargo_image19exec_cargo_image_rm
FNDA:1,_RNvNtNtCs6wcrk8Qgr6W_6nanocl8commands11cargo_image23exec_cargo_image_import
FNDA:5,_RNCNvNtNtCs6wcrk8Qgr6W_6nanocl8commands11cargo_image16exec_cargo_image0B7_
FNDA:1,_RNCNvNtNtCs6wcrk8Qgr6W_6nanocl8commands11cargo_image19exec_cargo_image_rm0B7_
FNF:14
FNH:14
DA:22,1
DA:23,25
DA:24,1
DA:25,1
DA:26,1
DA:27,1
DA:28,1
DA:29,1
DA:30,1
DA:32,1
DA:33,1
DA:34,1
DA:35,1
DA:36,1
DA:37,0
DA:38,0
DA:39,0
DA:40,0
DA:41,0
DA:42,0
DA:44,0
DA:45,0
DA:46,0
DA:49,1
DA:50,2
DA:51,6
DA:53,1
DA:54,1
DA:56,7
DA:57,7
DA:58,7
DA:59,7
DA:60,7
DA:61,7
DA:62,7
DA:63,7
DA:64,7
DA:65,7
DA:66,7
DA:67,7
DA:68,7
DA:69,7
DA:70,7
DA:71,7
DA:72,7
DA:73,6
DA:74,6
DA:75,6
DA:76,1
DA:77,1
DA:78,1
DA:79,1
DA:80,1
DA:81,1
DA:82,1
DA:83,1
DA:84,1
DA:85,1
DA:86,1
DA:87,1
DA:88,7
DA:90,1
DA:91,1
DA:92,1
DA:93,1
DA:94,6
DA:95,1
DA:96,1
DA:97,1
DA:98,24
DA:99,12
DA:101,12
DA:102,0
DA:103,0
DA:104,0
DA:105,0
DA:106,0
DA:107,0
DA:108,0
DA:109,12
DA:110,12
DA:111,12
DA:112,12
DA:113,12
DA:114,12
DA:115,1
DA:116,1
DA:117,11
DA:118,3
DA:119,3
DA:120,8
DA:121,1
DA:122,1
DA:123,1
DA:125,7
DA:126,3
DA:127,3
DA:129,4
DA:130,3
DA:131,3
DA:134,12
DA:135,9
DA:136,9
DA:138,1
DA:139,1
DA:141,1
DA:142,1
DA:143,1
DA:144,1
DA:145,5
DA:146,1
DA:147,1
DA:148,1
DA:150,1
DA:151,1
DA:152,1
DA:153,1
DA:154,1
DA:155,1
DA:156,1
DA:157,309
DA:158,309
DA:159,309
DA:160,309
DA:161,1
DA:162,624
DA:163,1
DA:164,1
DA:166,5
DA:167,5
DA:168,5
DA:169,5
DA:170,5
DA:171,25
DA:172,1
DA:173,5
DA:175,1
DA:176,30
DA:178,6
DA:179,1
DA:180,625
DA:183,5
BRF:0
BRH:0
LF:146
LH:130
end_of_record
SF:/home/leone/Documents/next-hat/nanocl/bin/nanocl/src/commands/events.rs
FN:7,_RNvNtNtCs6wcrk8Qgr6W_6nanocl8commands6events11exec_events
FN:8,_RNCNvNtNtCs6wcrk8Qgr6W_6nanocl8commands6events11exec_events0B7_
FNDA:0,_RNvNtNtCs6wcrk8Qgr6W_6nanocl8commands6events11exec_events
FNDA:0,_RNCNvNtNtCs6wcrk8Qgr6W_6nanocl8commands6events11exec_events0B7_
FNF:2
FNH:0
DA:7,0
DA:8,0
DA:10,0
DA:11,0
DA:12,0
DA:15,0
DA:16,0
BRF:0
BRH:0
LF:7
LH:0
end_of_record
SF:/home/leone/Documents/next-hat/nanocl/bin/nanocl/src/commands/info.rs
FN:6,_RNCNvNtNtCs6wcrk8Qgr6W_6nanocl8commands4info9exec_info0B7_
FN:5,_RNvNtNtCs6wcrk8Qgr6W_6nanocl8commands4info9exec_info
FNDA:1,_RNCNvNtNtCs6wcrk8Qgr6W_6nanocl8commands4info9exec_info0B7_
FNDA:1,_RNvNtNtCs6wcrk8Qgr6W_6nanocl8commands4info9exec_info
FNF:2
FNH:2
DA:5,1
DA:6,6
DA:7,1
DA:9,1
DA:10,1
DA:11,1
BRF:0
BRH:0
LF:6
LH:6
end_of_record
SF:/home/leone/Documents/next-hat/nanocl/bin/nanocl/src/commands/namespace.rs
FN:31,_RNvNtNtCs6wcrk8Qgr6W_6nanocl8commands9namespace22exec_namespace_inspect
FN:26,_RNCNvNtNtCs6wcrk8Qgr6W_6nanocl8commands9namespace21exec_namespace_create0B7_
FN:13,_RNCNvNtNtCs6wcrk8Qgr6W_6nanocl8commands9namespace17exec_namespace_ls0B7_
FN:22,_RNvNtNtCs6wcrk8Qgr6W_6nanocl8commands9namespace21exec_namespace_create
FN:43,_RNCNvNtNtCs6wcrk8Qgr6W_6nanocl8commands9namespace17exec_namespace_rm0B7_
FN:12,_RNvNtNtCs6wcrk8Qgr6W_6nanocl8commands9namespace17exec_namespace_ls
FN:40,_RNvNtNtCs6wcrk8Qgr6W_6nanocl8commands9namespace17exec_namespace_rm
FN:35,_RNCNvNtNtCs6wcrk8Qgr6W_6nanocl8commands9namespace22exec_namespace_inspect0B7_
FN:66,_RNvNtNtCs6wcrk8Qgr6W_6nanocl8commands9namespace14exec_namespace
FN:69,_RNCNvNtNtCs6wcrk8Qgr6W_6nanocl8commands9namespace14exec_namespace0B7_
FNDA:1,_RNvNtNtCs6wcrk8Qgr6W_6nanocl8commands9namespace22exec_namespace_inspect
FNDA:1,_RNCNvNtNtCs6wcrk8Qgr6W_6nanocl8commands9namespace21exec_namespace_create0B7_
FNDA:1,_RNCNvNtNtCs6wcrk8Qgr6W_6nanocl8commands9namespace17exec_namespace_ls0B7_
FNDA:1,_RNvNtNtCs6wcrk8Qgr6W_6nanocl8commands9namespace21exec_namespace_create
FNDA:1,_RNCNvNtNtCs6wcrk8Qgr6W_6nanocl8commands9namespace17exec_namespace_rm0B7_
FNDA:1,_RNvNtNtCs6wcrk8Qgr6W_6nanocl8commands9namespace17exec_namespace_ls
FNDA:1,_RNvNtNtCs6wcrk8Qgr6W_6nanocl8commands9namespace17exec_namespace_rm
FNDA:1,_RNCNvNtNtCs6wcrk8Qgr6W_6nanocl8commands9namespace22exec_namespace_inspect0B7_
FNDA:4,_RNvNtNtCs6wcrk8Qgr6W_6nanocl8commands9namespace14exec_namespace
FNDA:4,_RNCNvNtNtCs6wcrk8Qgr6W_6nanocl8commands9namespace14exec_namespace0B7_
FNF:10
FNH:10
DA:12,1
DA:13,6
DA:14,1
DA:15,1
DA:16,1
DA:17,1
DA:18,1
DA:19,1
DA:20,1
DA:22,1
DA:23,1
DA:24,1
DA:25,1
DA:26,7
DA:27,1
DA:28,1
DA:29,1
DA:31,1
DA:32,1
DA:33,1
DA:34,1
DA:35,5
DA:36,1
DA:37,1
DA:38,1
DA:40,1
DA:41,1
DA:42,1
DA:43,1
DA:44,1
DA:45,0
DA:46,0
DA:47,0
DA:48,0
DA:49,0
DA:50,0
DA:52,0
DA:53,0
DA:54,0
DA:57,1
DA:59,2
DA:60,6
DA:63,1
DA:64,1
DA:66,4
DA:67,4
DA:68,4
DA:69,4
DA:70,4
DA:71,6
DA:72,1
DA:73,7
DA:75,1
DA:76,5
DA:78,1
DA:79,6
DA:82,4
BRF:0
BRH:0
LF:59
LH:50
end_of_record
SF:/home/leone/Documents/next-hat/nanocl/bin/nanocl/src/commands/resource.rs
FN:59,_RNvNtNtCs6wcrk8Qgr6W_6nanocl8commands8resource21exec_resource_history
FN:69,_RNvNtNtCs6wcrk8Qgr6W_6nanocl8commands8resource19exec_resource_reset
FN:12,_RNvNtNtCs6wcrk8Qgr6W_6nanocl8commands8resource16exec_resource_ls
FN:27,_RNCNvNtNtCs6wcrk8Qgr6W_6nanocl8commands8resource16exec_resource_rm0B7_
FN:73,_RNCNvNtNtCs6wcrk8Qgr6W_6nanocl8commands8resource19exec_resource_reset0B7_
FN:79,_RNvNtNtCs6wcrk8Qgr6W_6nanocl8commands8resource13exec_resource
FN:82,_RNCNvNtNtCs6wcrk8Qgr6W_6nanocl8commands8resource13exec_resource0B7_
FN:53,_RNCNvNtNtCs6wcrk8Qgr6W_6nanocl8commands8resource21exec_resource_inspect0B7_
FN:13,_RNCNvNtNtCs6wcrk8Qgr6W_6nanocl8commands8resource16exec_resource_ls0B7_
FN:49,_RNvNtNtCs6wcrk8Qgr6W_6nanocl8commands8resource21exec_resource_inspect
FN:63,_RNCNvNtNtCs6wcrk8Qgr6W_6nanocl8commands8resource21exec_resource_history0B7_
FN:24,_RNvNtNtCs6wcrk8Qgr6W_6nanocl8commands8resource16exec_resource_rm
FNDA:1,_RNvNtNtCs6wcrk8Qgr6W_6nanocl8commands8resource21exec_resource_history
FNDA:1,_RNvNtNtCs6wcrk8Qgr6W_6nanocl8commands8resource19exec_resource_reset
FNDA:1,_RNvNtNtCs6wcrk8Qgr6W_6nanocl8commands8resource16exec_resource_ls
FNDA:1,_RNCNvNtNtCs6wcrk8Qgr6W_6nanocl8commands8resource16exec_resource_rm0B7_
FNDA:1,_RNCNvNtNtCs6wcrk8Qgr6W_6nanocl8commands8resource19exec_resource_reset0B7_
FNDA:5,_RNvNtNtCs6wcrk8Qgr6W_6nanocl8commands8resource13exec_resource
FNDA:5,_RNCNvNtNtCs6wcrk8Qgr6W_6nanocl8commands8resource13exec_resource0B7_
FNDA:1,_RNCNvNtNtCs6wcrk8Qgr6W_6nanocl8commands8resource21exec_resource_inspect0B7_
FNDA:1,_RNCNvNtNtCs6wcrk8Qgr6W_6nanocl8commands8resource16exec_resource_ls0B7_
FNDA:1,_RNvNtNtCs6wcrk8Qgr6W_6nanocl8commands8resource21exec_resource_inspect
FNDA:1,_RNCNvNtNtCs6wcrk8Qgr6W_6nanocl8commands8resource21exec_resource_history0B7_
FNDA:1,_RNvNtNtCs6wcrk8Qgr6W_6nanocl8commands8resource16exec_resource_rm
FNF:12
FNH:12
DA:12,1
DA:13,5
DA:15,1
DA:16,1
DA:17,1
DA:18,1
DA:19,1
DA:20,1
DA:21,1
DA:22,1
DA:24,1
DA:25,1
DA:26,1
DA:27,1
DA:28,1
DA:29,0
DA:30,0
DA:31,0
DA:32,0
DA:33,0
DA:34,0
DA:36,0
DA:37,0
DA:38,0
DA:41,1
DA:42,2
DA:43,6
DA:46,1
DA:47,1
DA:49,1
DA:50,1
DA:51,1
DA:52,1
DA:53,6
DA:55,1
DA:56,1
DA:57,1
DA:59,1
DA:60,1
DA:61,1
DA:62,1
DA:63,5
DA:65,1
DA:66,1
DA:67,1
DA:69,1
DA:70,1
DA:71,1
DA:72,1
DA:73,6
DA:75,1
DA:76,1
DA:77,1
DA:79,5
DA:80,5
DA:81,5
DA:82,5
DA:83,5
DA:85,5
DA:86,6
DA:87,1
DA:88,6
DA:90,1
DA:91,5
DA:93,6
DA:95,5
BRF:0
BRH:0
LF:68
LH:59
end_of_record
SF:/home/leone/Documents/next-hat/nanocl/bin/nanocl/src/commands/setup.rs
FN:119,_RNvNtNtCs6wcrk8Qgr6W_6nanocl8commands5setup20install_dependencies
FN:204,_RNCNCNvNtNtCs6wcrk8Qgr6W_6nanocl8commands5setup17init_dependencies00B9_
FN:327,_RNCNvNtNtCs6wcrk8Qgr6W_6nanocl8commands5setup14connect_docker0B7_
FN:273,_RNvNtNtCs6wcrk8Qgr6W_6nanocl8commands5setup12spawn_daemon
FN:276,_RNCNvNtNtCs6wcrk8Qgr6W_6nanocl8commands5setup12spawn_daemon0B7_
FN:62,_RNvNtNtCs6wcrk8Qgr6W_6nanocl8commands5setup13install_image
FN:151,_RNCNvNtNtCs6wcrk8Qgr6W_6nanocl8commands5setup15gen_daemon_argss_0B7_
FN:342,_RNCNvNtNtCs6wcrk8Qgr6W_6nanocl8commands5setup14connect_dockers0_0B7_
FN:162,_RNCNvNtNtCs6wcrk8Qgr6W_6nanocl8commands5setup16gen_daemon_bindss_0B7_
FN:66,_RNCNvNtNtCs6wcrk8Qgr6W_6nanocl8commands5setup13install_image0B7_
FN:28,_RNvNtNtCs6wcrk8Qgr6W_6nanocl8commands5setup15update_progress
FN:161,_RNCNvNtNtCs6wcrk8Qgr6W_6nanocl8commands5setup16gen_daemon_binds0B7_
FN:136,_RNCNvNtNtCs6wcrk8Qgr6W_6nanocl8commands5setup15gen_daemon_args0B7_
FN:196,_RNvNtNtCs6wcrk8Qgr6W_6nanocl8commands5setup17init_dependencies
FN:199,_RNCNvNtNtCs6wcrk8Qgr6W_6nanocl8commands5setup17init_dependencies0B7_
FN:122,_RNCNvNtNtCs6wcrk8Qgr6W_6nanocl8commands5setup20install_dependencies0B7_
FN:318,_RNvNtNtCs6wcrk8Qgr6W_6nanocl8commands5setup14connect_docker
FN:353,_RNvNtNtCs6wcrk8Qgr6W_6nanocl8commands5setup10exec_setup
FN:376,_RNCNCNvNtNtCs6wcrk8Qgr6W_6nanocl8commands5setup10exec_setup00B9_
FN:131,_RNvNtNtCs6wcrk8Qgr6W_6nanocl8commands5setup15gen_daemon_args
FN:353,_RNCNvNtNtCs6wcrk8Qgr6W_6nanocl8commands5setup10exec_setup0B7_
FN:157,_RNvNtNtCs6wcrk8Qgr6W_6nanocl8commands5setup16gen_daemon_binds
FN:335,_RNCNvNtNtCs6wcrk8Qgr6W_6nanocl8commands5setup14connect_dockers_0B7_
FN:405,_RNCNCNvNtNtCs6wcrk8Qgr6W_6nanocl8commands5setup10exec_setup0s_0B9_
FNDA:0,_RNvNtNtCs6wcrk8Qgr6W_6nanocl8commands5setup20install_dependencies
FNDA:0,_RNCNCNvNtNtCs6wcrk8Qgr6W_6nanocl8commands5setup17init_dependencies00B9_
FNDA:0,_RNCNvNtNtCs6wcrk8Qgr6W_6nanocl8commands5setup14connect_docker0B7_
FNDA:0,_RNvNtNtCs6wcrk8Qgr6W_6nanocl8commands5setup12spawn_daemon
FNDA:0,_RNCNvNtNtCs6wcrk8Qgr6W_6nanocl8commands5setup12spawn_daemon0B7_
FNDA:0,_RNvNtNtCs6wcrk8Qgr6W_6nanocl8commands5setup13install_image
FNDA:0,_RNCNvNtNtCs6wcrk8Qgr6W_6nanocl8commands5setup15gen_daemon_argss_0B7_
FNDA:0,_RNCNvNtNtCs6wcrk8Qgr6W_6nanocl8commands5setup14connect_dockers0_0B7_
FNDA:0,_RNCNvNtNtCs6wcrk8Qgr6W_6nanocl8commands5setup16gen_daemon_bindss_0B7_
FNDA:0,_RNCNvNtNtCs6wcrk8Qgr6W_6nanocl8commands5setup13install_image0B7_
FNDA:0,_RNvNtNtCs6wcrk8Qgr6W_6nanocl8commands5setup15update_progress
FNDA:0,_RNCNvNtNtCs6wcrk8Qgr6W_6nanocl8commands5setup16gen_daemon_binds0B7_
FNDA:0,_RNCNvNtNtCs6wcrk8Qgr6W_6nanocl8commands5setup15gen_daemon_args0B7_
FNDA:0,_RNvNtNtCs6wcrk8Qgr6W_6nanocl8commands5setup17init_dependencies
FNDA:0,_RNCNvNtNtCs6wcrk8Qgr6W_6nanocl8commands5setup17init_dependencies0B7_
FNDA:0,_RNCNvNtNtCs6wcrk8Qgr6W_6nanocl8commands5setup20install_dependencies0B7_
FNDA:0,_RNvNtNtCs6wcrk8Qgr6W_6nanocl8commands5setup14connect_docker
FNDA:0,_RNvNtNtCs6wcrk8Qgr6W_6nanocl8commands5setup10exec_setup
FNDA:0,_RNCNCNvNtNtCs6wcrk8Qgr6W_6nanocl8commands5setup10exec_setup00B9_
FNDA:0,_RNvNtNtCs6wcrk8Qgr6W_6nanocl8commands5setup15gen_daemon_args
FNDA:0,_RNCNvNtNtCs6wcrk8Qgr6W_6nanocl8commands5setup10exec_setup0B7_
FNDA:0,_RNvNtNtCs6wcrk8Qgr6W_6nanocl8commands5setup16gen_daemon_binds
FNDA:0,_RNCNvNtNtCs6wcrk8Qgr6W_6nanocl8commands5setup14connect_dockers_0B7_
FNDA:0,_RNCNCNvNtNtCs6wcrk8Qgr6W_6nanocl8commands5setup10exec_setup0s_0B9_
FNF:24
FNH:0
DA:28,0
DA:29,0
DA:30,0
DA:31,0
DA:32,0
DA:33,0
DA:34,0
DA:35,0
DA:36,0
DA:37,0
DA:38,0
DA:39,0
DA:40,0
DA:41,0
DA:42,0
DA:43,0
DA:44,0
DA:45,0
DA:46,0
DA:47,0
DA:48,0
DA:49,0
DA:50,0
DA:51,0
DA:52,0
DA:53,0
DA:54,0
DA:55,0
DA:56,0
DA:57,0
DA:58,0
DA:59,0
DA:60,0
DA:62,0
DA:63,0
DA:64,0
DA:65,0
DA:66,0
DA:67,0
DA:68,0
DA:69,0
DA:70,0
DA:71,0
DA:72,0
DA:73,0
DA:74,0
DA:75,0
DA:76,0
DA:77,0
DA:78,0
DA:79,0
DA:80,0
DA:81,0
DA:82,0
DA:84,0
DA:85,0
DA:86,0
DA:87,0
DA:88,0
DA:89,0
DA:90,0
DA:91,0
DA:92,0
DA:93,0
DA:94,0
DA:95,0
DA:96,0
DA:97,0
DA:98,0
DA:100,0
DA:101,0
DA:102,0
DA:104,0
DA:105,0
DA:106,0
DA:109,0
DA:110,0
DA:111,0
DA:116,0
DA:117,0
DA:119,0
DA:120,0
DA:121,0
DA:122,0
DA:123,0
DA:124,0
DA:125,0
DA:126,0
DA:127,0
DA:128,0
DA:129,0
DA:131,0
DA:132,0
DA:133,0
DA:134,0
DA:135,0
DA:136,0
DA:137,0
DA:138,0
DA:139,0
DA:140,0
DA:141,0
DA:142,0
DA:143,0
DA:144,0
DA:145,0
DA:146,0
DA:147,0
DA:148,0
DA:149,0
DA:150,0
DA:151,0
DA:152,0
DA:153,0
DA:154,0
DA:155,0
DA:157,0
DA:158,0
DA:159,0
DA:160,0
DA:161,0
DA:162,0
DA:163,0
DA:164,0
DA:165,0
DA:166,0
DA:167,0
DA:168,0
DA:169,0
DA:170,0
DA:171,0
DA:172,0
DA:173,0
DA:174,0
DA:175,0
DA:176,0
DA:177,0
DA:178,0
DA:179,0
DA:180,0
DA:181,0
DA:182,0
DA:183,0
DA:184,0
DA:186,0
DA:187,0
DA:188,0
DA:189,0
DA:190,0
DA:193,0
DA:194,0
DA:196,0
DA:197,0
DA:198,0
DA:199,0
DA:200,0
DA:201,0
DA:202,0
DA:203,0
DA:204,0
DA:205,0
DA:206,0
DA:207,0
DA:208,0
DA:210,0
DA:211,0
DA:212,0
DA:213,0
DA:214,0
DA:215,0
DA:216,0
DA:217,0
DA:218,0
DA:219,0
DA:220,0
DA:221,0
DA:222,0
DA:223,0
DA:224,0
DA:225,0
DA:226,0
DA:227,0
DA:228,0
DA:229,0
DA:230,0
DA:231,0
DA:232,0
DA:233,0
DA:234,0
DA:235,0
DA:236,0
DA:237,0
DA:238,0
DA:239,0
DA:240,0
DA:241,0
DA:242,0
DA:243,0
DA:244,0
DA:245,0
DA:246,0
DA:247,0
DA:248,0
DA:250,0
DA:252,0
DA:253,0
DA:254,0
DA:255,0
DA:256,0
DA:257,0
DA:258,0
DA:259,0
DA:260,0
DA:263,0
DA:264,0
DA:265,0
DA:270,0
DA:271,0
DA:273,0
DA:274,0
DA:275,0
DA:276,0
DA:277,0
DA:278,0
DA:279,0
DA:280,0
DA:281,0
DA:282,0
DA:283,0
DA:284,0
DA:285,0
DA:287,0
DA:288,0
DA:289,0
DA:290,0
DA:291,0
DA:292,0
DA:293,0
DA:294,0
DA:295,0
DA:296,0
DA:297,0
DA:298,0
DA:299,0
DA:300,0
DA:301,0
DA:302,0
DA:303,0
DA:304,0
DA:305,0
DA:306,0
DA:307,0
DA:308,0
DA:310,0
DA:311,0
DA:312,0
DA:314,0
DA:315,0
DA:316,0
DA:318,0
DA:319,0
DA:320,0
DA:321,0
DA:322,0
DA:323,0
DA:324,0
DA:325,0
DA:326,0
DA:327,0
DA:328,0
DA:329,0
DA:330,0
DA:331,0
DA:333,0
DA:334,0
DA:335,0
DA:336,0
DA:337,0
DA:338,0
DA:340,0
DA:341,0
DA:342,0
DA:343,0
DA:344,0
DA:345,0
DA:347,0
DA:348,0
DA:349,0
DA:351,0
DA:353,0
DA:354,0
DA:355,0
DA:356,0
DA:357,0
DA:358,0
DA:359,0
DA:360,0
DA:361,0
DA:362,0
DA:363,0
DA:364,0
DA:365,0
DA:366,0
DA:367,0
DA:368,0
DA:369,0
DA:370,0
DA:371,0
DA:372,0
DA:374,0
DA:376,0
DA:377,0
DA:378,0
DA:379,0
DA:380,0
DA:382,0
DA:385,0
DA:386,0
DA:387,0
DA:388,0
DA:389,0
DA:390,0
DA:392,0
DA:393,0
DA:394,0
DA:395,0
DA:396,0
DA:397,0
DA:398,0
DA:399,0
DA:400,0
DA:402,0
DA:403,0
DA:405,0
DA:406,0
DA:407,0
DA:408,0
DA:409,0
DA:412,0
DA:413,0
DA:414,0
DA:415,0
DA:416,0
DA:417,0
DA:418,0
DA:419,0
DA:420,0
DA:421,0
DA:423,0
DA:425,0
DA:427,0
DA:429,0
DA:431,0
DA:432,0
DA:433,0
BRF:0
BRH:0
LF:376
LH:0
end_of_record
SF:/home/leone/Documents/next-hat/nanocl/bin/nanocl/src/commands/state.rs
FN:48,_RNvNtNtCs6wcrk8Qgr6W_6nanocl8commands5state13get_from_file
FN:219,_RNCNvNtNtCs6wcrk8Qgr6W_6nanocl8commands5state17attach_to_cargoes0B7_
FN:267,_RNvNtNtCs6wcrk8Qgr6W_6nanocl8commands5state17inject_build_args
FN:51,_RNCNvNtNtCs6wcrk8Qgr6W_6nanocl8commands5state13get_from_file0B7_
FN:59,_RNvNtNtCs6wcrk8Qgr6W_6nanocl8commands5state20download_cargo_image
FN:176,_RNCNCNvNtNtCs6wcrk8Qgr6W_6nanocl8commands5state15attach_to_cargo00B9_
FN:234,_RNCNvNtNtCs6wcrk8Qgr6W_6nanocl8commands5state10gen_client0B7_
FN:153,_RNCNvNtNtCs6wcrk8Qgr6W_6nanocl8commands5state15attach_to_cargo0B7_
FN:25,_RNCNvNtNtCs6wcrk8Qgr6W_6nanocl8commands5state12get_from_url0B7_
FN:350,_RNvNtNtCs6wcrk8Qgr6W_6nanocl8commands5state16exec_state_apply
FN:36,_RNCNCNvNtNtCs6wcrk8Qgr6W_6nanocl8commands5state12get_from_url0s_0B9_
FN:76,_RNvNtNtCs6wcrk8Qgr6W_6nanocl8commands5state10hook_binds
FN:122,_RNCNvNtNtCs6wcrk8Qgr6W_6nanocl8commands5state12hook_cargoes0B7_
FN:23,_RNvNtNtCs6wcrk8Qgr6W_6nanocl8commands5state12get_from_url
FN:335,_RNCNvNtNtCs6wcrk8Qgr6W_6nanocl8commands5state17inject_build_args0B7_
FN:40,_RNCNCNvNtNtCs6wcrk8Qgr6W_6nanocl8commands5state12get_from_url0s0_0B9_
FN:62,_RNCNvNtNtCs6wcrk8Qgr6W_6nanocl8commands5state20download_cargo_image0B7_
FN:252,_RNCNvNtNtCs6wcrk8Qgr6W_6nanocl8commands5state10gen_clients_0B7_
FN:215,_RNvNtNtCs6wcrk8Qgr6W_6nanocl8commands5state17attach_to_cargoes
FN:119,_RNvNtNtCs6wcrk8Qgr6W_6nanocl8commands5state12hook_cargoes
FN:405,_RNCNvNtNtCs6wcrk8Qgr6W_6nanocl8commands5state17exec_state_revert0B7_
FN:433,_RNvNtNtCs6wcrk8Qgr6W_6nanocl8commands5state10exec_state
FN:404,_RNvNtNtCs6wcrk8Qgr6W_6nanocl8commands5state17exec_state_revert
FN:31,_RNCNCNvNtNtCs6wcrk8Qgr6W_6nanocl8commands5state12get_from_url00B9_
FN:229,_RNvNtNtCs6wcrk8Qgr6W_6nanocl8commands5state10gen_client
FN:343,_RNCNvNtNtCs6wcrk8Qgr6W_6nanocl8commands5state17inject_build_argss_0B7_
FN:148,_RNvNtNtCs6wcrk8Qgr6W_6nanocl8commands5state15attach_to_cargo
FN:139,_RNvNtNtCs6wcrk8Qgr6W_6nanocl8commands5state11inject_meta
FN:351,_RNCNvNtNtCs6wcrk8Qgr6W_6nanocl8commands5state16exec_state_apply0B7_
FN:433,_RNCNvNtNtCs6wcrk8Qgr6W_6nanocl8commands5state10exec_state0B7_
FNDA:8,_RNvNtNtCs6wcrk8Qgr6W_6nanocl8commands5state13get_from_file
FNDA:0,_RNCNvNtNtCs6wcrk8Qgr6W_6nanocl8commands5state17attach_to_cargoes0B7_
FNDA:8,_RNvNtNtCs6wcrk8Qgr6W_6nanocl8commands5state17inject_build_args
FNDA:8,_RNCNvNtNtCs6wcrk8Qgr6W_6nanocl8commands5state13get_from_file0B7_
FNDA:0,_RNvNtNtCs6wcrk8Qgr6W_6nanocl8commands5state20download_cargo_image
FNDA:0,_RNCNCNvNtNtCs6wcrk8Qgr6W_6nanocl8commands5state15attach_to_cargo00B9_
FNDA:0,_RNCNvNtNtCs6wcrk8Qgr6W_6nanocl8commands5state10gen_client0B7_
FNDA:0,_RNCNvNtNtCs6wcrk8Qgr6W_6nanocl8commands5state15attach_to_cargo0B7_
FNDA:0,_RNCNvNtNtCs6wcrk8Qgr6W_6nanocl8commands5state12get_from_url0B7_
FNDA:5,_RNvNtNtCs6wcrk8Qgr6W_6nanocl8commands5state16exec_state_apply
FNDA:0,_RNCNCNvNtNtCs6wcrk8Qgr6W_6nanocl8commands5state12get_from_url0s_0B9_
FNDA:6,_RNvNtNtCs6wcrk8Qgr6W_6nanocl8commands5state10hook_binds
FNDA:4,_RNCNvNtNtCs6wcrk8Qgr6W_6nanocl8commands5state12hook_cargoes0B7_
FNDA:0,_RNvNtNtCs6wcrk8Qgr6W_6nanocl8commands5state12get_from_url
FNDA:0,_RNCNvNtNtCs6wcrk8Qgr6W_6nanocl8commands5state17inject_build_args0B7_
FNDA:0,_RNCNCNvNtNtCs6wcrk8Qgr6W_6nanocl8commands5state12get_from_url0s0_0B9_
FNDA:0,_RNCNvNtNtCs6wcrk8Qgr6W_6nanocl8commands5state20download_cargo_image0B7_
FNDA:0,_RNCNvNtNtCs6wcrk8Qgr6W_6nanocl8commands5state10gen_clients_0B7_
FNDA:0,_RNvNtNtCs6wcrk8Qgr6W_6nanocl8commands5state17attach_to_cargoes
FNDA:4,_RNvNtNtCs6wcrk8Qgr6W_6nanocl8commands5state12hook_cargoes
FNDA:3,_RNCNvNtNtCs6wcrk8Qgr6W_6nanocl8commands5state17exec_state_revert0B7_
FNDA:8,_RNvNtNtCs6wcrk8Qgr6W_6nanocl8commands5state10exec_state
FNDA:3,_RNvNtNtCs6wcrk8Qgr6W_6nanocl8commands5state17exec_state_revert
FNDA:0,_RNCNCNvNtNtCs6wcrk8Qgr6W_6nanocl8commands5state12get_from_url00B9_
FNDA:8,_RNvNtNtCs6wcrk8Qgr6W_6nanocl8commands5state10gen_client
FNDA:0,_RNCNvNtNtCs6wcrk8Qgr6W_6nanocl8commands5state17inject_build_argss_0B7_
FNDA:0,_RNvNtNtCs6wcrk8Qgr6W_6nanocl8commands5state15attach_to_cargo
FNDA:4,_RNvNtNtCs6wcrk8Qgr6W_6nanocl8commands5state11inject_meta
FNDA:5,_RNCNvNtNtCs6wcrk8Qgr6W_6nanocl8commands5state16exec_state_apply0B7_
FNDA:8,_RNCNvNtNtCs6wcrk8Qgr6W_6nanocl8commands5state10exec_state0B7_
FNF:30
FNH:14
DA:23,0
DA:24,0
DA:25,0
DA:26,0
DA:27,0
DA:28,0
DA:29,0
DA:30,0
DA:31,0
DA:32,0
DA:33,0
DA:34,0
DA:35,0
DA:36,0
DA:37,0
DA:38,0
DA:39,0
DA:40,0
DA:41,0
DA:42,0
DA:43,0
DA:44,0
DA:45,0
DA:46,0
DA:48,8
DA:49,8
DA:50,8
DA:51,8
DA:52,8
DA:53,8
DA:54,8
DA:55,8
DA:56,8
DA:57,8
DA:59,0
DA:60,0
DA:61,0
DA:62,0
DA:63,0
DA:64,0
DA:65,0
DA:68,0
DA:69,0
DA:70,0
DA:73,0
DA:74,0
DA:76,6
DA:77,6
DA:78,6
DA:79,6
DA:80,6
DA:81,0
DA:82,0
DA:83,0
DA:84,0
DA:85,0
DA:86,0
DA:87,0
DA:88,0
DA:89,0
DA:90,0
DA:91,0
DA:92,0
DA:93,0
DA:94,0
DA:96,0
DA:99,0
DA:101,0
DA:103,0
DA:104,0
DA:105,0
DA:106,0
DA:107,0
DA:108,0
DA:109,0
DA:110,0
DA:111,0
DA:112,0
DA:116,6
DA:117,6
DA:119,4
DA:120,4
DA:121,4
DA:122,4
DA:123,4
DA:124,10
DA:125,6
DA:126,6
DA:127,28
DA:128,6
DA:130,0
DA:131,6
DA:133,6
DA:134,6
DA:136,4
DA:137,4
DA:139,4
DA:140,4
DA:141,4
DA:142,4
DA:143,4
DA:144,4
DA:145,4
DA:146,4
DA:148,0
DA:149,0
DA:150,0
DA:151,0
DA:152,0
DA:153,0
DA:154,0
DA:155,0
DA:157,0
DA:158,0
DA:159,0
DA:160,0
DA:161,0
DA:162,0
DA:164,0
DA:165,0
DA:166,0
DA:167,0
DA:168,0
DA:169,0
DA:170,0
DA:172,0
DA:174,0
DA:175,0
DA:176,0
DA:177,0
DA:178,0
DA:179,0
DA:180,0
DA:181,0
DA:182,0
DA:183,0
DA:184,0
DA:185,0
DA:186,0
DA:187,0
DA:188,0
DA:189,0
DA:190,0
DA:191,0
DA:194,0
DA:195,0
DA:196,0
DA:197,0
DA:198,0
DA:199,0
DA:200,0
DA:201,0
DA:202,0
DA:203,0
DA:204,0
DA:209,0
DA:210,0
DA:212,0
DA:213,0
DA:215,0
DA:216,0
DA:217,0
DA:218,0
DA:219,0
DA:220,0
DA:221,0
DA:222,0
DA:223,0
DA:225,0
DA:226,0
DA:227,0
DA:229,8
DA:230,8
DA:231,8
DA:232,0
DA:233,0
DA:234,0
DA:235,0
DA:236,0
DA:237,0
DA:238,0
DA:239,0
DA:240,0
DA:241,0
DA:242,0
DA:243,0
DA:245,8
DA:246,8
DA:249,0
DA:250,0
DA:251,0
DA:252,0
DA:253,0
DA:254,0
DA:255,0
DA:256,0
DA:257,0
DA:258,0
DA:259,0
DA:260,0
DA:261,0
DA:264,8
DA:265,8
DA:267,8
DA:268,8
DA:269,8
DA:270,8
DA:271,8
DA:273,8
DA:274,8
DA:275,0
DA:276,0
DA:277,0
DA:278,0
DA:279,0
DA:280,0
DA:281,0
DA:282,0
DA:283,0
DA:284,0
DA:285,0
DA:286,0
DA:287,0
DA:288,0
DA:289,0
DA:290,0
DA:291,0
DA:292,0
DA:293,0
DA:294,0
DA:296,0
DA:298,0
DA:299,0
DA:300,0
DA:302,0
DA:303,0
DA:304,0
DA:305,0
DA:306,0
DA:307,0
DA:308,0
DA:309,0
DA:310,0
DA:312,0
DA:313,0
DA:314,0
DA:315,0
DA:316,0
DA:319,0
DA:320,0
DA:321,0
DA:326,0
DA:327,0
DA:328,0
DA:329,0
DA:330,0
DA:331,0
DA:333,0
DA:334,0
DA:335,0
DA:336,0
DA:337,0
DA:338,0
DA:339,0
DA:340,0
DA:341,0
DA:342,0
DA:343,0
DA:344,0
DA:345,0
DA:346,0
DA:347,0
DA:348,8
DA:350,5
DA:351,5
DA:352,0
DA:353,5
DA:356,5
DA:358,5
DA:360,5
DA:361,5
DA:362,5
DA:363,5
DA:364,2
DA:365,2
DA:366,10
DA:367,2
DA:368,2
DA:369,2
DA:371,3
DA:372,2
DA:373,2
DA:374,18
DA:375,2
DA:376,2
DA:377,2
DA:379,1
DA:381,5
DA:382,5
DA:383,5
DA:384,0
DA:385,0
DA:386,0
DA:387,0
DA:388,0
DA:389,0
DA:391,0
DA:392,0
DA:393,0
DA:396,5
DA:397,30
DA:398,5
DA:399,0
DA:400,5
DA:401,5
DA:402,5
DA:404,3
DA:405,3
DA:406,0
DA:407,3
DA:410,3
DA:412,3
DA:413,3
DA:414,3
DA:415,3
DA:416,0
DA:417,0
DA:418,0
DA:419,0
DA:420,0
DA:421,0
DA:423,0
DA:424,0
DA:425,0
DA:428,3
DA:429,28
DA:430,3
DA:431,3
DA:433,8
DA:434,8
DA:435,58
DA:436,28
DA:438,8
BRF:0
BRH:0
LF:362
LH:106
end_of_record
SF:/home/leone/Documents/next-hat/nanocl/bin/nanocl/src/commands/system.rs
FN:10,_RNCNvNtNtCs6wcrk8Qgr6W_6nanocl8commands6system12exec_process0B7_
FN:7,_RNvNtNtCs6wcrk8Qgr6W_6nanocl8commands6system12exec_process
FNDA:0,_RNCNvNtNtCs6wcrk8Qgr6W_6nanocl8commands6system12exec_process0B7_
FNDA:0,_RNvNtNtCs6wcrk8Qgr6W_6nanocl8commands6system12exec_process
FNF:2
FNH:0
DA:7,0
DA:8,0
DA:9,0
DA:10,0
DA:11,0
DA:13,0
DA:15,0
DA:16,0
DA:17,0
DA:18,0
DA:19,0
DA:20,0
DA:21,0
DA:22,0
BRF:0
BRH:0
LF:15
LH:0
end_of_record
SF:/home/leone/Documents/next-hat/nanocl/bin/nanocl/src/commands/version.rs
FN:6,_RNCNvNtNtCs6wcrk8Qgr6W_6nanocl8commands7version13print_version0B7_
FN:24,_RNCNvNtNtCs6wcrk8Qgr6W_6nanocl8commands7version12exec_version0B7_
FN:6,_RNvNtNtCs6wcrk8Qgr6W_6nanocl8commands7version13print_version
FN:23,_RNvNtNtCs6wcrk8Qgr6W_6nanocl8commands7version12exec_version
FNDA:1,_RNCNvNtNtCs6wcrk8Qgr6W_6nanocl8commands7version13print_version0B7_
FNDA:1,_RNCNvNtNtCs6wcrk8Qgr6W_6nanocl8commands7version12exec_version0B7_
FNDA:1,_RNvNtNtCs6wcrk8Qgr6W_6nanocl8commands7version13print_version
FNDA:1,_RNvNtNtCs6wcrk8Qgr6W_6nanocl8commands7version12exec_version
FNF:4
FNH:4
DA:6,1
DA:7,1
DA:8,1
DA:10,5
DA:11,1
DA:12,1
DA:13,1
DA:14,1
DA:15,1
DA:16,1
DA:17,1
DA:18,1
DA:19,1
DA:20,1
DA:21,1
DA:23,1
DA:24,5
DA:25,1
DA:26,1
BRF:0
BRH:0
LF:20
LH:20
end_of_record
SF:/home/leone/Documents/next-hat/nanocl/bin/nanocl/src/commands/vm.rs
FN:171,_RNCNCNvNtNtCs6wcrk8Qgr6W_6nanocl8commands2vm14exec_vm_attach0s0_0B9_
FN:118,_RNvNtNtCs6wcrk8Qgr6W_6nanocl8commands2vm14exec_vm_attach
FN:125,_RNCNvNtNtCs6wcrk8Qgr6W_6nanocl8commands2vm14exec_vm_attach0B7_
FN:61,_RNvNtNtCs6wcrk8Qgr6W_6nanocl8commands2vm15exec_vm_inspect
FN:208,_RNCNCNvNtNtCs6wcrk8Qgr6W_6nanocl8commands2vm14exec_vm_attach0s1_0B9_
FN:93,_RNvNtNtCs6wcrk8Qgr6W_6nanocl8commands2vm11exec_vm_run
FN:54,_RNCNvNtNtCs6wcrk8Qgr6W_6nanocl8commands2vm10exec_vm_rm0B7_
FN:49,_RNvNtNtCs6wcrk8Qgr6W_6nanocl8commands2vm10exec_vm_rm
FN:73,_RNvNtNtCs6wcrk8Qgr6W_6nanocl8commands2vm13exec_vm_start
FN:40,_RNCNvNtNtCs6wcrk8Qgr6W_6nanocl8commands2vm10exec_vm_ls0B7_
FN:66,_RNCNvNtNtCs6wcrk8Qgr6W_6nanocl8commands2vm15exec_vm_inspect0B7_
FN:105,_RNvNtNtCs6wcrk8Qgr6W_6nanocl8commands2vm13exec_vm_patch
FN:27,_RNCNvNtNtCs6wcrk8Qgr6W_6nanocl8commands2vm14exec_vm_create0B7_
FN:161,_RNCNCNvNtNtCs6wcrk8Qgr6W_6nanocl8commands2vm14exec_vm_attach0s_0B9_
FN:97,_RNCNvNtNtCs6wcrk8Qgr6W_6nanocl8commands2vm11exec_vm_run0B7_
FN:78,_RNCNvNtNtCs6wcrk8Qgr6W_6nanocl8commands2vm13exec_vm_start0B7_
FN:88,_RNCNvNtNtCs6wcrk8Qgr6W_6nanocl8commands2vm12exec_vm_stop0B7_
FN:109,_RNCNvNtNtCs6wcrk8Qgr6W_6nanocl8commands2vm13exec_vm_patch0B7_
FN:36,_RNvNtNtCs6wcrk8Qgr6W_6nanocl8commands2vm10exec_vm_ls
FN:23,_RNvNtNtCs6wcrk8Qgr6W_6nanocl8commands2vm14exec_vm_create
FN:222,_RNCNvNtNtCs6wcrk8Qgr6W_6nanocl8commands2vm7exec_vm0B7_
FN:219,_RNvNtNtCs6wcrk8Qgr6W_6nanocl8commands2vm7exec_vm
FN:83,_RNvNtNtCs6wcrk8Qgr6W_6nanocl8commands2vm12exec_vm_stop
FN:143,_RNCNCNvNtNtCs6wcrk8Qgr6W_6nanocl8commands2vm14exec_vm_attach00B9_
FNDA:0,_RNCNCNvNtNtCs6wcrk8Qgr6W_6nanocl8commands2vm14exec_vm_attach0s0_0B9_
FNDA:0,_RNvNtNtCs6wcrk8Qgr6W_6nanocl8commands2vm14exec_vm_attach
FNDA:0,_RNCNvNtNtCs6wcrk8Qgr6W_6nanocl8commands2vm14exec_vm_attach0B7_
FNDA:0,_RNvNtNtCs6wcrk8Qgr6W_6nanocl8commands2vm15exec_vm_inspect
FNDA:0,_RNCNCNvNtNtCs6wcrk8Qgr6W_6nanocl8commands2vm14exec_vm_attach0s1_0B9_
FNDA:0,_RNvNtNtCs6wcrk8Qgr6W_6nanocl8commands2vm11exec_vm_run
FNDA:0,_RNCNvNtNtCs6wcrk8Qgr6W_6nanocl8commands2vm10exec_vm_rm0B7_
FNDA:0,_RNvNtNtCs6wcrk8Qgr6W_6nanocl8commands2vm10exec_vm_rm
FNDA:0,_RNvNtNtCs6wcrk8Qgr6W_6nanocl8commands2vm13exec_vm_start
FNDA:0,_RNCNvNtNtCs6wcrk8Qgr6W_6nanocl8commands2vm10exec_vm_ls0B7_
FNDA:0,_RNCNvNtNtCs6wcrk8Qgr6W_6nanocl8commands2vm15exec_vm_inspect0B7_
FNDA:0,_RNvNtNtCs6wcrk8Qgr6W_6nanocl8commands2vm13exec_vm_patch
FNDA:0,_RNCNvNtNtCs6wcrk8Qgr6W_6nanocl8commands2vm14exec_vm_create0B7_
FNDA:0,_RNCNCNvNtNtCs6wcrk8Qgr6W_6nanocl8commands2vm14exec_vm_attach0s_0B9_
FNDA:0,_RNCNvNtNtCs6wcrk8Qgr6W_6nanocl8commands2vm11exec_vm_run0B7_
FNDA:0,_RNCNvNtNtCs6wcrk8Qgr6W_6nanocl8commands2vm13exec_vm_start0B7_
FNDA:0,_RNCNvNtNtCs6wcrk8Qgr6W_6nanocl8commands2vm12exec_vm_stop0B7_
FNDA:0,_RNCNvNtNtCs6wcrk8Qgr6W_6nanocl8commands2vm13exec_vm_patch0B7_
FNDA:0,_RNvNtNtCs6wcrk8Qgr6W_6nanocl8commands2vm10exec_vm_ls
FNDA:0,_RNvNtNtCs6wcrk8Qgr6W_6nanocl8commands2vm14exec_vm_create
FNDA:0,_RNCNvNtNtCs6wcrk8Qgr6W_6nanocl8commands2vm7exec_vm0B7_
FNDA:0,_RNvNtNtCs6wcrk8Qgr6W_6nanocl8commands2vm7exec_vm
FNDA:0,_RNvNtNtCs6wcrk8Qgr6W_6nanocl8commands2vm12exec_vm_stop
FNDA:0,_RNCNCNvNtNtCs6wcrk8Qgr6W_6nanocl8commands2vm14exec_vm_attach00B9_
FNF:24
FNH:0
DA:23,0
DA:24,0
DA:25,0
DA:26,0
DA:27,0
DA:28,0
DA:29,0
DA:31,0
DA:32,0
DA:33,0
DA:34,0
DA:36,0
DA:37,0
DA:38,0
DA:39,0
DA:40,0
DA:42,0
DA:43,0
DA:44,0
DA:45,0
DA:46,0
DA:47,0
DA:49,0
DA:50,0
DA:51,0
DA:52,0
DA:53,0
DA:54,0
DA:55,0
DA:58,0
DA:59,0
DA:61,0
DA:62,0
DA:63,0
DA:64,0
DA:65,0
DA:66,0
DA:68,0
DA:69,0
DA:70,0
DA:71,0
DA:73,0
DA:74,0
DA:75,0
DA:76,0
DA:77,0
DA:78,0
DA:80,0
DA:81,0
DA:83,0
DA:84,0
DA:85,0
DA:86,0
DA:87,0
DA:88,0
DA:90,0
DA:91,0
DA:93,0
DA:94,0
DA:95,0
DA:96,0
DA:97,0
DA:98,0
DA:99,0
DA:100,0
DA:102,0
DA:103,0
DA:105,0
DA:106,0
DA:107,0
DA:108,0
DA:109,0
DA:110,0
DA:111,0
DA:112,0
DA:113,0
DA:115,0
DA:116,0
DA:118,0
DA:119,0
DA:120,0
DA:121,0
DA:122,0
DA:125,0
DA:126,0
DA:129,0
DA:131,0
DA:132,0
DA:133,0
DA:134,0
DA:135,0
DA:136,0
DA:137,0
DA:138,0
DA:139,0
DA:140,0
DA:141,0
DA:143,0
DA:144,0
DA:145,0
DA:146,0
DA:147,0
DA:148,0
DA:149,0
DA:150,0
DA:151,0
DA:152,0
DA:153,0
DA:155,0
DA:156,0
DA:157,0
DA:158,0
DA:159,0
DA:160,0
DA:161,0
DA:162,0
DA:163,0
DA:164,0
DA:165,0
DA:167,0
DA:168,0
DA:169,0
DA:170,0
DA:171,0
DA:173,0
DA:174,0
DA:175,0
DA:176,0
DA:178,0
DA:179,0
DA:180,0
DA:181,0
DA:182,0
DA:184,0
DA:185,0
DA:186,0
DA:187,0
DA:188,0
DA:190,0
DA:191,0
DA:194,0
DA:195,0
DA:198,0
DA:199,0
DA:201,0
DA:204,0
DA:205,0
DA:206,0
DA:207,0
DA:208,0
DA:210,0
DA:211,0
DA:215,0
DA:216,0
DA:217,0
DA:219,0
DA:220,0
DA:221,0
DA:222,0
DA:223,0
DA:224,0
DA:225,0
DA:226,0
DA:227,0
DA:228,0
DA:229,0
DA:230,0
DA:231,0
DA:232,0
DA:233,0
DA:235,0
BRF:0
BRH:0
LF:182
LH:0
end_of_record
SF:/home/leone/Documents/next-hat/nanocl/bin/nanocl/src/commands/vm_image.rs
FN:71,_RNvNtNtCs6wcrk8Qgr6W_6nanocl8commands8vm_image16exec_vm_image_ls
FN:43,_RNCNCNvNtNtCs6wcrk8Qgr6W_6nanocl8commands8vm_image20exec_vm_image_create0s0_0B9_
FN:82,_RNvNtNtCs6wcrk8Qgr6W_6nanocl8commands8vm_image16exec_vm_image_rm
FN:92,_RNvNtNtCs6wcrk8Qgr6W_6nanocl8commands8vm_image19exec_vm_image_clone
FN:86,_RNCNvNtNtCs6wcrk8Qgr6W_6nanocl8commands8vm_image16exec_vm_image_rm0B7_
FN:35,_RNCNCNvNtNtCs6wcrk8Qgr6W_6nanocl8commands8vm_image20exec_vm_image_create0s_0B9_
FN:28,_RNCNCNvNtNtCs6wcrk8Qgr6W_6nanocl8commands8vm_image20exec_vm_image_create00B9_
FN:122,_RNCNvNtNtCs6wcrk8Qgr6W_6nanocl8commands8vm_image14exec_vm_resize0B7_
FN:97,_RNCNvNtNtCs6wcrk8Qgr6W_6nanocl8commands8vm_image19exec_vm_image_clone0B7_
FN:57,_RNCNCNvNtNtCs6wcrk8Qgr6W_6nanocl8commands8vm_image20exec_vm_image_create0s1_0B9_
FN:119,_RNvNtNtCs6wcrk8Qgr6W_6nanocl8commands8vm_image14exec_vm_resize
FN:72,_RNCNvNtNtCs6wcrk8Qgr6W_6nanocl8commands8vm_image16exec_vm_image_ls0B7_
FN:128,_RNvNtNtCs6wcrk8Qgr6W_6nanocl8commands8vm_image13exec_vm_image
FN:131,_RNCNvNtNtCs6wcrk8Qgr6W_6nanocl8commands8vm_image13exec_vm_image0B7_
FN:19,_RNvNtNtCs6wcrk8Qgr6W_6nanocl8commands8vm_image20exec_vm_image_create
FN:22,_RNCNvNtNtCs6wcrk8Qgr6W_6nanocl8commands8vm_image20exec_vm_image_create0B7_
FNDA:0,_RNvNtNtCs6wcrk8Qgr6W_6nanocl8commands8vm_image16exec_vm_image_ls
FNDA:0,_RNCNCNvNtNtCs6wcrk8Qgr6W_6nanocl8commands8vm_image20exec_vm_image_create0s0_0B9_
FNDA:0,_RNvNtNtCs6wcrk8Qgr6W_6nanocl8commands8vm_image16exec_vm_image_rm
FNDA:0,_RNvNtNtCs6wcrk8Qgr6W_6nanocl8commands8vm_image19exec_vm_image_clone
FNDA:0,_RNCNvNtNtCs6wcrk8Qgr6W_6nanocl8commands8vm_image16exec_vm_image_rm0B7_
FNDA:0,_RNCNCNvNtNtCs6wcrk8Qgr6W_6nanocl8commands8vm_image20exec_vm_image_create0s_0B9_
FNDA:0,_RNCNCNvNtNtCs6wcrk8Qgr6W_6nanocl8commands8vm_image20exec_vm_image_create00B9_
FNDA:0,_RNCNvNtNtCs6wcrk8Qgr6W_6nanocl8commands8vm_image14exec_vm_resize0B7_
FNDA:0,_RNCNvNtNtCs6wcrk8Qgr6W_6nanocl8commands8vm_image19exec_vm_image_clone0B7_
FNDA:0,_RNCNCNvNtNtCs6wcrk8Qgr6W_6nanocl8commands8vm_image20exec_vm_image_create0s1_0B9_
FNDA:0,_RNvNtNtCs6wcrk8Qgr6W_6nanocl8commands8vm_image14exec_vm_resize
FNDA:0,_RNCNvNtNtCs6wcrk8Qgr6W_6nanocl8commands8vm_image16exec_vm_image_ls0B7_
FNDA:0,_RNvNtNtCs6wcrk8Qgr6W_6nanocl8commands8vm_image13exec_vm_image
FNDA:0,_RNCNvNtNtCs6wcrk8Qgr6W_6nanocl8commands8vm_image13exec_vm_image0B7_
FNDA:0,_RNvNtNtCs6wcrk8Qgr6W_6nanocl8commands8vm_image20exec_vm_image_create
FNDA:0,_RNCNvNtNtCs6wcrk8Qgr6W_6nanocl8commands8vm_image20exec_vm_image_create0B7_
FNF:16
FNH:0
DA:19,0
DA:20,0
DA:21,0
DA:22,0
DA:23,0
DA:25,0
DA:26,0
DA:27,0
DA:28,0
DA:29,0
DA:30,0
DA:32,0
DA:33,0
DA:34,0
DA:35,0
DA:36,0
DA:37,0
DA:40,0
DA:41,0
DA:42,0
DA:43,0
DA:44,0
DA:45,0
DA:46,0
DA:47,0
DA:48,0
DA:49,0
DA:50,0
DA:51,0
DA:52,0
DA:53,0
DA:54,0
DA:55,0
DA:56,0
DA:57,0
DA:58,0
DA:59,0
DA:60,0
DA:61,0
DA:62,0
DA:63,0
DA:64,0
DA:65,0
DA:66,0
DA:68,0
DA:69,0
DA:71,0
DA:72,0
DA:73,0
DA:74,0
DA:75,0
DA:76,0
DA:77,0
DA:78,0
DA:79,0
DA:80,0
DA:82,0
DA:83,0
DA:84,0
DA:85,0
DA:86,0
DA:87,0
DA:89,0
DA:90,0
DA:92,0
DA:93,0
DA:94,0
DA:95,0
DA:96,0
DA:97,0
DA:98,0
DA:99,0
DA:100,0
DA:101,0
DA:102,0
DA:103,0
DA:104,0
DA:105,0
DA:106,0
DA:107,0
DA:108,0
DA:109,0
DA:110,0
DA:111,0
DA:112,0
DA:113,0
DA:116,0
DA:117,0
DA:119,0
DA:120,0
DA:121,0
DA:122,0
DA:123,0
DA:124,0
DA:125,0
DA:126,0
DA:128,0
DA:129,0
DA:130,0
DA:131,0
DA:132,0
DA:133,0
DA:134,0
DA:136,0
DA:137,0
DA:138,0
DA:139,0
DA:141,0
DA:143,0
BRF:0
BRH:0
LF:120
LH:0
end_of_record
SF:/home/leone/Documents/next-hat/nanocl/bin/nanocl/src/config.rs
FN:4,_RINvXNvXNvNtCs6wcrk8Qgr6W_6nanocl6configs_1__NtB8_9CliConfigNtNtCse3fRS504XmB_5serde2de11Deserialize11deserializeNtB3_14___FieldVisitorNtBY_7Visitor11visit_bytespEBa_
FN:4,_RINvXNvNtCs6wcrk8Qgr6W_6nanocl6config1__NtB5_9CliConfigNtNtCse3fRS504XmB_5serde3ser9Serialize9serializepEB7_
FN:4,_RINvXs0_NvXNvNtCs6wcrk8Qgr6W_6nanocl6configs_1__NtBb_9CliConfigNtNtCse3fRS504XmB_5serde2de11Deserialize11deserializeNtB6_9___VisitorNtB11_7Visitor9visit_seqpEBd_
FN:4,_RNvXNtCs6wcrk8Qgr6W_6nanocl6configNtB2_9CliConfigNtNtCshYNBHIop811_4core5clone5Clone5cloneB4_
FN:4,_RNvXs_NtCs6wcrk8Qgr6W_6nanocl6configNtB4_9CliConfigNtNtCshYNBHIop811_4core3fmt5Debug3fmt
FN:4,_RINvXNvXNvNtCs6wcrk8Qgr6W_6nanocl6configs_1__NtB8_9CliConfigNtNtCse3fRS504XmB_5serde2de11Deserialize11deserializeNtB3_14___FieldVisitorNtBY_7Visitor9visit_u64pEBa_
FN:13,_RNvNtCs6wcrk8Qgr6W_6nanocl6config4read
FN:4,_RNvXs0_NtCs6wcrk8Qgr6W_6nanocl6configNtB5_9CliConfigNtNtCshYNBHIop811_4core7default7Default7defaultB7_
FN:4,_RNvXs0_NvXNvNtCs6wcrk8Qgr6W_6nanocl6configs_1__NtBa_9CliConfigNtNtCse3fRS504XmB_5serde2de11Deserialize11deserializeNtB5_9___VisitorNtB10_7Visitor9expecting
FN:4,_RINvXs0_NvXNvNtCs6wcrk8Qgr6W_6nanocl6configs_1__NtBb_9CliConfigNtNtCse3fRS504XmB_5serde2de11Deserialize11deserializeNtB6_9___VisitorNtB11_7Visitor9visit_mapNtNtCs4jMWN2zKWPr_10serde_yaml2de9MapAccessEBd_
FN:4,_RINvXs0_NvXNvNtCs6wcrk8Qgr6W_6nanocl6configs_1__NtBb_9CliConfigNtNtCse3fRS504XmB_5serde2de11Deserialize11deserializeNtB6_9___VisitorNtB11_7Visitor9visit_mapQNtNtCs4jMWN2zKWPr_10serde_yaml2de9MapAccessEBd_
FN:4,_RNvXNvXNvNtCs6wcrk8Qgr6W_6nanocl6configs_1__NtB7_9CliConfigNtNtCse3fRS504XmB_5serde2de11Deserialize11deserializeNtB2_14___FieldVisitorNtBX_7Visitor9expecting
FN:4,_RINvXNvNtCs6wcrk8Qgr6W_6nanocl6configs_1__NtB5_9CliConfigNtNtCse3fRS504XmB_5serde2de11Deserialize11deserializeNtNtCs4jMWN2zKWPr_10serde_yaml2de12DeserializerEB7_
FN:4,_RINvXs_NvXNvNtCs6wcrk8Qgr6W_6nanocl6configs_1__NtBa_9CliConfigNtNtCse3fRS504XmB_5serde2de11Deserialize11deserializeNtB5_7___FieldBY_11deserializeQNtNtCs4jMWN2zKWPr_10serde_yaml2de22DeserializerFromEventsEBc_
FN:4,_RINvXNvXNvNtCs6wcrk8Qgr6W_6nanocl6configs_1__NtB8_9CliConfigNtNtCse3fRS504XmB_5serde2de11Deserialize11deserializeNtB3_14___FieldVisitorNtBY_7Visitor9visit_strNtNtCs4jMWN2zKWPr_10serde_yaml5error5ErrorEBa_
FNDA:0,_RINvXNvXNvNtCs6wcrk8Qgr6W_6nanocl6configs_1__NtB8_9CliConfigNtNtCse3fRS504XmB_5serde2de11Deserialize11deserializeNtB3_14___FieldVisitorNtBY_7Visitor11visit_bytespEBa_
FNDA:0,_RINvXNvNtCs6wcrk8Qgr6W_6nanocl6config1__NtB5_9CliConfigNtNtCse3fRS504XmB_5serde3ser9Serialize9serializepEB7_
FNDA:0,_RINvXs0_NvXNvNtCs6wcrk8Qgr6W_6nanocl6configs_1__NtBb_9CliConfigNtNtCse3fRS504XmB_5serde2de11Deserialize11deserializeNtB6_9___VisitorNtB11_7Visitor9visit_seqpEBd_
FNDA:0,_RNvXNtCs6wcrk8Qgr6W_6nanocl6configNtB2_9CliConfigNtNtCshYNBHIop811_4core5clone5Clone5cloneB4_
FNDA:0,_RNvXs_NtCs6wcrk8Qgr6W_6nanocl6configNtB4_9CliConfigNtNtCshYNBHIop811_4core3fmt5Debug3fmt
FNDA:0,_RINvXNvXNvNtCs6wcrk8Qgr6W_6nanocl6configs_1__NtB8_9CliConfigNtNtCse3fRS504XmB_5serde2de11Deserialize11deserializeNtB3_14___FieldVisitorNtBY_7Visitor9visit_u64pEBa_
FNDA:37,_RNvNtCs6wcrk8Qgr6W_6nanocl6config4read
FNDA:0,_RNvXs0_NtCs6wcrk8Qgr6W_6nanocl6configNtB5_9CliConfigNtNtCshYNBHIop811_4core7default7Default7defaultB7_
FNDA:0,_RNvXs0_NvXNvNtCs6wcrk8Qgr6W_6nanocl6configs_1__NtBa_9CliConfigNtNtCse3fRS504XmB_5serde2de11Deserialize11deserializeNtB5_9___VisitorNtB10_7Visitor9expecting
FNDA:0,_RINvXs0_NvXNvNtCs6wcrk8Qgr6W_6nanocl6configs_1__NtBb_9CliConfigNtNtCse3fRS504XmB_5serde2de11Deserialize11deserializeNtB6_9___VisitorNtB11_7Visitor9visit_mapNtNtCs4jMWN2zKWPr_10serde_yaml2de9MapAccessEBd_
FNDA:0,_RINvXs0_NvXNvNtCs6wcrk8Qgr6W_6nanocl6configs_1__NtBb_9CliConfigNtNtCse3fRS504XmB_5serde2de11Deserialize11deserializeNtB6_9___VisitorNtB11_7Visitor9visit_mapQNtNtCs4jMWN2zKWPr_10serde_yaml2de9MapAccessEBd_
FNDA:0,_RNvXNvXNvNtCs6wcrk8Qgr6W_6nanocl6configs_1__NtB7_9CliConfigNtNtCse3fRS504XmB_5serde2de11Deserialize11deserializeNtB2_14___FieldVisitorNtBX_7Visitor9expecting
FNDA:37,_RINvXNvNtCs6wcrk8Qgr6W_6nanocl6configs_1__NtB5_9CliConfigNtNtCse3fRS504XmB_5serde2de11Deserialize11deserializeNtNtCs4jMWN2zKWPr_10serde_yaml2de12DeserializerEB7_
FNDA:0,_RINvXs_NvXNvNtCs6wcrk8Qgr6W_6nanocl6configs_1__NtBa_9CliConfigNtNtCse3fRS504XmB_5serde2de11Deserialize11deserializeNtB5_7___FieldBY_11deserializeQNtNtCs4jMWN2zKWPr_10serde_yaml2de22DeserializerFromEventsEBc_
FNDA:0,_RINvXNvXNvNtCs6wcrk8Qgr6W_6nanocl6configs_1__NtB8_9CliConfigNtNtCse3fRS504XmB_5serde2de11Deserialize11deserializeNtB3_14___FieldVisitorNtBY_7Visitor9visit_strNtNtCs4jMWN2zKWPr_10serde_yaml5error5ErrorEBa_
FNF:6
FNH:2
DA:4,37
DA:13,37
DA:15,37
DA:16,37
DA:17,0
DA:20,37
DA:22,37
DA:23,37
DA:24,0
DA:27,37
DA:28,37
DA:29,0
DA:31,37
BRF:0
BRH:0
LF:17
LH:10
end_of_record
SF:/home/leone/Documents/next-hat/nanocl/bin/nanocl/src/error.rs
FN:24,_RNvMNtCs6wcrk8Qgr6W_6nanocl5errorNtB2_8CliError4exit
FN:5,_RNvXs0_NtCs6wcrk8Qgr6W_6nanocl5errorNtB5_8CliErrorNtNtCshYNBHIop811_4core5error5Error6source
FN:5,_RNvXs1_NtCs6wcrk8Qgr6W_6nanocl5errorNtB5_8CliErrorNtNtCshYNBHIop811_4core3fmt7Display3fmt
FN:5,_RNvXs4_NtCs6wcrk8Qgr6W_6nanocl5errorNtB5_8CliErrorINtNtCshYNBHIop811_4core7convert4FromNtNtCsc6OMrEs8SX0_14nanocld_client5error18NanocldClientErrorE4from
FN:5,_RNvXs_NtCs6wcrk8Qgr6W_6nanocl5errorNtB4_8CliErrorNtNtCshYNBHIop811_4core3fmt5Debug3fmt
FN:5,_RNvXs6_NtCs6wcrk8Qgr6W_6nanocl5errorNtB5_8CliErrorINtNtCshYNBHIop811_4core7convert4FromNtNtCs6g1kmU4N7Sa_10serde_json5error5ErrorE4from
FN:5,_RNvXs5_NtCs6wcrk8Qgr6W_6nanocl5errorNtB5_8CliErrorINtNtCshYNBHIop811_4core7convert4FromNtNtCs1BwvzQeRzc7_12bollard_next6errors5ErrorE4from
FN:5,_RNvXs3_NtCs6wcrk8Qgr6W_6nanocl5errorNtB5_8CliErrorINtNtCshYNBHIop811_4core7convert4FromNtNtCs4jMWN2zKWPr_10serde_yaml5error5ErrorE4from
FN:5,_RNvXs7_NtCs6wcrk8Qgr6W_6nanocl5errorNtB5_8CliErrorINtNtCshYNBHIop811_4core7convert4FromNtNtCsc6OMrEs8SX0_14nanocld_client5error8ApiErrorE4from
FN:5,_RNvXs2_NtCs6wcrk8Qgr6W_6nanocl5errorNtB5_8CliErrorINtNtCshYNBHIop811_4core7convert4FromNtNtNtCs5i7puJwDQtI_3std2io5error5ErrorE4from
FNDA:0,_RNvMNtCs6wcrk8Qgr6W_6nanocl5errorNtB2_8CliError4exit
FNDA:0,_RNvXs0_NtCs6wcrk8Qgr6W_6nanocl5errorNtB5_8CliErrorNtNtCshYNBHIop811_4core5error5Error6source
FNDA:0,_RNvXs1_NtCs6wcrk8Qgr6W_6nanocl5errorNtB5_8CliErrorNtNtCshYNBHIop811_4core3fmt7Display3fmt
FNDA:0,_RNvXs4_NtCs6wcrk8Qgr6W_6nanocl5errorNtB5_8CliErrorINtNtCshYNBHIop811_4core7convert4FromNtNtCsc6OMrEs8SX0_14nanocld_client5error18NanocldClientErrorE4from
FNDA:0,_RNvXs_NtCs6wcrk8Qgr6W_6nanocl5errorNtB4_8CliErrorNtNtCshYNBHIop811_4core3fmt5Debug3fmt
FNDA:0,_RNvXs6_NtCs6wcrk8Qgr6W_6nanocl5errorNtB5_8CliErrorINtNtCshYNBHIop811_4core7convert4FromNtNtCs6g1kmU4N7Sa_10serde_json5error5ErrorE4from
FNDA:0,_RNvXs5_NtCs6wcrk8Qgr6W_6nanocl5errorNtB5_8CliErrorINtNtCshYNBHIop811_4core7convert4FromNtNtCs1BwvzQeRzc7_12bollard_next6errors5ErrorE4from
FNDA:0,_RNvXs3_NtCs6wcrk8Qgr6W_6nanocl5errorNtB5_8CliErrorINtNtCshYNBHIop811_4core7convert4FromNtNtCs4jMWN2zKWPr_10serde_yaml5error5ErrorE4from
FNDA:0,_RNvXs7_NtCs6wcrk8Qgr6W_6nanocl5errorNtB5_8CliErrorINtNtCshYNBHIop811_4core7convert4FromNtNtCsc6OMrEs8SX0_14nanocld_client5error8ApiErrorE4from
FNDA:0,_RNvXs2_NtCs6wcrk8Qgr6W_6nanocl5errorNtB5_8CliErrorINtNtCshYNBHIop811_4core7convert4FromNtNtNtCs5i7puJwDQtI_3std2io5error5ErrorE4from
FNF:3
FNH:0
DA:5,0
DA:24,0
DA:25,0
DA:26,0
DA:27,0
DA:28,0
DA:29,0
DA:30,0
DA:32,0
DA:34,0
BRF:0
BRH:0
LF:11
LH:0
end_of_record
SF:/home/leone/Documents/next-hat/nanocl/bin/nanocl/src/main.rs
FN:38,_RNvCs6wcrk8Qgr6W_6nanocl4main
FN:38,_RNCNvCs6wcrk8Qgr6W_6nanocl4main0B3_
FN:304,_RNvNtCs6wcrk8Qgr6W_6nanocl5tests6__setup
FN:304,_RNCNvNtCs6wcrk8Qgr6W_6nanocl5tests6__setup0B5_
FN:14,_RNvCs6wcrk8Qgr6W_6nanocl12execute_args
FN:14,_RNCNvCs6wcrk8Qgr6W_6nanocl12execute_args0B3_
FN:1,_RNvCs6wcrk8Qgr6W_6nanocls_4main
FN:168,_RNCNvNtCs6wcrk8Qgr6W_6nanocl5tests8resource0B5_
FN:297,_RNvNtCs6wcrk8Qgr6W_6nanocl5testss_4info
FN:83,_RNCNvNtCs6wcrk8Qgr6W_6nanocl5testss_11cargo_image0B5_
FN:115,_RNvNtCs6wcrk8Qgr6W_6nanocl5testss_5cargo
FN:55,_RNvNtCs6wcrk8Qgr6W_6nanocl5testss_7version
FN:249,_RNCNvNtCs6wcrk8Qgr6W_6nanocl5tests5state0B5_
FN:168,_RNCNvNtCs6wcrk8Qgr6W_6nanocl5testss_8resource0B5_
FN:342,_RNvNtCs6wcrk8Qgr6W_6nanocl5testss_9cargo_run
FN:249,_RNvNtCs6wcrk8Qgr6W_6nanocl5testss_5state
FN:233,_RNvNtCs6wcrk8Qgr6W_6nanocl5testss_10cargo_exec
FN:115,_RNCNvNtCs6wcrk8Qgr6W_6nanocl5tests5cargo0B5_
FN:55,_RNCNvNtCs6wcrk8Qgr6W_6nanocl5testss_7version0B5_
FN:62,_RNCNvNtCs6wcrk8Qgr6W_6nanocl5testss_9namespace0B5_
FN:55,_RNCNvNtCs6wcrk8Qgr6W_6nanocl5tests7version0B5_
FN:83,_RNvNtCs6wcrk8Qgr6W_6nanocl5testss_11cargo_image
FN:83,_RNCNvNtCs6wcrk8Qgr6W_6nanocl5tests11cargo_image0B5_
FN:62,_RNvNtCs6wcrk8Qgr6W_6nanocl5testss_9namespace
FN:233,_RNCNvNtCs6wcrk8Qgr6W_6nanocl5tests10cargo_exec0B5_
FN:233,_RNCNvNtCs6wcrk8Qgr6W_6nanocl5testss_10cargo_exec0B5_
FN:249,_RNCNvNtCs6wcrk8Qgr6W_6nanocl5testss_5state0B5_
FN:342,_RNCNvNtCs6wcrk8Qgr6W_6nanocl5testss_9cargo_run0B5_
FN:297,_RNCNvNtCs6wcrk8Qgr6W_6nanocl5testss_4info0B5_
FN:115,_RNCNvNtCs6wcrk8Qgr6W_6nanocl5testss_5cargo0B5_
FN:342,_RNCNvNtCs6wcrk8Qgr6W_6nanocl5tests9cargo_run0B5_
FN:62,_RNCNvNtCs6wcrk8Qgr6W_6nanocl5tests9namespace0B5_
FN:168,_RNvNtCs6wcrk8Qgr6W_6nanocl5testss_8resource
FN:297,_RNCNvNtCs6wcrk8Qgr6W_6nanocl5tests4info0B5_
FNDA:0,_RNvCs6wcrk8Qgr6W_6nanocl4main
FNDA:0,_RNCNvCs6wcrk8Qgr6W_6nanocl4main0B3_
FNDA:0,_RNvNtCs6wcrk8Qgr6W_6nanocl5tests6__setup
FNDA:0,_RNCNvNtCs6wcrk8Qgr6W_6nanocl5tests6__setup0B5_
FNDA:37,_RNvCs6wcrk8Qgr6W_6nanocl12execute_args
FNDA:37,_RNCNvCs6wcrk8Qgr6W_6nanocl12execute_args0B3_
FNDA:11,_RNvCs6wcrk8Qgr6W_6nanocls_4main
FNDA:1,_RNCNvNtCs6wcrk8Qgr6W_6nanocl5tests8resource0B5_
FNDA:1,_RNvNtCs6wcrk8Qgr6W_6nanocl5testss_4info
FNDA:1,_RNCNvNtCs6wcrk8Qgr6W_6nanocl5testss_11cargo_image0B5_
FNDA:1,_RNvNtCs6wcrk8Qgr6W_6nanocl5testss_5cargo
FNDA:1,_RNvNtCs6wcrk8Qgr6W_6nanocl5testss_7version
FNDA:1,_RNCNvNtCs6wcrk8Qgr6W_6nanocl5tests5state0B5_
FNDA:1,_RNCNvNtCs6wcrk8Qgr6W_6nanocl5testss_8resource0B5_
FNDA:1,_RNvNtCs6wcrk8Qgr6W_6nanocl5testss_9cargo_run
FNDA:1,_RNvNtCs6wcrk8Qgr6W_6nanocl5testss_5state
FNDA:1,_RNvNtCs6wcrk8Qgr6W_6nanocl5testss_10cargo_exec
FNDA:1,_RNCNvNtCs6wcrk8Qgr6W_6nanocl5tests5cargo0B5_
FNDA:1,_RNCNvNtCs6wcrk8Qgr6W_6nanocl5testss_7version0B5_
FNDA:1,_RNCNvNtCs6wcrk8Qgr6W_6nanocl5testss_9namespace0B5_
FNDA:1,_RNCNvNtCs6wcrk8Qgr6W_6nanocl5tests7version0B5_
FNDA:1,_RNvNtCs6wcrk8Qgr6W_6nanocl5testss_11cargo_image
FNDA:1,_RNCNvNtCs6wcrk8Qgr6W_6nanocl5tests11cargo_image0B5_
FNDA:1,_RNvNtCs6wcrk8Qgr6W_6nanocl5testss_9namespace
FNDA:1,_RNCNvNtCs6wcrk8Qgr6W_6nanocl5tests10cargo_exec0B5_
FNDA:1,_RNCNvNtCs6wcrk8Qgr6W_6nanocl5testss_10cargo_exec0B5_
FNDA:1,_RNCNvNtCs6wcrk8Qgr6W_6nanocl5testss_5state0B5_
FNDA:1,_RNCNvNtCs6wcrk8Qgr6W_6nanocl5testss_9cargo_run0B5_
FNDA:1,_RNCNvNtCs6wcrk8Qgr6W_6nanocl5testss_4info0B5_
FNDA:1,_RNCNvNtCs6wcrk8Qgr6W_6nanocl5testss_5cargo0B5_
FNDA:1,_RNCNvNtCs6wcrk8Qgr6W_6nanocl5tests9cargo_run0B5_
FNDA:1,_RNCNvNtCs6wcrk8Qgr6W_6nanocl5tests9namespace0B5_
FNDA:1,_RNvNtCs6wcrk8Qgr6W_6nanocl5testss_8resource
FNDA:1,_RNCNvNtCs6wcrk8Qgr6W_6nanocl5tests4info0B5_
FNF:15
FNH:12
DA:1,11
DA:14,37
DA:15,37
DA:17,37
DA:18,0
DA:19,0
DA:20,0
DA:22,37
DA:24,37
DA:25,24
DA:26,28
DA:27,790
DA:28,0
DA:29,86
DA:30,5
DA:31,6
DA:32,0
DA:33,0
DA:34,0
DA:36,37
DA:38,0
DA:55,1
DA:62,1
DA:83,1
DA:115,1
DA:168,1
DA:233,1
DA:249,1
DA:297,1
DA:304,0
DA:305,0
DA:306,0
DA:307,0
DA:308,0
DA:309,0
DA:310,0
DA:311,0
DA:312,0
DA:313,0
DA:314,0
DA:315,0
DA:316,0
DA:317,0
DA:318,0
DA:319,0
DA:320,0
DA:321,0
DA:322,0
DA:323,0
DA:326,0
DA:328,0
DA:329,0
DA:330,0
DA:331,0
DA:332,0
DA:334,0
DA:335,0
DA:336,0
DA:337,0
DA:338,0
DA:339,0
DA:340,0
DA:342,1
BRF:0
BRH:0
LF:65
LH:23
end_of_record
SF:/home/leone/Documents/next-hat/nanocl/bin/nanocl/src/models/cargo.rs
FN:115,_RNvXsx_NtNtCs6wcrk8Qgr6W_6nanocl6models5cargoNtB5_16CargoInspectOptsNtNtCs2aLnEu25Pl6_4clap6derive14FromArgMatches23update_from_arg_matches
FN:115,_RNvXsw_NtNtCs6wcrk8Qgr6W_6nanocl6models5cargoNtB5_16CargoInspectOptsNtNtCs2aLnEu25Pl6_4clap6derive14CommandFactory7command
FN:16,_RNvXs6_NtNtCs6wcrk8Qgr6W_6nanocl6models5cargoNtB5_15CargoRemoveOptsNtNtCs2aLnEu25Pl6_4clap6derive14FromArgMatches27update_from_arg_matches_mut
FN:122,_RNvXsz_NtNtCs6wcrk8Qgr6W_6nanocl6models5cargoNtB5_14CargoPatchOptsNtNtCshYNBHIop811_4core3fmt5Debug3fmt
FN:150,_RNvXsJ_NtNtCs6wcrk8Qgr6W_6nanocl6models5cargoNtB5_13CargoExecOptsNtNtCs2aLnEu25Pl6_4clap6derive14FromArgMatches16from_arg_matches
FN:170,_RNvXsL_NtNtCs6wcrk8Qgr6W_6nanocl6models5cargoNtB5_16CargoHistoryOptsNtNtCshYNBHIop811_4core3fmt5Debug3fmt
FN:176,_RNvXsU_NtNtCs6wcrk8Qgr6W_6nanocl6models5cargoNtB5_14CargoResetOptsNtNtCs2aLnEu25Pl6_4clap6derive4Args23augment_args_for_update
FN:101,_RNvXso_NtNtCs6wcrk8Qgr6W_6nanocl6models5cargoNtB5_14CargoStartOptsNtNtCs2aLnEu25Pl6_4clap6derive4Args23augment_args_for_update
FN:108,_RNvXss_NtNtCs6wcrk8Qgr6W_6nanocl6models5cargoNtB5_13CargoStopOptsNtNtCs2aLnEu25Pl6_4clap6derive14FromArgMatches16from_arg_matches
FN:63,_RNCNvXsi_NtNtCs6wcrk8Qgr6W_6nanocl6models5cargoNtB7_12CargoRunOptsNtNtCs2aLnEu25Pl6_4clap6derive14FromArgMatches27update_from_arg_matches_mut0Bb_
FN:115,_RNvXsw_NtNtCs6wcrk8Qgr6W_6nanocl6models5cargoNtB5_16CargoInspectOptsNtNtCs2aLnEu25Pl6_4clap6derive14CommandFactory18command_for_update
FN:170,_RNvXsO_NtNtCs6wcrk8Qgr6W_6nanocl6models5cargoNtB5_16CargoHistoryOptsNtNtCs2aLnEu25Pl6_4clap6derive14FromArgMatches23update_from_arg_matches
FN:16,_RNvXs5_NtNtCs6wcrk8Qgr6W_6nanocl6models5cargoNtB5_15CargoRemoveOptsNtNtCs2aLnEu25Pl6_4clap6derive14CommandFactory18command_for_update
FN:224,_RNvXs17_NtNtCs6wcrk8Qgr6W_6nanocl6models5cargoNtB6_9CargoArgsNtNtCs2aLnEu25Pl6_4clap6derive4Args23augment_args_for_update
FN:20,_RNCNvXs6_NtNtCs6wcrk8Qgr6W_6nanocl6models5cargoNtB7_15CargoRemoveOptsNtNtCs2aLnEu25Pl6_4clap6derive14FromArgMatches27update_from_arg_matches_mut0Bb_
FN:108,_RNvXsp_NtNtCs6wcrk8Qgr6W_6nanocl6models5cargoNtB5_13CargoStopOptsNtNtCshYNBHIop811_4core3fmt5Debug3fmt
FN:31,_RNCNvXsc_NtNtCs6wcrk8Qgr6W_6nanocl6models5cargoNtB7_15CargoCreateOptsNtNtCs2aLnEu25Pl6_4clap6derive14FromArgMatches27update_from_arg_matches_muts_0Bb_
FN:184,_RNvXsY_NtNtCs6wcrk8Qgr6W_6nanocl6models5cargoNtB5_13CargoLogsOptsNtNtCs2aLnEu25Pl6_4clap6derive14FromArgMatches16from_arg_matches
FN:60,_RNvXse_NtNtCs6wcrk8Qgr6W_6nanocl6models5cargoNtB5_12CargoRunOptsNtNtCshYNBHIop811_4core3fmt5Debug3fmt
FN:16,_RNvXs7_NtNtCs6wcrk8Qgr6W_6nanocl6models5cargoNtB5_15CargoRemoveOptsNtNtCs2aLnEu25Pl6_4clap6derive4Args23augment_args_for_update
FN:104,_RNCNvXsn_NtNtCs6wcrk8Qgr6W_6nanocl6models5cargoNtB7_14CargoStartOptsNtNtCs2aLnEu25Pl6_4clap6derive14FromArgMatches27update_from_arg_matches_mut0Bb_
FN:122,_RNvXsD_NtNtCs6wcrk8Qgr6W_6nanocl6models5cargoNtB5_14CargoPatchOptsNtNtCs2aLnEu25Pl6_4clap6derive14FromArgMatches16from_arg_matches
FN:179,_RNCNvXsT_NtNtCs6wcrk8Qgr6W_6nanocl6models5cargoNtB7_14CargoResetOptsNtNtCs2aLnEu25Pl6_4clap6derive14FromArgMatches27update_from_arg_matches_mut0Bb_
FN:170,_RNvXsO_NtNtCs6wcrk8Qgr6W_6nanocl6models5cargoNtB5_16CargoHistoryOptsNtNtCs2aLnEu25Pl6_4clap6derive14FromArgMatches27update_from_arg_matches_mut
FN:34,_RNCNvXsc_NtNtCs6wcrk8Qgr6W_6nanocl6models5cargoNtB7_15CargoCreateOptsNtNtCs2aLnEu25Pl6_4clap6derive14FromArgMatches27update_from_arg_matches_muts0_0Bb_
FN:224,_RNvXs16_NtNtCs6wcrk8Qgr6W_6nanocl6models5cargoNtB6_9CargoArgsNtNtCs2aLnEu25Pl6_4clap6derive14FromArgMatches27update_from_arg_matches_mut
FN:224,_RNvXs15_NtNtCs6wcrk8Qgr6W_6nanocl6models5cargoNtB6_9CargoArgsNtNtCs2aLnEu25Pl6_4clap6derive14CommandFactory7command
FN:101,_RNvXsn_NtNtCs6wcrk8Qgr6W_6nanocl6models5cargoNtB5_14CargoStartOptsNtNtCs2aLnEu25Pl6_4clap6derive14FromArgMatches27update_from_arg_matches_mut
FN:115,_RNvXsy_NtNtCs6wcrk8Qgr6W_6nanocl6models5cargoNtB5_16CargoInspectOptsNtNtCs2aLnEu25Pl6_4clap6derive4Args8group_id
FN:150,_RNvXsJ_NtNtCs6wcrk8Qgr6W_6nanocl6models5cargoNtB5_13CargoExecOptsNtNtCs2aLnEu25Pl6_4clap6derive14FromArgMatches23update_from_arg_matches
FN:16,_RNvXs7_NtNtCs6wcrk8Qgr6W_6nanocl6models5cargoNtB5_15CargoRemoveOptsNtNtCs2aLnEu25Pl6_4clap6derive4Args8group_id
FN:65,_RNCNvXsi_NtNtCs6wcrk8Qgr6W_6nanocl6models5cargoNtB7_12CargoRunOptsNtNtCs2aLnEu25Pl6_4clap6derive14FromArgMatches27update_from_arg_matches_muts_0Bb_
FN:181,_RNCNvXsT_NtNtCs6wcrk8Qgr6W_6nanocl6models5cargoNtB7_14CargoResetOptsNtNtCs2aLnEu25Pl6_4clap6derive14FromArgMatches27update_from_arg_matches_muts_0Bb_
FN:224,_RNvXs17_NtNtCs6wcrk8Qgr6W_6nanocl6models5cargoNtB6_9CargoArgsNtNtCs2aLnEu25Pl6_4clap6derive4Args8group_id
FN:60,_RNvXsi_NtNtCs6wcrk8Qgr6W_6nanocl6models5cargoNtB5_12CargoRunOptsNtNtCs2aLnEu25Pl6_4clap6derive14FromArgMatches23update_from_arg_matches
FN:60,_RNvXsi_NtNtCs6wcrk8Qgr6W_6nanocl6models5cargoNtB5_12CargoRunOptsNtNtCs2aLnEu25Pl6_4clap6derive14FromArgMatches16from_arg_matches
FN:176,_RNvXsQ_NtNtCs6wcrk8Qgr6W_6nanocl6models5cargoNtB5_14CargoResetOptsNtNtCshYNBHIop811_4core3fmt5Debug3fmt
FN:173,_RNCNvXsO_NtNtCs6wcrk8Qgr6W_6nanocl6models5cargoNtB7_16CargoHistoryOptsNtNtCs2aLnEu25Pl6_4clap6derive14FromArgMatches27update_from_arg_matches_mut0Bb_
FN:26,_RNvXsc_NtNtCs6wcrk8Qgr6W_6nanocl6models5cargoNtB5_15CargoCreateOptsNtNtCs2aLnEu25Pl6_4clap6derive14FromArgMatches27update_from_arg_matches_mut
FN:68,_RNCNvXsi_NtNtCs6wcrk8Qgr6W_6nanocl6models5cargoNtB7_12CargoRunOptsNtNtCs2aLnEu25Pl6_4clap6derive14FromArgMatches27update_from_arg_matches_muts0_0Bb_
FN:124,_RNCNvXsD_NtNtCs6wcrk8Qgr6W_6nanocl6models5cargoNtB7_14CargoPatchOptsNtNtCs2aLnEu25Pl6_4clap6derive14FromArgMatches27update_from_arg_matches_mut0Bb_
FN:26,_RNvXs8_NtNtCs6wcrk8Qgr6W_6nanocl6models5cargoNtB5_15CargoCreateOptsNtNtCshYNBHIop811_4core3fmt5Debug3fmt
FN:108,_RNvXss_NtNtCs6wcrk8Qgr6W_6nanocl6models5cargoNtB5_13CargoStopOptsNtNtCs2aLnEu25Pl6_4clap6derive14FromArgMatches27update_from_arg_matches_mut
FN:122,_RNvXsD_NtNtCs6wcrk8Qgr6W_6nanocl6models5cargoNtB5_14CargoPatchOptsNtNtCs2aLnEu25Pl6_4clap6derive14FromArgMatches23update_from_arg_matches
FN:176,_RNvXsT_NtNtCs6wcrk8Qgr6W_6nanocl6models5cargoNtB5_14CargoResetOptsNtNtCs2aLnEu25Pl6_4clap6derive14FromArgMatches16from_arg_matches
FN:111,_RNCNvXss_NtNtCs6wcrk8Qgr6W_6nanocl6models5cargoNtB7_13CargoStopOptsNtNtCs2aLnEu25Pl6_4clap6derive14FromArgMatches27update_from_arg_matches_mut0Bb_
FN:184,_RNvXsY_NtNtCs6wcrk8Qgr6W_6nanocl6models5cargoNtB5_13CargoLogsOptsNtNtCs2aLnEu25Pl6_4clap6derive14FromArgMatches27update_from_arg_matches_mut
FN:130,_RNCNvXsD_NtNtCs6wcrk8Qgr6W_6nanocl6models5cargoNtB7_14CargoPatchOptsNtNtCs2aLnEu25Pl6_4clap6derive14FromArgMatches27update_from_arg_matches_muts_0Bb_
FN:150,_RNvXsJ_NtNtCs6wcrk8Qgr6W_6nanocl6models5cargoNtB5_13CargoExecOptsNtNtCs2aLnEu25Pl6_4clap6derive14FromArgMatches27update_from_arg_matches_mut
FN:26,_RNvXsc_NtNtCs6wcrk8Qgr6W_6nanocl6models5cargoNtB5_15CargoCreateOptsNtNtCs2aLnEu25Pl6_4clap6derive14FromArgMatches23update_from_arg_matches
FN:101,_RNvXsk_NtNtCs6wcrk8Qgr6W_6nanocl6models5cargoNtB5_14CargoStartOptsNtNtCshYNBHIop811_4core3fmt5Debug3fmt
FN:176,_RNvXsS_NtNtCs6wcrk8Qgr6W_6nanocl6models5cargoNtB5_14CargoResetOptsNtNtCs2aLnEu25Pl6_4clap6derive14CommandFactory18command_for_update
FN:16,_RNvXs5_NtNtCs6wcrk8Qgr6W_6nanocl6models5cargoNtB5_15CargoRemoveOptsNtNtCs2aLnEu25Pl6_4clap6derive14CommandFactory7command
FN:115,_RNvXsx_NtNtCs6wcrk8Qgr6W_6nanocl6models5cargoNtB5_16CargoInspectOptsNtNtCs2aLnEu25Pl6_4clap6derive14FromArgMatches16from_arg_matches
FN:184,_RNvXsX_NtNtCs6wcrk8Qgr6W_6nanocl6models5cargoNtB5_13CargoLogsOptsNtNtCs2aLnEu25Pl6_4clap6derive14CommandFactory7command
FN:115,_RNvXsy_NtNtCs6wcrk8Qgr6W_6nanocl6models5cargoNtB5_16CargoInspectOptsNtNtCs2aLnEu25Pl6_4clap6derive4Args23augment_args_for_update
FN:184,_RNvXsZ_NtNtCs6wcrk8Qgr6W_6nanocl6models5cargoNtB5_13CargoLogsOptsNtNtCs2aLnEu25Pl6_4clap6derive4Args23augment_args_for_update
FN:29,_RNCNvXsc_NtNtCs6wcrk8Qgr6W_6nanocl6models5cargoNtB7_15CargoCreateOptsNtNtCs2aLnEu25Pl6_4clap6derive14FromArgMatches27update_from_arg_matches_mut0Bb_
FN:16,_RNvXs3_NtNtCs6wcrk8Qgr6W_6nanocl6models5cargoNtB5_15CargoRemoveOptsNtNtCshYNBHIop811_4core3fmt5Debug3fmt
FN:122,_RNvXsD_NtNtCs6wcrk8Qgr6W_6nanocl6models5cargoNtB5_14CargoPatchOptsNtNtCs2aLnEu25Pl6_4clap6derive14FromArgMatches27update_from_arg_matches_mut
FN:170,_RNvXsO_NtNtCs6wcrk8Qgr6W_6nanocl6models5cargoNtB5_16CargoHistoryOptsNtNtCs2aLnEu25Pl6_4clap6derive14FromArgMatches16from_arg_matches
FN:176,_RNvXsT_NtNtCs6wcrk8Qgr6W_6nanocl6models5cargoNtB5_14CargoResetOptsNtNtCs2aLnEu25Pl6_4clap6derive14FromArgMatches23update_from_arg_matches
FN:108,_RNvXst_NtNtCs6wcrk8Qgr6W_6nanocl6models5cargoNtB5_13CargoStopOptsNtNtCs2aLnEu25Pl6_4clap6derive4Args23augment_args_for_update
FN:190,_RNvXs11_NtNtCs6wcrk8Qgr6W_6nanocl6models5cargoNtB6_13CargoCommandsNtNtCs2aLnEu25Pl6_4clap6derive14FromArgMatches27update_from_arg_matches_mut
FN:26,_RNvXsc_NtNtCs6wcrk8Qgr6W_6nanocl6models5cargoNtB5_15CargoCreateOptsNtNtCs2aLnEu25Pl6_4clap6derive14FromArgMatches16from_arg_matches
FN:101,_RNvXsn_NtNtCs6wcrk8Qgr6W_6nanocl6models5cargoNtB5_14CargoStartOptsNtNtCs2aLnEu25Pl6_4clap6derive14FromArgMatches16from_arg_matches
FN:190,_RNvXs12_NtNtCs6wcrk8Qgr6W_6nanocl6models5cargoNtB6_13CargoCommandsNtNtCs2aLnEu25Pl6_4clap6derive10Subcommand30augment_subcommands_for_update
FN:108,_RNvXsr_NtNtCs6wcrk8Qgr6W_6nanocl6models5cargoNtB5_13CargoStopOptsNtNtCs2aLnEu25Pl6_4clap6derive14CommandFactory18command_for_update
FN:60,_RNvXsi_NtNtCs6wcrk8Qgr6W_6nanocl6models5cargoNtB5_12CargoRunOptsNtNtCs2aLnEu25Pl6_4clap6derive14FromArgMatches27update_from_arg_matches_mut
FN:101,_RNvXso_NtNtCs6wcrk8Qgr6W_6nanocl6models5cargoNtB5_14CargoStartOptsNtNtCs2aLnEu25Pl6_4clap6derive4Args8group_id
FN:122,_RNvXsC_NtNtCs6wcrk8Qgr6W_6nanocl6models5cargoNtB5_14CargoPatchOptsNtNtCs2aLnEu25Pl6_4clap6derive14CommandFactory18command_for_update
FN:150,_RNvXsK_NtNtCs6wcrk8Qgr6W_6nanocl6models5cargoNtB5_13CargoExecOptsNtNtCs2aLnEu25Pl6_4clap6derive4Args8group_id
FN:60,_RNvXsh_NtNtCs6wcrk8Qgr6W_6nanocl6models5cargoNtB5_12CargoRunOptsNtNtCs2aLnEu25Pl6_4clap6derive14CommandFactory18command_for_update
FN:224,_RNvXs16_NtNtCs6wcrk8Qgr6W_6nanocl6models5cargoNtB6_9CargoArgsNtNtCs2aLnEu25Pl6_4clap6derive14FromArgMatches16from_arg_matches
FN:108,_RNvXst_NtNtCs6wcrk8Qgr6W_6nanocl6models5cargoNtB5_13CargoStopOptsNtNtCs2aLnEu25Pl6_4clap6derive4Args8group_id
FN:150,_RNvXsI_NtNtCs6wcrk8Qgr6W_6nanocl6models5cargoNtB5_13CargoExecOptsNtNtCs2aLnEu25Pl6_4clap6derive14CommandFactory7command
FN:115,_RNvXsx_NtNtCs6wcrk8Qgr6W_6nanocl6models5cargoNtB5_16CargoInspectOptsNtNtCs2aLnEu25Pl6_4clap6derive14FromArgMatches27update_from_arg_matches_mut
FN:71,_RNCNvXsi_NtNtCs6wcrk8Qgr6W_6nanocl6models5cargoNtB7_12CargoRunOptsNtNtCs2aLnEu25Pl6_4clap6derive14FromArgMatches27update_from_arg_matches_muts1_0Bb_
FN:156,_RNCNvXsJ_NtNtCs6wcrk8Qgr6W_6nanocl6models5cargoNtB7_13CargoExecOptsNtNtCs2aLnEu25Pl6_4clap6derive14FromArgMatches27update_from_arg_matches_muts_0Bb_
FN:224,_RNvXs16_NtNtCs6wcrk8Qgr6W_6nanocl6models5cargoNtB6_9CargoArgsNtNtCs2aLnEu25Pl6_4clap6derive14FromArgMatches23update_from_arg_matches
FN:26,_RNvXsd_NtNtCs6wcrk8Qgr6W_6nanocl6models5cargoNtB5_15CargoCreateOptsNtNtCs2aLnEu25Pl6_4clap6derive4Args23augment_args_for_update
FN:190,_RNvXs12_NtNtCs6wcrk8Qgr6W_6nanocl6models5cargoNtB6_13CargoCommandsNtNtCs2aLnEu25Pl6_4clap6derive10Subcommand14has_subcommand
FN:73,_RNCNvXsi_NtNtCs6wcrk8Qgr6W_6nanocl6models5cargoNtB7_12CargoRunOptsNtNtCs2aLnEu25Pl6_4clap6derive14FromArgMatches27update_from_arg_matches_muts2_0Bb_
FN:170,_RNvXsN_NtNtCs6wcrk8Qgr6W_6nanocl6models5cargoNtB5_16CargoHistoryOptsNtNtCs2aLnEu25Pl6_4clap6derive14CommandFactory7command
FN:122,_RNvXsE_NtNtCs6wcrk8Qgr6W_6nanocl6models5cargoNtB5_14CargoPatchOptsNtNtCs2aLnEu25Pl6_4clap6derive4Args23augment_args_for_update
FN:184,_RNvXsZ_NtNtCs6wcrk8Qgr6W_6nanocl6models5cargoNtB5_13CargoLogsOptsNtNtCs2aLnEu25Pl6_4clap6derive4Args8group_id
FN:26,_RNvXsb_NtNtCs6wcrk8Qgr6W_6nanocl6models5cargoNtB5_15CargoCreateOptsNtNtCs2aLnEu25Pl6_4clap6derive14CommandFactory7command
FN:60,_RNvXsj_NtNtCs6wcrk8Qgr6W_6nanocl6models5cargoNtB5_12CargoRunOptsNtNtCs2aLnEu25Pl6_4clap6derive4Args23augment_args_for_update
FN:176,_RNvXsT_NtNtCs6wcrk8Qgr6W_6nanocl6models5cargoNtB5_14CargoResetOptsNtNtCs2aLnEu25Pl6_4clap6derive14FromArgMatches27update_from_arg_matches_mut
FN:101,_RNvXsm_NtNtCs6wcrk8Qgr6W_6nanocl6models5cargoNtB5_14CargoStartOptsNtNtCs2aLnEu25Pl6_4clap6derive14CommandFactory7command
FN:75,_RNCNvXsi_NtNtCs6wcrk8Qgr6W_6nanocl6models5cargoNtB7_12CargoRunOptsNtNtCs2aLnEu25Pl6_4clap6derive14FromArgMatches27update_from_arg_matches_muts3_0Bb_
FN:190,_RNvXs10_NtNtCs6wcrk8Qgr6W_6nanocl6models5cargoNtB6_13CargoCommandsNtNtCshYNBHIop811_4core3fmt5Debug3fmt
FN:170,_RNvXsP_NtNtCs6wcrk8Qgr6W_6nanocl6models5cargoNtB5_16CargoHistoryOptsNtNtCs2aLnEu25Pl6_4clap6derive4Args23augment_args_for_update
FN:108,_RNvXss_NtNtCs6wcrk8Qgr6W_6nanocl6models5cargoNtB5_13CargoStopOptsNtNtCs2aLnEu25Pl6_4clap6derive14FromArgMatches23update_from_arg_matches
FN:150,_RNvXsI_NtNtCs6wcrk8Qgr6W_6nanocl6models5cargoNtB5_13CargoExecOptsNtNtCs2aLnEu25Pl6_4clap6derive14CommandFactory18command_for_update
FN:16,_RNvXs6_NtNtCs6wcrk8Qgr6W_6nanocl6models5cargoNtB5_15CargoRemoveOptsNtNtCs2aLnEu25Pl6_4clap6derive14FromArgMatches16from_arg_matches
FN:101,_RNvXsn_NtNtCs6wcrk8Qgr6W_6nanocl6models5cargoNtB5_14CargoStartOptsNtNtCs2aLnEu25Pl6_4clap6derive14FromArgMatches23update_from_arg_matches
FN:108,_RNvXsr_NtNtCs6wcrk8Qgr6W_6nanocl6models5cargoNtB5_13CargoStopOptsNtNtCs2aLnEu25Pl6_4clap6derive14CommandFactory7command
FN:184,_RNvXsV_NtNtCs6wcrk8Qgr6W_6nanocl6models5cargoNtB5_13CargoLogsOptsNtNtCshYNBHIop811_4core3fmt5Debug3fmt
FN:115,_RNvXsu_NtNtCs6wcrk8Qgr6W_6nanocl6models5cargoNtB5_16CargoInspectOptsNtNtCshYNBHIop811_4core3fmt5Debug3fmt
FN:150,_RNvXsK_NtNtCs6wcrk8Qgr6W_6nanocl6models5cargoNtB5_13CargoExecOptsNtNtCs2aLnEu25Pl6_4clap6derive4Args23augment_args_for_update
FN:184,_RNvXsY_NtNtCs6wcrk8Qgr6W_6nanocl6models5cargoNtB5_13CargoLogsOptsNtNtCs2aLnEu25Pl6_4clap6derive14FromArgMatches23update_from_arg_matches
FN:170,_RNvXsN_NtNtCs6wcrk8Qgr6W_6nanocl6models5cargoNtB5_16CargoHistoryOptsNtNtCs2aLnEu25Pl6_4clap6derive14CommandFactory18command_for_update
FN:26,_RNvXsb_NtNtCs6wcrk8Qgr6W_6nanocl6models5cargoNtB5_15CargoCreateOptsNtNtCs2aLnEu25Pl6_4clap6derive14CommandFactory18command_for_update
FN:60,_RNvXsj_NtNtCs6wcrk8Qgr6W_6nanocl6models5cargoNtB5_12CargoRunOptsNtNtCs2aLnEu25Pl6_4clap6derive4Args8group_id
FN:37,_RNCNvXsc_NtNtCs6wcrk8Qgr6W_6nanocl6models5cargoNtB7_15CargoCreateOptsNtNtCs2aLnEu25Pl6_4clap6derive14FromArgMatches27update_from_arg_matches_muts1_0Bb_
FN:101,_RNvXsm_NtNtCs6wcrk8Qgr6W_6nanocl6models5cargoNtB5_14CargoStartOptsNtNtCs2aLnEu25Pl6_4clap6derive14CommandFactory18command_for_update
FN:60,_RNvXsh_NtNtCs6wcrk8Qgr6W_6nanocl6models5cargoNtB5_12CargoRunOptsNtNtCs2aLnEu25Pl6_4clap6derive14CommandFactory7command
FN:122,_RNvXsC_NtNtCs6wcrk8Qgr6W_6nanocl6models5cargoNtB5_14CargoPatchOptsNtNtCs2aLnEu25Pl6_4clap6derive14CommandFactory7command
FN:170,_RNvXsP_NtNtCs6wcrk8Qgr6W_6nanocl6models5cargoNtB5_16CargoHistoryOptsNtNtCs2aLnEu25Pl6_4clap6derive4Args8group_id
FN:22,_RNCNvXs6_NtNtCs6wcrk8Qgr6W_6nanocl6models5cargoNtB7_15CargoRemoveOptsNtNtCs2aLnEu25Pl6_4clap6derive14FromArgMatches27update_from_arg_matches_muts_0Bb_
FN:190,_RNvXs11_NtNtCs6wcrk8Qgr6W_6nanocl6models5cargoNtB6_13CargoCommandsNtNtCs2aLnEu25Pl6_4clap6derive14FromArgMatches16from_arg_matches
FN:187,_RNCNvXsY_NtNtCs6wcrk8Qgr6W_6nanocl6models5cargoNtB7_13CargoLogsOptsNtNtCs2aLnEu25Pl6_4clap6derive14FromArgMatches27update_from_arg_matches_mut0Bb_
FN:176,_RNvXsU_NtNtCs6wcrk8Qgr6W_6nanocl6models5cargoNtB5_14CargoResetOptsNtNtCs2aLnEu25Pl6_4clap6derive4Args8group_id
FN:26,_RNvXsd_NtNtCs6wcrk8Qgr6W_6nanocl6models5cargoNtB5_15CargoCreateOptsNtNtCs2aLnEu25Pl6_4clap6derive4Args8group_id
FN:153,_RNCNvXsJ_NtNtCs6wcrk8Qgr6W_6nanocl6models5cargoNtB7_13CargoExecOptsNtNtCs2aLnEu25Pl6_4clap6derive14FromArgMatches27update_from_arg_matches_mut0Bb_
FN:184,_RNvXsX_NtNtCs6wcrk8Qgr6W_6nanocl6models5cargoNtB5_13CargoLogsOptsNtNtCs2aLnEu25Pl6_4clap6derive14CommandFactory18command_for_update
FN:190,_RNvXs11_NtNtCs6wcrk8Qgr6W_6nanocl6models5cargoNtB6_13CargoCommandsNtNtCs2aLnEu25Pl6_4clap6derive14FromArgMatches23update_from_arg_matches
FN:122,_RNvXsE_NtNtCs6wcrk8Qgr6W_6nanocl6models5cargoNtB5_14CargoPatchOptsNtNtCs2aLnEu25Pl6_4clap6derive4Args8group_id
FN:176,_RNvXsS_NtNtCs6wcrk8Qgr6W_6nanocl6models5cargoNtB5_14CargoResetOptsNtNtCs2aLnEu25Pl6_4clap6derive14CommandFactory7command
FN:150,_RNvXsF_NtNtCs6wcrk8Qgr6W_6nanocl6models5cargoNtB5_13CargoExecOptsNtNtCshYNBHIop811_4core3fmt5Debug3fmt
FN:118,_RNCNvXsx_NtNtCs6wcrk8Qgr6W_6nanocl6models5cargoNtB7_16CargoInspectOptsNtNtCs2aLnEu25Pl6_4clap6derive14FromArgMatches27update_from_arg_matches_mut0Bb_
FN:224,_RNvXs15_NtNtCs6wcrk8Qgr6W_6nanocl6models5cargoNtB6_9CargoArgsNtNtCs2aLnEu25Pl6_4clap6derive14CommandFactory18command_for_update
FN:16,_RNvXs6_NtNtCs6wcrk8Qgr6W_6nanocl6models5cargoNtB5_15CargoRemoveOptsNtNtCs2aLnEu25Pl6_4clap6derive14FromArgMatches23update_from_arg_matches
FN:224,_RNvXs13_NtNtCs6wcrk8Qgr6W_6nanocl6models5cargoNtB6_9CargoArgsNtNtCshYNBHIop811_4core3fmt5Debug3fmt
FN:132,_RNCNvXsD_NtNtCs6wcrk8Qgr6W_6nanocl6models5cargoNtB7_14CargoPatchOptsNtNtCs2aLnEu25Pl6_4clap6derive14FromArgMatches27update_from_arg_matches_muts0_0Bb_
FN:160,_RNvXs1_NtNtCs6wcrk8Qgr6W_6nanocl6models5cargoINtNtCs1BwvzQeRzc7_12bollard_next4exec17CreateExecOptionsNtNtCs7OvAONlnxZo_5alloc6string6StringEINtNtCshYNBHIop811_4core7convert4FromNtB5_13CargoExecOptsE4from
FN:181,_RNCNvXsT_NtNtCs6wcrk8Qgr6W_6nanocl6models5cargoNtB7_14CargoResetOptsNtNtCs2aLnEu25Pl6_4clap6derive14FromArgMatches20from_arg_matches_muts_0Bb_
FN:246,_RNvXs2_NtNtCs6wcrk8Qgr6W_6nanocl6models5cargoNtB5_8CargoRowINtNtCshYNBHIop811_4core7convert4FromNtNtCsfutTBaew1Qf_12nanocl_stubs5cargo12CargoSummaryE4from
FN:122,_RNvXsA_NtNtCs6wcrk8Qgr6W_6nanocl6models5cargoNtB5_14CargoPatchOptsNtNtCshYNBHIop811_4core5clone5Clone5cloneB9_
FN:108,_RNvXst_NtNtCs6wcrk8Qgr6W_6nanocl6models5cargoNtB5_13CargoStopOptsNtNtCs2aLnEu25Pl6_4clap6derive4Args12augment_args
FN:124,_RNCNvXsD_NtNtCs6wcrk8Qgr6W_6nanocl6models5cargoNtB7_14CargoPatchOptsNtNtCs2aLnEu25Pl6_4clap6derive14FromArgMatches20from_arg_matches_mut0Bb_
FN:184,_RNvXsY_NtNtCs6wcrk8Qgr6W_6nanocl6models5cargoNtB5_13CargoLogsOptsNtNtCs2aLnEu25Pl6_4clap6derive14FromArgMatches20from_arg_matches_mut
FN:101,_RNvXsn_NtNtCs6wcrk8Qgr6W_6nanocl6models5cargoNtB5_14CargoStartOptsNtNtCs2aLnEu25Pl6_4clap6derive14FromArgMatches20from_arg_matches_mut
FN:190,_RNvXs12_NtNtCs6wcrk8Qgr6W_6nanocl6models5cargoNtB6_13CargoCommandsNtNtCs2aLnEu25Pl6_4clap6derive10Subcommand19augment_subcommands
FN:150,_RNvXsJ_NtNtCs6wcrk8Qgr6W_6nanocl6models5cargoNtB5_13CargoExecOptsNtNtCs2aLnEu25Pl6_4clap6derive14FromArgMatches20from_arg_matches_mut
FN:156,_RNCNvXsJ_NtNtCs6wcrk8Qgr6W_6nanocl6models5cargoNtB7_13CargoExecOptsNtNtCs2aLnEu25Pl6_4clap6derive14FromArgMatches20from_arg_matches_muts_0Bb_
FN:122,_RNvXsD_NtNtCs6wcrk8Qgr6W_6nanocl6models5cargoNtB5_14CargoPatchOptsNtNtCs2aLnEu25Pl6_4clap6derive14FromArgMatches20from_arg_matches_mut
FN:75,_RNCNvXsi_NtNtCs6wcrk8Qgr6W_6nanocl6models5cargoNtB7_12CargoRunOptsNtNtCs2aLnEu25Pl6_4clap6derive14FromArgMatches20from_arg_matches_muts3_0Bb_
FN:130,_RNCNvXsD_NtNtCs6wcrk8Qgr6W_6nanocl6models5cargoNtB7_14CargoPatchOptsNtNtCs2aLnEu25Pl6_4clap6derive14FromArgMatches20from_arg_matches_muts_0Bb_
FN:224,_RNvXs16_NtNtCs6wcrk8Qgr6W_6nanocl6models5cargoNtB6_9CargoArgsNtNtCs2aLnEu25Pl6_4clap6derive14FromArgMatches20from_arg_matches_mut
FN:150,_RNvXsK_NtNtCs6wcrk8Qgr6W_6nanocl6models5cargoNtB5_13CargoExecOptsNtNtCs2aLnEu25Pl6_4clap6derive4Args12augment_args
FN:184,_RNvXsZ_NtNtCs6wcrk8Qgr6W_6nanocl6models5cargoNtB5_13CargoLogsOptsNtNtCs2aLnEu25Pl6_4clap6derive4Args12augment_args
FN:20,_RNCNvXs6_NtNtCs6wcrk8Qgr6W_6nanocl6models5cargoNtB7_15CargoRemoveOptsNtNtCs2aLnEu25Pl6_4clap6derive14FromArgMatches20from_arg_matches_mut0Bb_
FN:108,_RNvXss_NtNtCs6wcrk8Qgr6W_6nanocl6models5cargoNtB5_13CargoStopOptsNtNtCs2aLnEu25Pl6_4clap6derive14FromArgMatches20from_arg_matches_mut
FN:153,_RNCNvXsJ_NtNtCs6wcrk8Qgr6W_6nanocl6models5cargoNtB7_13CargoExecOptsNtNtCs2aLnEu25Pl6_4clap6derive14FromArgMatches20from_arg_matches_mut0Bb_
FN:234,_RNvXs18_NtNtCs6wcrk8Qgr6W_6nanocl6models5cargoNtB6_8CargoRowNtNtCsjra9mVSv54w_6tabled6tabled6Tabled6fields
FN:22,_RNCNvXs6_NtNtCs6wcrk8Qgr6W_6nanocl6models5cargoNtB7_15CargoRemoveOptsNtNtCs2aLnEu25Pl6_4clap6derive14FromArgMatches20from_arg_matches_muts_0Bb_
FN:68,_RNCNvXsi_NtNtCs6wcrk8Qgr6W_6nanocl6models5cargoNtB7_12CargoRunOptsNtNtCs2aLnEu25Pl6_4clap6derive14FromArgMatches20from_arg_matches_muts0_0Bb_
FN:173,_RNCNvXsO_NtNtCs6wcrk8Qgr6W_6nanocl6models5cargoNtB7_16CargoHistoryOptsNtNtCs2aLnEu25Pl6_4clap6derive14FromArgMatches20from_arg_matches_mut0Bb_
FN:60,_RNvXsi_NtNtCs6wcrk8Qgr6W_6nanocl6models5cargoNtB5_12CargoRunOptsNtNtCs2aLnEu25Pl6_4clap6derive14FromArgMatches20from_arg_matches_mut
FN:111,_RNCNvXss_NtNtCs6wcrk8Qgr6W_6nanocl6models5cargoNtB7_13CargoStopOptsNtNtCs2aLnEu25Pl6_4clap6derive14FromArgMatches20from_arg_matches_mut0Bb_
FN:176,_RNvXsU_NtNtCs6wcrk8Qgr6W_6nanocl6models5cargoNtB5_14CargoResetOptsNtNtCs2aLnEu25Pl6_4clap6derive4Args12augment_args
FN:31,_RNCNvXsc_NtNtCs6wcrk8Qgr6W_6nanocl6models5cargoNtB7_15CargoCreateOptsNtNtCs2aLnEu25Pl6_4clap6derive14FromArgMatches20from_arg_matches_muts_0Bb_
FN:16,_RNvXs6_NtNtCs6wcrk8Qgr6W_6nanocl6models5cargoNtB5_15CargoRemoveOptsNtNtCs2aLnEu25Pl6_4clap6derive14FromArgMatches20from_arg_matches_mut
FN:176,_RNvXsT_NtNtCs6wcrk8Qgr6W_6nanocl6models5cargoNtB5_14CargoResetOptsNtNtCs2aLnEu25Pl6_4clap6derive14FromArgMatches20from_arg_matches_mut
FN:187,_RNCNvXsY_NtNtCs6wcrk8Qgr6W_6nanocl6models5cargoNtB7_13CargoLogsOptsNtNtCs2aLnEu25Pl6_4clap6derive14FromArgMatches20from_arg_matches_mut0Bb_
FN:132,_RNCNvXsD_NtNtCs6wcrk8Qgr6W_6nanocl6models5cargoNtB7_14CargoPatchOptsNtNtCs2aLnEu25Pl6_4clap6derive14FromArgMatches20from_arg_matches_muts0_0Bb_
FN:34,_RNCNvXsc_NtNtCs6wcrk8Qgr6W_6nanocl6models5cargoNtB7_15CargoCreateOptsNtNtCs2aLnEu25Pl6_4clap6derive14FromArgMatches20from_arg_matches_muts0_0Bb_
FN:60,_RNvXsj_NtNtCs6wcrk8Qgr6W_6nanocl6models5cargoNtB5_12CargoRunOptsNtNtCs2aLnEu25Pl6_4clap6derive4Args12augment_args
FN:29,_RNCNvXsc_NtNtCs6wcrk8Qgr6W_6nanocl6models5cargoNtB7_15CargoCreateOptsNtNtCs2aLnEu25Pl6_4clap6derive14FromArgMatches20from_arg_matches_mut0Bb_
FN:60,_RNvXsf_NtNtCs6wcrk8Qgr6W_6nanocl6models5cargoNtB5_12CargoRunOptsNtNtCshYNBHIop811_4core5clone5Clone5cloneB9_
FN:122,_RNvXsE_NtNtCs6wcrk8Qgr6W_6nanocl6models5cargoNtB5_14CargoPatchOptsNtNtCs2aLnEu25Pl6_4clap6derive4Args12augment_args
FN:63,_RNCNvXsi_NtNtCs6wcrk8Qgr6W_6nanocl6models5cargoNtB7_12CargoRunOptsNtNtCs2aLnEu25Pl6_4clap6derive14FromArgMatches20from_arg_matches_mut0Bb_
FN:170,_RNvXsP_NtNtCs6wcrk8Qgr6W_6nanocl6models5cargoNtB5_16CargoHistoryOptsNtNtCs2aLnEu25Pl6_4clap6derive4Args12augment_args
FN:71,_RNCNvXsi_NtNtCs6wcrk8Qgr6W_6nanocl6models5cargoNtB7_12CargoRunOptsNtNtCs2aLnEu25Pl6_4clap6derive14FromArgMatches20from_arg_matches_muts1_0Bb_
FN:190,_RNvXs11_NtNtCs6wcrk8Qgr6W_6nanocl6models5cargoNtB6_13CargoCommandsNtNtCs2aLnEu25Pl6_4clap6derive14FromArgMatches20from_arg_matches_mut
FN:101,_RNvXso_NtNtCs6wcrk8Qgr6W_6nanocl6models5cargoNtB5_14CargoStartOptsNtNtCs2aLnEu25Pl6_4clap6derive4Args12augment_args
FN:73,_RNCNvXsi_NtNtCs6wcrk8Qgr6W_6nanocl6models5cargoNtB7_12CargoRunOptsNtNtCs2aLnEu25Pl6_4clap6derive14FromArgMatches20from_arg_matches_muts2_0Bb_
FN:170,_RNvXsO_NtNtCs6wcrk8Qgr6W_6nanocl6models5cargoNtB5_16CargoHistoryOptsNtNtCs2aLnEu25Pl6_4clap6derive14FromArgMatches20from_arg_matches_mut
FN:179,_RNCNvXsT_NtNtCs6wcrk8Qgr6W_6nanocl6models5cargoNtB7_14CargoResetOptsNtNtCs2aLnEu25Pl6_4clap6derive14FromArgMatches20from_arg_matches_mut0Bb_
FN:104,_RNCNvXsn_NtNtCs6wcrk8Qgr6W_6nanocl6models5cargoNtB7_14CargoStartOptsNtNtCs2aLnEu25Pl6_4clap6derive14FromArgMatches20from_arg_matches_mut0Bb_
FN:150,_RNvXsG_NtNtCs6wcrk8Qgr6W_6nanocl6models5cargoNtB5_13CargoExecOptsNtNtCshYNBHIop811_4core5clone5Clone5cloneB9_
FN:234,_RNvXs18_NtNtCs6wcrk8Qgr6W_6nanocl6models5cargoNtB6_8CargoRowNtNtCsjra9mVSv54w_6tabled6tabled6Tabled7headers
FN:118,_RNCNvXsx_NtNtCs6wcrk8Qgr6W_6nanocl6models5cargoNtB7_16CargoInspectOptsNtNtCs2aLnEu25Pl6_4clap6derive14FromArgMatches20from_arg_matches_mut0Bb_
FN:115,_RNvXsy_NtNtCs6wcrk8Qgr6W_6nanocl6models5cargoNtB5_16CargoInspectOptsNtNtCs2aLnEu25Pl6_4clap6derive4Args12augment_args
FN:37,_RNCNvXsc_NtNtCs6wcrk8Qgr6W_6nanocl6models5cargoNtB7_15CargoCreateOptsNtNtCs2aLnEu25Pl6_4clap6derive14FromArgMatches20from_arg_matches_muts1_0Bb_
FN:26,_RNvXsd_NtNtCs6wcrk8Qgr6W_6nanocl6models5cargoNtB5_15CargoCreateOptsNtNtCs2aLnEu25Pl6_4clap6derive4Args12augment_args
FN:224,_RNvXs17_NtNtCs6wcrk8Qgr6W_6nanocl6models5cargoNtB6_9CargoArgsNtNtCs2aLnEu25Pl6_4clap6derive4Args12augment_args
FN:115,_RNvXsx_NtNtCs6wcrk8Qgr6W_6nanocl6models5cargoNtB5_16CargoInspectOptsNtNtCs2aLnEu25Pl6_4clap6derive14FromArgMatches20from_arg_matches_mut
FN:65,_RNCNvXsi_NtNtCs6wcrk8Qgr6W_6nanocl6models5cargoNtB7_12CargoRunOptsNtNtCs2aLnEu25Pl6_4clap6derive14FromArgMatches20from_arg_matches_muts_0Bb_
FN:26,_RNvXsc_NtNtCs6wcrk8Qgr6W_6nanocl6models5cargoNtB5_15CargoCreateOptsNtNtCs2aLnEu25Pl6_4clap6derive14FromArgMatches20from_arg_matches_mut
FN:16,_RNvXs7_NtNtCs6wcrk8Qgr6W_6nanocl6models5cargoNtB5_15CargoRemoveOptsNtNtCs2aLnEu25Pl6_4clap6derive4Args12augment_args
FN:26,_RNvXs9_NtNtCs6wcrk8Qgr6W_6nanocl6models5cargoNtB5_15CargoCreateOptsNtNtCshYNBHIop811_4core5clone5Clone5cloneB9_
FN:41,_RNvXNtNtCs6wcrk8Qgr6W_6nanocl6models5cargoNtNtCsfutTBaew1Qf_12nanocl_stubs12cargo_config18CargoConfigPartialINtNtCshYNBHIop811_4core7convert4FromNtB2_15CargoCreateOptsE4from
FN:136,_RNvXs0_NtNtCs6wcrk8Qgr6W_6nanocl6models5cargoNtNtCsfutTBaew1Qf_12nanocl_stubs12cargo_config17CargoConfigUpdateINtNtCshYNBHIop811_4core7convert4FromNtB5_14CargoPatchOptsE4from
FN:79,_RNvXs_NtNtCs6wcrk8Qgr6W_6nanocl6models5cargoNtNtCsfutTBaew1Qf_12nanocl_stubs12cargo_config18CargoConfigPartialINtNtCshYNBHIop811_4core7convert4FromNtB4_12CargoRunOptsE4from
FNDA:0,_RNvXsx_NtNtCs6wcrk8Qgr6W_6nanocl6models5cargoNtB5_16CargoInspectOptsNtNtCs2aLnEu25Pl6_4clap6derive14FromArgMatches23update_from_arg_matches
FNDA:0,_RNvXsw_NtNtCs6wcrk8Qgr6W_6nanocl6models5cargoNtB5_16CargoInspectOptsNtNtCs2aLnEu25Pl6_4clap6derive14CommandFactory7command
FNDA:0,_RNvXs6_NtNtCs6wcrk8Qgr6W_6nanocl6models5cargoNtB5_15CargoRemoveOptsNtNtCs2aLnEu25Pl6_4clap6derive14FromArgMatches27update_from_arg_matches_mut
FNDA:0,_RNvXsz_NtNtCs6wcrk8Qgr6W_6nanocl6models5cargoNtB5_14CargoPatchOptsNtNtCshYNBHIop811_4core3fmt5Debug3fmt
FNDA:0,_RNvXsJ_NtNtCs6wcrk8Qgr6W_6nanocl6models5cargoNtB5_13CargoExecOptsNtNtCs2aLnEu25Pl6_4clap6derive14FromArgMatches16from_arg_matches
FNDA:0,_RNvXsL_NtNtCs6wcrk8Qgr6W_6nanocl6models5cargoNtB5_16CargoHistoryOptsNtNtCshYNBHIop811_4core3fmt5Debug3fmt
FNDA:0,_RNvXsU_NtNtCs6wcrk8Qgr6W_6nanocl6models5cargoNtB5_14CargoResetOptsNtNtCs2aLnEu25Pl6_4clap6derive4Args23augment_args_for_update
FNDA:0,_RNvXso_NtNtCs6wcrk8Qgr6W_6nanocl6models5cargoNtB5_14CargoStartOptsNtNtCs2aLnEu25Pl6_4clap6derive4Args23augment_args_for_update
FNDA:0,_RNvXss_NtNtCs6wcrk8Qgr6W_6nanocl6models5cargoNtB5_13CargoStopOptsNtNtCs2aLnEu25Pl6_4clap6derive14FromArgMatches16from_arg_matches
FNDA:0,_RNCNvXsi_NtNtCs6wcrk8Qgr6W_6nanocl6models5cargoNtB7_12CargoRunOptsNtNtCs2aLnEu25Pl6_4clap6derive14FromArgMatches27update_from_arg_matches_mut0Bb_
FNDA:0,_RNvXsw_NtNtCs6wcrk8Qgr6W_6nanocl6models5cargoNtB5_16CargoInspectOptsNtNtCs2aLnEu25Pl6_4clap6derive14CommandFactory18command_for_update
FNDA:0,_RNvXsO_NtNtCs6wcrk8Qgr6W_6nanocl6models5cargoNtB5_16CargoHistoryOptsNtNtCs2aLnEu25Pl6_4clap6derive14FromArgMatches23update_from_arg_matches
FNDA:0,_RNvXs5_NtNtCs6wcrk8Qgr6W_6nanocl6models5cargoNtB5_15CargoRemoveOptsNtNtCs2aLnEu25Pl6_4clap6derive14CommandFactory18command_for_update
FNDA:0,_RNvXs17_NtNtCs6wcrk8Qgr6W_6nanocl6models5cargoNtB6_9CargoArgsNtNtCs2aLnEu25Pl6_4clap6derive4Args23augment_args_for_update
FNDA:0,_RNCNvXs6_NtNtCs6wcrk8Qgr6W_6nanocl6models5cargoNtB7_15CargoRemoveOptsNtNtCs2aLnEu25Pl6_4clap6derive14FromArgMatches27update_from_arg_matches_mut0Bb_
FNDA:0,_RNvXsp_NtNtCs6wcrk8Qgr6W_6nanocl6models5cargoNtB5_13CargoStopOptsNtNtCshYNBHIop811_4core3fmt5Debug3fmt
FNDA:0,_RNCNvXsc_NtNtCs6wcrk8Qgr6W_6nanocl6models5cargoNtB7_15CargoCreateOptsNtNtCs2aLnEu25Pl6_4clap6derive14FromArgMatches27update_from_arg_matches_muts_0Bb_
FNDA:0,_RNvXsY_NtNtCs6wcrk8Qgr6W_6nanocl6models5cargoNtB5_13CargoLogsOptsNtNtCs2aLnEu25Pl6_4clap6derive14FromArgMatches16from_arg_matches
FNDA:0,_RNvXse_NtNtCs6wcrk8Qgr6W_6nanocl6models5cargoNtB5_12CargoRunOptsNtNtCshYNBHIop811_4core3fmt5Debug3fmt
FNDA:0,_RNvXs7_NtNtCs6wcrk8Qgr6W_6nanocl6models5cargoNtB5_15CargoRemoveOptsNtNtCs2aLnEu25Pl6_4clap6derive4Args23augment_args_for_update
FNDA:0,_RNCNvXsn_NtNtCs6wcrk8Qgr6W_6nanocl6models5cargoNtB7_14CargoStartOptsNtNtCs2aLnEu25Pl6_4clap6derive14FromArgMatches27update_from_arg_matches_mut0Bb_
FNDA:0,_RNvXsD_NtNtCs6wcrk8Qgr6W_6nanocl6models5cargoNtB5_14CargoPatchOptsNtNtCs2aLnEu25Pl6_4clap6derive14FromArgMatches16from_arg_matches
FNDA:0,_RNCNvXsT_NtNtCs6wcrk8Qgr6W_6nanocl6models5cargoNtB7_14CargoResetOptsNtNtCs2aLnEu25Pl6_4clap6derive14FromArgMatches27update_from_arg_matches_mut0Bb_
FNDA:0,_RNvXsO_NtNtCs6wcrk8Qgr6W_6nanocl6models5cargoNtB5_16CargoHistoryOptsNtNtCs2aLnEu25Pl6_4clap6derive14FromArgMatches27update_from_arg_matches_mut
FNDA:0,_RNCNvXsc_NtNtCs6wcrk8Qgr6W_6nanocl6models5cargoNtB7_15CargoCreateOptsNtNtCs2aLnEu25Pl6_4clap6derive14FromArgMatches27update_from_arg_matches_muts0_0Bb_
FNDA:0,_RNvXs16_NtNtCs6wcrk8Qgr6W_6nanocl6models5cargoNtB6_9CargoArgsNtNtCs2aLnEu25Pl6_4clap6derive14FromArgMatches27update_from_arg_matches_mut
FNDA:0,_RNvXs15_NtNtCs6wcrk8Qgr6W_6nanocl6models5cargoNtB6_9CargoArgsNtNtCs2aLnEu25Pl6_4clap6derive14CommandFactory7command
FNDA:0,_RNvXsn_NtNtCs6wcrk8Qgr6W_6nanocl6models5cargoNtB5_14CargoStartOptsNtNtCs2aLnEu25Pl6_4clap6derive14FromArgMatches27update_from_arg_matches_mut
FNDA:0,_RNvXsy_NtNtCs6wcrk8Qgr6W_6nanocl6models5cargoNtB5_16CargoInspectOptsNtNtCs2aLnEu25Pl6_4clap6derive4Args8group_id
FNDA:0,_RNvXsJ_NtNtCs6wcrk8Qgr6W_6nanocl6models5cargoNtB5_13CargoExecOptsNtNtCs2aLnEu25Pl6_4clap6derive14FromArgMatches23update_from_arg_matches
FNDA:0,_RNvXs7_NtNtCs6wcrk8Qgr6W_6nanocl6models5cargoNtB5_15CargoRemoveOptsNtNtCs2aLnEu25Pl6_4clap6derive4Args8group_id
FNDA:0,_RNCNvXsi_NtNtCs6wcrk8Qgr6W_6nanocl6models5cargoNtB7_12CargoRunOptsNtNtCs2aLnEu25Pl6_4clap6derive14FromArgMatches27update_from_arg_matches_muts_0Bb_
FNDA:0,_RNCNvXsT_NtNtCs6wcrk8Qgr6W_6nanocl6models5cargoNtB7_14CargoResetOptsNtNtCs2aLnEu25Pl6_4clap6derive14FromArgMatches27update_from_arg_matches_muts_0Bb_
FNDA:0,_RNvXs17_NtNtCs6wcrk8Qgr6W_6nanocl6models5cargoNtB6_9CargoArgsNtNtCs2aLnEu25Pl6_4clap6derive4Args8group_id
FNDA:0,_RNvXsi_NtNtCs6wcrk8Qgr6W_6nanocl6models5cargoNtB5_12CargoRunOptsNtNtCs2aLnEu25Pl6_4clap6derive14FromArgMatches23update_from_arg_matches
FNDA:0,_RNvXsi_NtNtCs6wcrk8Qgr6W_6nanocl6models5cargoNtB5_12CargoRunOptsNtNtCs2aLnEu25Pl6_4clap6derive14FromArgMatches16from_arg_matches
FNDA:0,_RNvXsQ_NtNtCs6wcrk8Qgr6W_6nanocl6models5cargoNtB5_14CargoResetOptsNtNtCshYNBHIop811_4core3fmt5Debug3fmt
FNDA:0,_RNCNvXsO_NtNtCs6wcrk8Qgr6W_6nanocl6models5cargoNtB7_16CargoHistoryOptsNtNtCs2aLnEu25Pl6_4clap6derive14FromArgMatches27update_from_arg_matches_mut0Bb_
FNDA:0,_RNvXsc_NtNtCs6wcrk8Qgr6W_6nanocl6models5cargoNtB5_15CargoCreateOptsNtNtCs2aLnEu25Pl6_4clap6derive14FromArgMatches27update_from_arg_matches_mut
FNDA:0,_RNCNvXsi_NtNtCs6wcrk8Qgr6W_6nanocl6models5cargoNtB7_12CargoRunOptsNtNtCs2aLnEu25Pl6_4clap6derive14FromArgMatches27update_from_arg_matches_muts0_0Bb_
FNDA:0,_RNCNvXsD_NtNtCs6wcrk8Qgr6W_6nanocl6models5cargoNtB7_14CargoPatchOptsNtNtCs2aLnEu25Pl6_4clap6derive14FromArgMatches27update_from_arg_matches_mut0Bb_
FNDA:0,_RNvXs8_NtNtCs6wcrk8Qgr6W_6nanocl6models5cargoNtB5_15CargoCreateOptsNtNtCshYNBHIop811_4core3fmt5Debug3fmt
FNDA:0,_RNvXss_NtNtCs6wcrk8Qgr6W_6nanocl6models5cargoNtB5_13CargoStopOptsNtNtCs2aLnEu25Pl6_4clap6derive14FromArgMatches27update_from_arg_matches_mut
FNDA:0,_RNvXsD_NtNtCs6wcrk8Qgr6W_6nanocl6models5cargoNtB5_14CargoPatchOptsNtNtCs2aLnEu25Pl6_4clap6derive14FromArgMatches23update_from_arg_matches
FNDA:0,_RNvXsT_NtNtCs6wcrk8Qgr6W_6nanocl6models5cargoNtB5_14CargoResetOptsNtNtCs2aLnEu25Pl6_4clap6derive14FromArgMatches16from_arg_matches
FNDA:0,_RNCNvXss_NtNtCs6wcrk8Qgr6W_6nanocl6models5cargoNtB7_13CargoStopOptsNtNtCs2aLnEu25Pl6_4clap6derive14FromArgMatches27update_from_arg_matches_mut0Bb_
FNDA:0,_RNvXsY_NtNtCs6wcrk8Qgr6W_6nanocl6models5cargoNtB5_13CargoLogsOptsNtNtCs2aLnEu25Pl6_4clap6derive14FromArgMatches27update_from_arg_matches_mut
FNDA:0,_RNCNvXsD_NtNtCs6wcrk8Qgr6W_6nanocl6models5cargoNtB7_14CargoPatchOptsNtNtCs2aLnEu25Pl6_4clap6derive14FromArgMatches27update_from_arg_matches_muts_0Bb_
FNDA:0,_RNvXsJ_NtNtCs6wcrk8Qgr6W_6nanocl6models5cargoNtB5_13CargoExecOptsNtNtCs2aLnEu25Pl6_4clap6derive14FromArgMatches27update_from_arg_matches_mut
FNDA:0,_RNvXsc_NtNtCs6wcrk8Qgr6W_6nanocl6models5cargoNtB5_15CargoCreateOptsNtNtCs2aLnEu25Pl6_4clap6derive14FromArgMatches23update_from_arg_matches
FNDA:0,_RNvXsk_NtNtCs6wcrk8Qgr6W_6nanocl6models5cargoNtB5_14CargoStartOptsNtNtCshYNBHIop811_4core3fmt5Debug3fmt
FNDA:0,_RNvXsS_NtNtCs6wcrk8Qgr6W_6nanocl6models5cargoNtB5_14CargoResetOptsNtNtCs2aLnEu25Pl6_4clap6derive14CommandFactory18command_for_update
FNDA:0,_RNvXs5_NtNtCs6wcrk8Qgr6W_6nanocl6models5cargoNtB5_15CargoRemoveOptsNtNtCs2aLnEu25Pl6_4clap6derive14CommandFactory7command
FNDA:0,_RNvXsx_NtNtCs6wcrk8Qgr6W_6nanocl6models5cargoNtB5_16CargoInspectOptsNtNtCs2aLnEu25Pl6_4clap6derive14FromArgMatches16from_arg_matches
FNDA:0,_RNvXsX_NtNtCs6wcrk8Qgr6W_6nanocl6models5cargoNtB5_13CargoLogsOptsNtNtCs2aLnEu25Pl6_4clap6derive14CommandFactory7command
FNDA:0,_RNvXsy_NtNtCs6wcrk8Qgr6W_6nanocl6models5cargoNtB5_16CargoInspectOptsNtNtCs2aLnEu25Pl6_4clap6derive4Args23augment_args_for_update
FNDA:0,_RNvXsZ_NtNtCs6wcrk8Qgr6W_6nanocl6models5cargoNtB5_13CargoLogsOptsNtNtCs2aLnEu25Pl6_4clap6derive4Args23augment_args_for_update
FNDA:0,_RNCNvXsc_NtNtCs6wcrk8Qgr6W_6nanocl6models5cargoNtB7_15CargoCreateOptsNtNtCs2aLnEu25Pl6_4clap6derive14FromArgMatches27update_from_arg_matches_mut0Bb_
FNDA:0,_RNvXs3_NtNtCs6wcrk8Qgr6W_6nanocl6models5cargoNtB5_15CargoRemoveOptsNtNtCshYNBHIop811_4core3fmt5Debug3fmt
FNDA:0,_RNvXsD_NtNtCs6wcrk8Qgr6W_6nanocl6models5cargoNtB5_14CargoPatchOptsNtNtCs2aLnEu25Pl6_4clap6derive14FromArgMatches27update_from_arg_matches_mut
FNDA:0,_RNvXsO_NtNtCs6wcrk8Qgr6W_6nanocl6models5cargoNtB5_16CargoHistoryOptsNtNtCs2aLnEu25Pl6_4clap6derive14FromArgMatches16from_arg_matches
FNDA:0,_RNvXsT_NtNtCs6wcrk8Qgr6W_6nanocl6models5cargoNtB5_14CargoResetOptsNtNtCs2aLnEu25Pl6_4clap6derive14FromArgMatches23update_from_arg_matches
FNDA:0,_RNvXst_NtNtCs6wcrk8Qgr6W_6nanocl6models5cargoNtB5_13CargoStopOptsNtNtCs2aLnEu25Pl6_4clap6derive4Args23augment_args_for_update
FNDA:0,_RNvXs11_NtNtCs6wcrk8Qgr6W_6nanocl6models5cargoNtB6_13CargoCommandsNtNtCs2aLnEu25Pl6_4clap6derive14FromArgMatches27update_from_arg_matches_mut
FNDA:0,_RNvXsc_NtNtCs6wcrk8Qgr6W_6nanocl6models5cargoNtB5_15CargoCreateOptsNtNtCs2aLnEu25Pl6_4clap6derive14FromArgMatches16from_arg_matches
FNDA:0,_RNvXsn_NtNtCs6wcrk8Qgr6W_6nanocl6models5cargoNtB5_14CargoStartOptsNtNtCs2aLnEu25Pl6_4clap6derive14FromArgMatches16from_arg_matches
FNDA:0,_RNvXs12_NtNtCs6wcrk8Qgr6W_6nanocl6models5cargoNtB6_13CargoCommandsNtNtCs2aLnEu25Pl6_4clap6derive10Subcommand30augment_subcommands_for_update
FNDA:0,_RNvXsr_NtNtCs6wcrk8Qgr6W_6nanocl6models5cargoNtB5_13CargoStopOptsNtNtCs2aLnEu25Pl6_4clap6derive14CommandFactory18command_for_update
FNDA:0,_RNvXsi_NtNtCs6wcrk8Qgr6W_6nanocl6models5cargoNtB5_12CargoRunOptsNtNtCs2aLnEu25Pl6_4clap6derive14FromArgMatches27update_from_arg_matches_mut
FNDA:0,_RNvXso_NtNtCs6wcrk8Qgr6W_6nanocl6models5cargoNtB5_14CargoStartOptsNtNtCs2aLnEu25Pl6_4clap6derive4Args8group_id
FNDA:0,_RNvXsC_NtNtCs6wcrk8Qgr6W_6nanocl6models5cargoNtB5_14CargoPatchOptsNtNtCs2aLnEu25Pl6_4clap6derive14CommandFactory18command_for_update
FNDA:0,_RNvXsK_NtNtCs6wcrk8Qgr6W_6nanocl6models5cargoNtB5_13CargoExecOptsNtNtCs2aLnEu25Pl6_4clap6derive4Args8group_id
FNDA:0,_RNvXsh_NtNtCs6wcrk8Qgr6W_6nanocl6models5cargoNtB5_12CargoRunOptsNtNtCs2aLnEu25Pl6_4clap6derive14CommandFactory18command_for_update
FNDA:0,_RNvXs16_NtNtCs6wcrk8Qgr6W_6nanocl6models5cargoNtB6_9CargoArgsNtNtCs2aLnEu25Pl6_4clap6derive14FromArgMatches16from_arg_matches
FNDA:0,_RNvXst_NtNtCs6wcrk8Qgr6W_6nanocl6models5cargoNtB5_13CargoStopOptsNtNtCs2aLnEu25Pl6_4clap6derive4Args8group_id
FNDA:0,_RNvXsI_NtNtCs6wcrk8Qgr6W_6nanocl6models5cargoNtB5_13CargoExecOptsNtNtCs2aLnEu25Pl6_4clap6derive14CommandFactory7command
FNDA:0,_RNvXsx_NtNtCs6wcrk8Qgr6W_6nanocl6models5cargoNtB5_16CargoInspectOptsNtNtCs2aLnEu25Pl6_4clap6derive14FromArgMatches27update_from_arg_matches_mut
FNDA:0,_RNCNvXsi_NtNtCs6wcrk8Qgr6W_6nanocl6models5cargoNtB7_12CargoRunOptsNtNtCs2aLnEu25Pl6_4clap6derive14FromArgMatches27update_from_arg_matches_muts1_0Bb_
FNDA:0,_RNCNvXsJ_NtNtCs6wcrk8Qgr6W_6nanocl6models5cargoNtB7_13CargoExecOptsNtNtCs2aLnEu25Pl6_4clap6derive14FromArgMatches27update_from_arg_matches_muts_0Bb_
FNDA:0,_RNvXs16_NtNtCs6wcrk8Qgr6W_6nanocl6models5cargoNtB6_9CargoArgsNtNtCs2aLnEu25Pl6_4clap6derive14FromArgMatches23update_from_arg_matches
FNDA:0,_RNvXsd_NtNtCs6wcrk8Qgr6W_6nanocl6models5cargoNtB5_15CargoCreateOptsNtNtCs2aLnEu25Pl6_4clap6derive4Args23augment_args_for_update
FNDA:0,_RNvXs12_NtNtCs6wcrk8Qgr6W_6nanocl6models5cargoNtB6_13CargoCommandsNtNtCs2aLnEu25Pl6_4clap6derive10Subcommand14has_subcommand
FNDA:0,_RNCNvXsi_NtNtCs6wcrk8Qgr6W_6nanocl6models5cargoNtB7_12CargoRunOptsNtNtCs2aLnEu25Pl6_4clap6derive14FromArgMatches27update_from_arg_matches_muts2_0Bb_
FNDA:0,_RNvXsN_NtNtCs6wcrk8Qgr6W_6nanocl6models5cargoNtB5_16CargoHistoryOptsNtNtCs2aLnEu25Pl6_4clap6derive14CommandFactory7command
FNDA:0,_RNvXsE_NtNtCs6wcrk8Qgr6W_6nanocl6models5cargoNtB5_14CargoPatchOptsNtNtCs2aLnEu25Pl6_4clap6derive4Args23augment_args_for_update
FNDA:0,_RNvXsZ_NtNtCs6wcrk8Qgr6W_6nanocl6models5cargoNtB5_13CargoLogsOptsNtNtCs2aLnEu25Pl6_4clap6derive4Args8group_id
FNDA:0,_RNvXsb_NtNtCs6wcrk8Qgr6W_6nanocl6models5cargoNtB5_15CargoCreateOptsNtNtCs2aLnEu25Pl6_4clap6derive14CommandFactory7command
FNDA:0,_RNvXsj_NtNtCs6wcrk8Qgr6W_6nanocl6models5cargoNtB5_12CargoRunOptsNtNtCs2aLnEu25Pl6_4clap6derive4Args23augment_args_for_update
FNDA:0,_RNvXsT_NtNtCs6wcrk8Qgr6W_6nanocl6models5cargoNtB5_14CargoResetOptsNtNtCs2aLnEu25Pl6_4clap6derive14FromArgMatches27update_from_arg_matches_mut
FNDA:0,_RNvXsm_NtNtCs6wcrk8Qgr6W_6nanocl6models5cargoNtB5_14CargoStartOptsNtNtCs2aLnEu25Pl6_4clap6derive14CommandFactory7command
FNDA:0,_RNCNvXsi_NtNtCs6wcrk8Qgr6W_6nanocl6models5cargoNtB7_12CargoRunOptsNtNtCs2aLnEu25Pl6_4clap6derive14FromArgMatches27update_from_arg_matches_muts3_0Bb_
FNDA:0,_RNvXs10_NtNtCs6wcrk8Qgr6W_6nanocl6models5cargoNtB6_13CargoCommandsNtNtCshYNBHIop811_4core3fmt5Debug3fmt
FNDA:0,_RNvXsP_NtNtCs6wcrk8Qgr6W_6nanocl6models5cargoNtB5_16CargoHistoryOptsNtNtCs2aLnEu25Pl6_4clap6derive4Args23augment_args_for_update
FNDA:0,_RNvXss_NtNtCs6wcrk8Qgr6W_6nanocl6models5cargoNtB5_13CargoStopOptsNtNtCs2aLnEu25Pl6_4clap6derive14FromArgMatches23update_from_arg_matches
FNDA:0,_RNvXsI_NtNtCs6wcrk8Qgr6W_6nanocl6models5cargoNtB5_13CargoExecOptsNtNtCs2aLnEu25Pl6_4clap6derive14CommandFactory18command_for_update
FNDA:0,_RNvXs6_NtNtCs6wcrk8Qgr6W_6nanocl6models5cargoNtB5_15CargoRemoveOptsNtNtCs2aLnEu25Pl6_4clap6derive14FromArgMatches16from_arg_matches
FNDA:0,_RNvXsn_NtNtCs6wcrk8Qgr6W_6nanocl6models5cargoNtB5_14CargoStartOptsNtNtCs2aLnEu25Pl6_4clap6derive14FromArgMatches23update_from_arg_matches
FNDA:0,_RNvXsr_NtNtCs6wcrk8Qgr6W_6nanocl6models5cargoNtB5_13CargoStopOptsNtNtCs2aLnEu25Pl6_4clap6derive14CommandFactory7command
FNDA:0,_RNvXsV_NtNtCs6wcrk8Qgr6W_6nanocl6models5cargoNtB5_13CargoLogsOptsNtNtCshYNBHIop811_4core3fmt5Debug3fmt
FNDA:0,_RNvXsu_NtNtCs6wcrk8Qgr6W_6nanocl6models5cargoNtB5_16CargoInspectOptsNtNtCshYNBHIop811_4core3fmt5Debug3fmt
FNDA:0,_RNvXsK_NtNtCs6wcrk8Qgr6W_6nanocl6models5cargoNtB5_13CargoExecOptsNtNtCs2aLnEu25Pl6_4clap6derive4Args23augment_args_for_update
FNDA:0,_RNvXsY_NtNtCs6wcrk8Qgr6W_6nanocl6models5cargoNtB5_13CargoLogsOptsNtNtCs2aLnEu25Pl6_4clap6derive14FromArgMatches23update_from_arg_matches
FNDA:0,_RNvXsN_NtNtCs6wcrk8Qgr6W_6nanocl6models5cargoNtB5_16CargoHistoryOptsNtNtCs2aLnEu25Pl6_4clap6derive14CommandFactory18command_for_update
FNDA:0,_RNvXsb_NtNtCs6wcrk8Qgr6W_6nanocl6models5cargoNtB5_15CargoCreateOptsNtNtCs2aLnEu25Pl6_4clap6derive14CommandFactory18command_for_update
FNDA:0,_RNvXsj_NtNtCs6wcrk8Qgr6W_6nanocl6models5cargoNtB5_12CargoRunOptsNtNtCs2aLnEu25Pl6_4clap6derive4Args8group_id
FNDA:0,_RNCNvXsc_NtNtCs6wcrk8Qgr6W_6nanocl6models5cargoNtB7_15CargoCreateOptsNtNtCs2aLnEu25Pl6_4clap6derive14FromArgMatches27update_from_arg_matches_muts1_0Bb_
FNDA:0,_RNvXsm_NtNtCs6wcrk8Qgr6W_6nanocl6models5cargoNtB5_14CargoStartOptsNtNtCs2aLnEu25Pl6_4clap6derive14CommandFactory18command_for_update
FNDA:0,_RNvXsh_NtNtCs6wcrk8Qgr6W_6nanocl6models5cargoNtB5_12CargoRunOptsNtNtCs2aLnEu25Pl6_4clap6derive14CommandFactory7command
FNDA:0,_RNvXsC_NtNtCs6wcrk8Qgr6W_6nanocl6models5cargoNtB5_14CargoPatchOptsNtNtCs2aLnEu25Pl6_4clap6derive14CommandFactory7command
FNDA:0,_RNvXsP_NtNtCs6wcrk8Qgr6W_6nanocl6models5cargoNtB5_16CargoHistoryOptsNtNtCs2aLnEu25Pl6_4clap6derive4Args8group_id
FNDA:0,_RNCNvXs6_NtNtCs6wcrk8Qgr6W_6nanocl6models5cargoNtB7_15CargoRemoveOptsNtNtCs2aLnEu25Pl6_4clap6derive14FromArgMatches27update_from_arg_matches_muts_0Bb_
FNDA:0,_RNvXs11_NtNtCs6wcrk8Qgr6W_6nanocl6models5cargoNtB6_13CargoCommandsNtNtCs2aLnEu25Pl6_4clap6derive14FromArgMatches16from_arg_matches
FNDA:0,_RNCNvXsY_NtNtCs6wcrk8Qgr6W_6nanocl6models5cargoNtB7_13CargoLogsOptsNtNtCs2aLnEu25Pl6_4clap6derive14FromArgMatches27update_from_arg_matches_mut0Bb_
FNDA:0,_RNvXsU_NtNtCs6wcrk8Qgr6W_6nanocl6models5cargoNtB5_14CargoResetOptsNtNtCs2aLnEu25Pl6_4clap6derive4Args8group_id
FNDA:0,_RNvXsd_NtNtCs6wcrk8Qgr6W_6nanocl6models5cargoNtB5_15CargoCreateOptsNtNtCs2aLnEu25Pl6_4clap6derive4Args8group_id
FNDA:0,_RNCNvXsJ_NtNtCs6wcrk8Qgr6W_6nanocl6models5cargoNtB7_13CargoExecOptsNtNtCs2aLnEu25Pl6_4clap6derive14FromArgMatches27update_from_arg_matches_mut0Bb_
FNDA:0,_RNvXsX_NtNtCs6wcrk8Qgr6W_6nanocl6models5cargoNtB5_13CargoLogsOptsNtNtCs2aLnEu25Pl6_4clap6derive14CommandFactory18command_for_update
FNDA:0,_RNvXs11_NtNtCs6wcrk8Qgr6W_6nanocl6models5cargoNtB6_13CargoCommandsNtNtCs2aLnEu25Pl6_4clap6derive14FromArgMatches23update_from_arg_matches
FNDA:0,_RNvXsE_NtNtCs6wcrk8Qgr6W_6nanocl6models5cargoNtB5_14CargoPatchOptsNtNtCs2aLnEu25Pl6_4clap6derive4Args8group_id
FNDA:0,_RNvXsS_NtNtCs6wcrk8Qgr6W_6nanocl6models5cargoNtB5_14CargoResetOptsNtNtCs2aLnEu25Pl6_4clap6derive14CommandFactory7command
FNDA:0,_RNvXsF_NtNtCs6wcrk8Qgr6W_6nanocl6models5cargoNtB5_13CargoExecOptsNtNtCshYNBHIop811_4core3fmt5Debug3fmt
FNDA:0,_RNCNvXsx_NtNtCs6wcrk8Qgr6W_6nanocl6models5cargoNtB7_16CargoInspectOptsNtNtCs2aLnEu25Pl6_4clap6derive14FromArgMatches27update_from_arg_matches_mut0Bb_
FNDA:0,_RNvXs15_NtNtCs6wcrk8Qgr6W_6nanocl6models5cargoNtB6_9CargoArgsNtNtCs2aLnEu25Pl6_4clap6derive14CommandFactory18command_for_update
FNDA:0,_RNvXs6_NtNtCs6wcrk8Qgr6W_6nanocl6models5cargoNtB5_15CargoRemoveOptsNtNtCs2aLnEu25Pl6_4clap6derive14FromArgMatches23update_from_arg_matches
FNDA:0,_RNvXs13_NtNtCs6wcrk8Qgr6W_6nanocl6models5cargoNtB6_9CargoArgsNtNtCshYNBHIop811_4core3fmt5Debug3fmt
FNDA:0,_RNCNvXsD_NtNtCs6wcrk8Qgr6W_6nanocl6models5cargoNtB7_14CargoPatchOptsNtNtCs2aLnEu25Pl6_4clap6derive14FromArgMatches27update_from_arg_matches_muts0_0Bb_
FNDA:1,_RNvXs1_NtNtCs6wcrk8Qgr6W_6nanocl6models5cargoINtNtCs1BwvzQeRzc7_12bollard_next4exec17CreateExecOptionsNtNtCs7OvAONlnxZo_5alloc6string6StringEINtNtCshYNBHIop811_4core7convert4FromNtB5_13CargoExecOptsE4from
FNDA:0,_RNCNvXsT_NtNtCs6wcrk8Qgr6W_6nanocl6models5cargoNtB7_14CargoResetOptsNtNtCs2aLnEu25Pl6_4clap6derive14FromArgMatches20from_arg_matches_muts_0Bb_
FNDA:1,_RNvXs2_NtNtCs6wcrk8Qgr6W_6nanocl6models5cargoNtB5_8CargoRowINtNtCshYNBHIop811_4core7convert4FromNtNtCsfutTBaew1Qf_12nanocl_stubs5cargo12CargoSummaryE4from
FNDA:1,_RNvXsA_NtNtCs6wcrk8Qgr6W_6nanocl6models5cargoNtB5_14CargoPatchOptsNtNtCshYNBHIop811_4core5clone5Clone5cloneB9_
FNDA:37,_RNvXst_NtNtCs6wcrk8Qgr6W_6nanocl6models5cargoNtB5_13CargoStopOptsNtNtCs2aLnEu25Pl6_4clap6derive4Args12augment_args
FNDA:0,_RNCNvXsD_NtNtCs6wcrk8Qgr6W_6nanocl6models5cargoNtB7_14CargoPatchOptsNtNtCs2aLnEu25Pl6_4clap6derive14FromArgMatches20from_arg_matches_mut0Bb_
FNDA:0,_RNvXsY_NtNtCs6wcrk8Qgr6W_6nanocl6models5cargoNtB5_13CargoLogsOptsNtNtCs2aLnEu25Pl6_4clap6derive14FromArgMatches20from_arg_matches_mut
FNDA:1,_RNvXsn_NtNtCs6wcrk8Qgr6W_6nanocl6models5cargoNtB5_14CargoStartOptsNtNtCs2aLnEu25Pl6_4clap6derive14FromArgMatches20from_arg_matches_mut
FNDA:37,_RNvXs12_NtNtCs6wcrk8Qgr6W_6nanocl6models5cargoNtB6_13CargoCommandsNtNtCs2aLnEu25Pl6_4clap6derive10Subcommand19augment_subcommands
FNDA:1,_RNvXsJ_NtNtCs6wcrk8Qgr6W_6nanocl6models5cargoNtB5_13CargoExecOptsNtNtCs2aLnEu25Pl6_4clap6derive14FromArgMatches20from_arg_matches_mut
FNDA:1,_RNCNvXsJ_NtNtCs6wcrk8Qgr6W_6nanocl6models5cargoNtB7_13CargoExecOptsNtNtCs2aLnEu25Pl6_4clap6derive14FromArgMatches20from_arg_matches_muts_0Bb_
FNDA:1,_RNvXsD_NtNtCs6wcrk8Qgr6W_6nanocl6models5cargoNtB5_14CargoPatchOptsNtNtCs2aLnEu25Pl6_4clap6derive14FromArgMatches20from_arg_matches_mut
FNDA:0,_RNCNvXsi_NtNtCs6wcrk8Qgr6W_6nanocl6models5cargoNtB7_12CargoRunOptsNtNtCs2aLnEu25Pl6_4clap6derive14FromArgMatches20from_arg_matches_muts3_0Bb_
FNDA:1,_RNCNvXsD_NtNtCs6wcrk8Qgr6W_6nanocl6models5cargoNtB7_14CargoPatchOptsNtNtCs2aLnEu25Pl6_4clap6derive14FromArgMatches20from_arg_matches_muts_0Bb_
FNDA:18,_RNvXs16_NtNtCs6wcrk8Qgr6W_6nanocl6models5cargoNtB6_9CargoArgsNtNtCs2aLnEu25Pl6_4clap6derive14FromArgMatches20from_arg_matches_mut
FNDA:37,_RNvXsK_NtNtCs6wcrk8Qgr6W_6nanocl6models5cargoNtB5_13CargoExecOptsNtNtCs2aLnEu25Pl6_4clap6derive4Args12augment_args
FNDA:37,_RNvXsZ_NtNtCs6wcrk8Qgr6W_6nanocl6models5cargoNtB5_13CargoLogsOptsNtNtCs2aLnEu25Pl6_4clap6derive4Args12augment_args
FNDA:0,_RNCNvXs6_NtNtCs6wcrk8Qgr6W_6nanocl6models5cargoNtB7_15CargoRemoveOptsNtNtCs2aLnEu25Pl6_4clap6derive14FromArgMatches20from_arg_matches_mut0Bb_
FNDA:2,_RNvXss_NtNtCs6wcrk8Qgr6W_6nanocl6models5cargoNtB5_13CargoStopOptsNtNtCs2aLnEu25Pl6_4clap6derive14FromArgMatches20from_arg_matches_mut
FNDA:0,_RNCNvXsJ_NtNtCs6wcrk8Qgr6W_6nanocl6models5cargoNtB7_13CargoExecOptsNtNtCs2aLnEu25Pl6_4clap6derive14FromArgMatches20from_arg_matches_mut0Bb_
FNDA:1,_RNvXs18_NtNtCs6wcrk8Qgr6W_6nanocl6models5cargoNtB6_8CargoRowNtNtCsjra9mVSv54w_6tabled6tabled6Tabled6fields
FNDA:2,_RNCNvXs6_NtNtCs6wcrk8Qgr6W_6nanocl6models5cargoNtB7_15CargoRemoveOptsNtNtCs2aLnEu25Pl6_4clap6derive14FromArgMatches20from_arg_matches_muts_0Bb_
FNDA:0,_RNCNvXsi_NtNtCs6wcrk8Qgr6W_6nanocl6models5cargoNtB7_12CargoRunOptsNtNtCs2aLnEu25Pl6_4clap6derive14FromArgMatches20from_arg_matches_muts0_0Bb_
FNDA:0,_RNCNvXsO_NtNtCs6wcrk8Qgr6W_6nanocl6models5cargoNtB7_16CargoHistoryOptsNtNtCs2aLnEu25Pl6_4clap6derive14FromArgMatches20from_arg_matches_mut0Bb_
FNDA:1,_RNvXsi_NtNtCs6wcrk8Qgr6W_6nanocl6models5cargoNtB5_12CargoRunOptsNtNtCs2aLnEu25Pl6_4clap6derive14FromArgMatches20from_arg_matches_mut
FNDA:2,_RNCNvXss_NtNtCs6wcrk8Qgr6W_6nanocl6models5cargoNtB7_13CargoStopOptsNtNtCs2aLnEu25Pl6_4clap6derive14FromArgMatches20from_arg_matches_mut0Bb_
FNDA:37,_RNvXsU_NtNtCs6wcrk8Qgr6W_6nanocl6models5cargoNtB5_14CargoResetOptsNtNtCs2aLnEu25Pl6_4clap6derive4Args12augment_args
FNDA:0,_RNCNvXsc_NtNtCs6wcrk8Qgr6W_6nanocl6models5cargoNtB7_15CargoCreateOptsNtNtCs2aLnEu25Pl6_4clap6derive14FromArgMatches20from_arg_matches_muts_0Bb_
FNDA:2,_RNvXs6_NtNtCs6wcrk8Qgr6W_6nanocl6models5cargoNtB5_15CargoRemoveOptsNtNtCs2aLnEu25Pl6_4clap6derive14FromArgMatches20from_arg_matches_mut
FNDA:1,_RNvXsT_NtNtCs6wcrk8Qgr6W_6nanocl6models5cargoNtB5_14CargoResetOptsNtNtCs2aLnEu25Pl6_4clap6derive14FromArgMatches20from_arg_matches_mut
FNDA:0,_RNCNvXsY_NtNtCs6wcrk8Qgr6W_6nanocl6models5cargoNtB7_13CargoLogsOptsNtNtCs2aLnEu25Pl6_4clap6derive14FromArgMatches20from_arg_matches_mut0Bb_
FNDA:0,_RNCNvXsD_NtNtCs6wcrk8Qgr6W_6nanocl6models5cargoNtB7_14CargoPatchOptsNtNtCs2aLnEu25Pl6_4clap6derive14FromArgMatches20from_arg_matches_muts0_0Bb_
FNDA:0,_RNCNvXsc_NtNtCs6wcrk8Qgr6W_6nanocl6models5cargoNtB7_15CargoCreateOptsNtNtCs2aLnEu25Pl6_4clap6derive14FromArgMatches20from_arg_matches_muts0_0Bb_
FNDA:37,_RNvXsj_NtNtCs6wcrk8Qgr6W_6nanocl6models5cargoNtB5_12CargoRunOptsNtNtCs2aLnEu25Pl6_4clap6derive4Args12augment_args
FNDA:0,_RNCNvXsc_NtNtCs6wcrk8Qgr6W_6nanocl6models5cargoNtB7_15CargoCreateOptsNtNtCs2aLnEu25Pl6_4clap6derive14FromArgMatches20from_arg_matches_mut0Bb_
FNDA:1,_RNvXsf_NtNtCs6wcrk8Qgr6W_6nanocl6models5cargoNtB5_12CargoRunOptsNtNtCshYNBHIop811_4core5clone5Clone5cloneB9_
FNDA:37,_RNvXsE_NtNtCs6wcrk8Qgr6W_6nanocl6models5cargoNtB5_14CargoPatchOptsNtNtCs2aLnEu25Pl6_4clap6derive4Args12augment_args
FNDA:0,_RNCNvXsi_NtNtCs6wcrk8Qgr6W_6nanocl6models5cargoNtB7_12CargoRunOptsNtNtCs2aLnEu25Pl6_4clap6derive14FromArgMatches20from_arg_matches_mut0Bb_
FNDA:37,_RNvXsP_NtNtCs6wcrk8Qgr6W_6nanocl6models5cargoNtB5_16CargoHistoryOptsNtNtCs2aLnEu25Pl6_4clap6derive4Args12augment_args
FNDA:1,_RNCNvXsi_NtNtCs6wcrk8Qgr6W_6nanocl6models5cargoNtB7_12CargoRunOptsNtNtCs2aLnEu25Pl6_4clap6derive14FromArgMatches20from_arg_matches_muts1_0Bb_
FNDA:0,_RNvXs11_NtNtCs6wcrk8Qgr6W_6nanocl6models5cargoNtB6_13CargoCommandsNtNtCs2aLnEu25Pl6_4clap6derive14FromArgMatches20from_arg_matches_mut
FNDA:37,_RNvXso_NtNtCs6wcrk8Qgr6W_6nanocl6models5cargoNtB5_14CargoStartOptsNtNtCs2aLnEu25Pl6_4clap6derive4Args12augment_args
FNDA:0,_RNCNvXsi_NtNtCs6wcrk8Qgr6W_6nanocl6models5cargoNtB7_12CargoRunOptsNtNtCs2aLnEu25Pl6_4clap6derive14FromArgMatches20from_arg_matches_muts2_0Bb_
FNDA:1,_RNvXsO_NtNtCs6wcrk8Qgr6W_6nanocl6models5cargoNtB5_16CargoHistoryOptsNtNtCs2aLnEu25Pl6_4clap6derive14FromArgMatches20from_arg_matches_mut
FNDA:0,_RNCNvXsT_NtNtCs6wcrk8Qgr6W_6nanocl6models5cargoNtB7_14CargoResetOptsNtNtCs2aLnEu25Pl6_4clap6derive14FromArgMatches20from_arg_matches_mut0Bb_
FNDA:0,_RNCNvXsn_NtNtCs6wcrk8Qgr6W_6nanocl6models5cargoNtB7_14CargoStartOptsNtNtCs2aLnEu25Pl6_4clap6derive14FromArgMatches20from_arg_matches_mut0Bb_
FNDA:1,_RNvXsG_NtNtCs6wcrk8Qgr6W_6nanocl6models5cargoNtB5_13CargoExecOptsNtNtCshYNBHIop811_4core5clone5Clone5cloneB9_
FNDA:1,_RNvXs18_NtNtCs6wcrk8Qgr6W_6nanocl6models5cargoNtB6_8CargoRowNtNtCsjra9mVSv54w_6tabled6tabled6Tabled7headers
FNDA:0,_RNCNvXsx_NtNtCs6wcrk8Qgr6W_6nanocl6models5cargoNtB7_16CargoInspectOptsNtNtCs2aLnEu25Pl6_4clap6derive14FromArgMatches20from_arg_matches_mut0Bb_
FNDA:37,_RNvXsy_NtNtCs6wcrk8Qgr6W_6nanocl6models5cargoNtB5_16CargoInspectOptsNtNtCs2aLnEu25Pl6_4clap6derive4Args12augment_args
FNDA:0,_RNCNvXsc_NtNtCs6wcrk8Qgr6W_6nanocl6models5cargoNtB7_15CargoCreateOptsNtNtCs2aLnEu25Pl6_4clap6derive14FromArgMatches20from_arg_matches_muts1_0Bb_
FNDA:37,_RNvXsd_NtNtCs6wcrk8Qgr6W_6nanocl6models5cargoNtB5_15CargoCreateOptsNtNtCs2aLnEu25Pl6_4clap6derive4Args12augment_args
FNDA:37,_RNvXs17_NtNtCs6wcrk8Qgr6W_6nanocl6models5cargoNtB6_9CargoArgsNtNtCs2aLnEu25Pl6_4clap6derive4Args12augment_args
FNDA:1,_RNvXsx_NtNtCs6wcrk8Qgr6W_6nanocl6models5cargoNtB5_16CargoInspectOptsNtNtCs2aLnEu25Pl6_4clap6derive14FromArgMatches20from_arg_matches_mut
FNDA:0,_RNCNvXsi_NtNtCs6wcrk8Qgr6W_6nanocl6models5cargoNtB7_12CargoRunOptsNtNtCs2aLnEu25Pl6_4clap6derive14FromArgMatches20from_arg_matches_muts_0Bb_
FNDA:1,_RNvXsc_NtNtCs6wcrk8Qgr6W_6nanocl6models5cargoNtB5_15CargoCreateOptsNtNtCs2aLnEu25Pl6_4clap6derive14FromArgMatches20from_arg_matches_mut
FNDA:37,_RNvXs7_NtNtCs6wcrk8Qgr6W_6nanocl6models5cargoNtB5_15CargoRemoveOptsNtNtCs2aLnEu25Pl6_4clap6derive4Args12augment_args
FNDA:1,_RNvXs9_NtNtCs6wcrk8Qgr6W_6nanocl6models5cargoNtB5_15CargoCreateOptsNtNtCshYNBHIop811_4core5clone5Clone5cloneB9_
FNDA:1,_RNvXNtNtCs6wcrk8Qgr6W_6nanocl6models5cargoNtNtCsfutTBaew1Qf_12nanocl_stubs12cargo_config18CargoConfigPartialINtNtCshYNBHIop811_4core7convert4FromNtB2_15CargoCreateOptsE4from
FNDA:1,_RNvXs0_NtNtCs6wcrk8Qgr6W_6nanocl6models5cargoNtNtCsfutTBaew1Qf_12nanocl_stubs12cargo_config17CargoConfigUpdateINtNtCshYNBHIop811_4core7convert4FromNtB5_14CargoPatchOptsE4from
FNDA:1,_RNvXs_NtNtCs6wcrk8Qgr6W_6nanocl6models5cargoNtNtCsfutTBaew1Qf_12nanocl_stubs12cargo_config18CargoConfigPartialINtNtCshYNBHIop811_4core7convert4FromNtB4_12CargoRunOptsE4from
FNF:60
FNH:28
DA:16,39
DA:20,0
DA:21,0
DA:22,2
DA:26,38
DA:29,0
DA:31,0
DA:34,0
DA:37,0
DA:41,1
DA:42,1
DA:43,1
DA:44,1
DA:45,1
DA:46,1
DA:47,1
DA:48,1
DA:49,1
DA:50,1
DA:51,1
DA:52,1
DA:53,1
DA:54,1
DA:55,1
DA:56,1
DA:57,1
DA:60,38
DA:63,0
DA:65,0
DA:68,0
DA:71,1
DA:73,0
DA:74,0
DA:75,0
DA:79,1
DA:80,1
DA:81,1
DA:82,1
DA:83,1
DA:84,1
DA:85,1
DA:86,1
DA:87,1
DA:88,1
DA:89,1
DA:90,1
DA:91,1
DA:92,1
DA:93,1
DA:94,1
DA:95,1
DA:96,1
DA:97,1
DA:101,38
DA:104,0
DA:108,2
DA:111,2
DA:115,38
DA:118,0
DA:122,38
DA:124,0
DA:130,1
DA:132,0
DA:136,1
DA:137,1
DA:138,1
DA:139,1
DA:140,1
DA:141,1
DA:142,1
DA:143,1
DA:144,1
DA:145,1
DA:146,1
DA:150,38
DA:153,0
DA:156,1
DA:160,1
DA:161,1
DA:162,1
DA:163,1
DA:164,1
DA:165,1
DA:166,1
DA:167,1
DA:170,38
DA:173,0
DA:176,38
DA:179,0
DA:181,0
DA:184,37
DA:187,0
DA:190,120
DA:224,18
DA:234,2
DA:246,1
DA:247,1
DA:248,1
DA:249,1
DA:250,1
DA:251,1
DA:252,1
DA:253,1
DA:254,1
DA:255,1
DA:256,1
DA:257,1
DA:258,1
DA:259,1
DA:260,1
DA:261,1
DA:262,1
DA:263,1
DA:264,1
DA:265,1
DA:266,1
DA:267,1
BRF:0
BRH:0
LF:134
LH:100
end_of_record
SF:/home/leone/Documents/next-hat/nanocl/bin/nanocl/src/models/cargo_image.rs
FN:48,_RNvXso_NtNtCs6wcrk8Qgr6W_6nanocl6models11cargo_imageNtB5_14CargoImageOptsNtNtCs2aLnEu25Pl6_4clap6derive14CommandFactory7command
FN:19,_RNvXsd_NtNtCs6wcrk8Qgr6W_6nanocl6models11cargo_imageNtB5_21CargoImageInspectOptsNtNtCs2aLnEu25Pl6_4clap6derive4Args23augment_args_for_update
FN:14,_RNvXs4_NtNtCs6wcrk8Qgr6W_6nanocl6models11cargo_imageNtB5_20CargoImageCreateOptsNtNtCshYNBHIop811_4core3fmt5Debug3fmt
FN:48,_RNvXsp_NtNtCs6wcrk8Qgr6W_6nanocl6models11cargo_imageNtB5_14CargoImageOptsNtNtCs2aLnEu25Pl6_4clap6derive14FromArgMatches27update_from_arg_matches_mut
FN:48,_RNvXsq_NtNtCs6wcrk8Qgr6W_6nanocl6models11cargo_imageNtB5_14CargoImageOptsNtNtCs2aLnEu25Pl6_4clap6derive4Args8group_id
FN:19,_RNvXsb_NtNtCs6wcrk8Qgr6W_6nanocl6models11cargo_imageNtB5_21CargoImageInspectOptsNtNtCs2aLnEu25Pl6_4clap6derive14CommandFactory18command_for_update
FN:24,_RNvXsf_NtNtCs6wcrk8Qgr6W_6nanocl6models11cargo_imageNtB5_18CargoImageCommandsNtNtCs2aLnEu25Pl6_4clap6derive14FromArgMatches16from_arg_matches
FN:48,_RNvXsp_NtNtCs6wcrk8Qgr6W_6nanocl6models11cargo_imageNtB5_14CargoImageOptsNtNtCs2aLnEu25Pl6_4clap6derive14FromArgMatches23update_from_arg_matches
FN:6,_RNvXs3_NtNtCs6wcrk8Qgr6W_6nanocl6models11cargo_imageNtB5_20CargoImageRemoveOptsNtNtCs2aLnEu25Pl6_4clap6derive4Args8group_id
FN:24,_RNvXsg_NtNtCs6wcrk8Qgr6W_6nanocl6models11cargo_imageNtB5_18CargoImageCommandsNtNtCs2aLnEu25Pl6_4clap6derive10Subcommand14has_subcommand
FN:40,_RNvXsk_NtNtCs6wcrk8Qgr6W_6nanocl6models11cargo_imageNtB5_20CargoImageImportOptsNtNtCs2aLnEu25Pl6_4clap6derive14FromArgMatches23update_from_arg_matches
FN:6,_RNvXs1_NtNtCs6wcrk8Qgr6W_6nanocl6models11cargo_imageNtB5_20CargoImageRemoveOptsNtNtCs2aLnEu25Pl6_4clap6derive14CommandFactory7command
FN:24,_RNvXsf_NtNtCs6wcrk8Qgr6W_6nanocl6models11cargo_imageNtB5_18CargoImageCommandsNtNtCs2aLnEu25Pl6_4clap6derive14FromArgMatches23update_from_arg_matches
FN:14,_RNvXs7_NtNtCs6wcrk8Qgr6W_6nanocl6models11cargo_imageNtB5_20CargoImageCreateOptsNtNtCs2aLnEu25Pl6_4clap6derive14FromArgMatches23update_from_arg_matches
FN:6,_RNvXs3_NtNtCs6wcrk8Qgr6W_6nanocl6models11cargo_imageNtB5_20CargoImageRemoveOptsNtNtCs2aLnEu25Pl6_4clap6derive4Args23augment_args_for_update
FN:6,_RNvXs2_NtNtCs6wcrk8Qgr6W_6nanocl6models11cargo_imageNtB5_20CargoImageRemoveOptsNtNtCs2aLnEu25Pl6_4clap6derive14FromArgMatches27update_from_arg_matches_mut
FN:14,_RNvXs8_NtNtCs6wcrk8Qgr6W_6nanocl6models11cargo_imageNtB5_20CargoImageCreateOptsNtNtCs2aLnEu25Pl6_4clap6derive4Args23augment_args_for_update
FN:48,_RNvXsm_NtNtCs6wcrk8Qgr6W_6nanocl6models11cargo_imageNtB5_14CargoImageOptsNtNtCshYNBHIop811_4core3fmt5Debug3fmt
FN:24,_RNvXsf_NtNtCs6wcrk8Qgr6W_6nanocl6models11cargo_imageNtB5_18CargoImageCommandsNtNtCs2aLnEu25Pl6_4clap6derive14FromArgMatches27update_from_arg_matches_mut
FN:19,_RNvXsc_NtNtCs6wcrk8Qgr6W_6nanocl6models11cargo_imageNtB5_21CargoImageInspectOptsNtNtCs2aLnEu25Pl6_4clap6derive14FromArgMatches23update_from_arg_matches
FN:24,_RNvXse_NtNtCs6wcrk8Qgr6W_6nanocl6models11cargo_imageNtB5_18CargoImageCommandsNtNtCshYNBHIop811_4core3fmt5Debug3fmt
FN:14,_RNvXs6_NtNtCs6wcrk8Qgr6W_6nanocl6models11cargo_imageNtB5_20CargoImageCreateOptsNtNtCs2aLnEu25Pl6_4clap6derive14CommandFactory18command_for_update
FN:48,_RNvXsp_NtNtCs6wcrk8Qgr6W_6nanocl6models11cargo_imageNtB5_14CargoImageOptsNtNtCs2aLnEu25Pl6_4clap6derive14FromArgMatches16from_arg_matches
FN:16,_RNCNvXs7_NtNtCs6wcrk8Qgr6W_6nanocl6models11cargo_imageNtB7_20CargoImageCreateOptsNtNtCs2aLnEu25Pl6_4clap6derive14FromArgMatches27update_from_arg_matches_mut0Bb_
FN:40,_RNvXsk_NtNtCs6wcrk8Qgr6W_6nanocl6models11cargo_imageNtB5_20CargoImageImportOptsNtNtCs2aLnEu25Pl6_4clap6derive14FromArgMatches27update_from_arg_matches_mut
FN:48,_RNvXso_NtNtCs6wcrk8Qgr6W_6nanocl6models11cargo_imageNtB5_14CargoImageOptsNtNtCs2aLnEu25Pl6_4clap6derive14CommandFactory18command_for_update
FN:14,_RNvXs8_NtNtCs6wcrk8Qgr6W_6nanocl6models11cargo_imageNtB5_20CargoImageCreateOptsNtNtCs2aLnEu25Pl6_4clap6derive4Args8group_id
FN:24,_RNvXsg_NtNtCs6wcrk8Qgr6W_6nanocl6models11cargo_imageNtB5_18CargoImageCommandsNtNtCs2aLnEu25Pl6_4clap6derive10Subcommand30augment_subcommands_for_update
FN:19,_RNvXsc_NtNtCs6wcrk8Qgr6W_6nanocl6models11cargo_imageNtB5_21CargoImageInspectOptsNtNtCs2aLnEu25Pl6_4clap6derive14FromArgMatches27update_from_arg_matches_mut
FN:21,_RNCNvXsc_NtNtCs6wcrk8Qgr6W_6nanocl6models11cargo_imageNtB7_21CargoImageInspectOptsNtNtCs2aLnEu25Pl6_4clap6derive14FromArgMatches27update_from_arg_matches_mut0Bb_
FN:40,_RNvXsk_NtNtCs6wcrk8Qgr6W_6nanocl6models11cargo_imageNtB5_20CargoImageImportOptsNtNtCs2aLnEu25Pl6_4clap6derive14FromArgMatches16from_arg_matches
FN:6,_RNvXs_NtNtCs6wcrk8Qgr6W_6nanocl6models11cargo_imageNtB4_20CargoImageRemoveOptsNtNtCshYNBHIop811_4core3fmt5Debug3fmt
FN:40,_RNvXsj_NtNtCs6wcrk8Qgr6W_6nanocl6models11cargo_imageNtB5_20CargoImageImportOptsNtNtCs2aLnEu25Pl6_4clap6derive14CommandFactory18command_for_update
FN:40,_RNvXsh_NtNtCs6wcrk8Qgr6W_6nanocl6models11cargo_imageNtB5_20CargoImageImportOptsNtNtCshYNBHIop811_4core3fmt5Debug3fmt
FN:14,_RNvXs7_NtNtCs6wcrk8Qgr6W_6nanocl6models11cargo_imageNtB5_20CargoImageCreateOptsNtNtCs2aLnEu25Pl6_4clap6derive14FromArgMatches16from_arg_matches
FN:14,_RNvXs6_NtNtCs6wcrk8Qgr6W_6nanocl6models11cargo_imageNtB5_20CargoImageCreateOptsNtNtCs2aLnEu25Pl6_4clap6derive14CommandFactory7command
FN:19,_RNvXs9_NtNtCs6wcrk8Qgr6W_6nanocl6models11cargo_imageNtB5_21CargoImageInspectOptsNtNtCshYNBHIop811_4core3fmt5Debug3fmt
FN:44,_RNCNvXsk_NtNtCs6wcrk8Qgr6W_6nanocl6models11cargo_imageNtB7_20CargoImageImportOptsNtNtCs2aLnEu25Pl6_4clap6derive14FromArgMatches27update_from_arg_matches_mut0Bb_
FN:9,_RNCNvXs2_NtNtCs6wcrk8Qgr6W_6nanocl6models11cargo_imageNtB7_20CargoImageRemoveOptsNtNtCs2aLnEu25Pl6_4clap6derive14FromArgMatches27update_from_arg_matches_mut0Bb_
FN:19,_RNvXsc_NtNtCs6wcrk8Qgr6W_6nanocl6models11cargo_imageNtB5_21CargoImageInspectOptsNtNtCs2aLnEu25Pl6_4clap6derive14FromArgMatches16from_arg_matches
FN:40,_RNvXsl_NtNtCs6wcrk8Qgr6W_6nanocl6models11cargo_imageNtB5_20CargoImageImportOptsNtNtCs2aLnEu25Pl6_4clap6derive4Args8group_id
FN:11,_RNCNvXs2_NtNtCs6wcrk8Qgr6W_6nanocl6models11cargo_imageNtB7_20CargoImageRemoveOptsNtNtCs2aLnEu25Pl6_4clap6derive14FromArgMatches27update_from_arg_matches_muts_0Bb_
FN:6,_RNvXs2_NtNtCs6wcrk8Qgr6W_6nanocl6models11cargo_imageNtB5_20CargoImageRemoveOptsNtNtCs2aLnEu25Pl6_4clap6derive14FromArgMatches23update_from_arg_matches
FN:19,_RNvXsd_NtNtCs6wcrk8Qgr6W_6nanocl6models11cargo_imageNtB5_21CargoImageInspectOptsNtNtCs2aLnEu25Pl6_4clap6derive4Args8group_id
FN:14,_RNvXs7_NtNtCs6wcrk8Qgr6W_6nanocl6models11cargo_imageNtB5_20CargoImageCreateOptsNtNtCs2aLnEu25Pl6_4clap6derive14FromArgMatches27update_from_arg_matches_mut
FN:40,_RNvXsj_NtNtCs6wcrk8Qgr6W_6nanocl6models11cargo_imageNtB5_20CargoImageImportOptsNtNtCs2aLnEu25Pl6_4clap6derive14CommandFactory7command
FN:6,_RNvXs2_NtNtCs6wcrk8Qgr6W_6nanocl6models11cargo_imageNtB5_20CargoImageRemoveOptsNtNtCs2aLnEu25Pl6_4clap6derive14FromArgMatches16from_arg_matches
FN:19,_RNvXsb_NtNtCs6wcrk8Qgr6W_6nanocl6models11cargo_imageNtB5_21CargoImageInspectOptsNtNtCs2aLnEu25Pl6_4clap6derive14CommandFactory7command
FN:6,_RNvXs1_NtNtCs6wcrk8Qgr6W_6nanocl6models11cargo_imageNtB5_20CargoImageRemoveOptsNtNtCs2aLnEu25Pl6_4clap6derive14CommandFactory18command_for_update
FN:40,_RNvXsl_NtNtCs6wcrk8Qgr6W_6nanocl6models11cargo_imageNtB5_20CargoImageImportOptsNtNtCs2aLnEu25Pl6_4clap6derive4Args23augment_args_for_update
FN:48,_RNvXsq_NtNtCs6wcrk8Qgr6W_6nanocl6models11cargo_imageNtB5_14CargoImageOptsNtNtCs2aLnEu25Pl6_4clap6derive4Args23augment_args_for_update
FN:44,_RNCNvXsk_NtNtCs6wcrk8Qgr6W_6nanocl6models11cargo_imageNtB7_20CargoImageImportOptsNtNtCs2aLnEu25Pl6_4clap6derive14FromArgMatches20from_arg_matches_mut0Bb_
FN:24,_RNvXsg_NtNtCs6wcrk8Qgr6W_6nanocl6models11cargo_imageNtB5_18CargoImageCommandsNtNtCs2aLnEu25Pl6_4clap6derive10Subcommand19augment_subcommands
FN:9,_RNCNvXs2_NtNtCs6wcrk8Qgr6W_6nanocl6models11cargo_imageNtB7_20CargoImageRemoveOptsNtNtCs2aLnEu25Pl6_4clap6derive14FromArgMatches20from_arg_matches_mut0Bb_
FN:40,_RNvXsl_NtNtCs6wcrk8Qgr6W_6nanocl6models11cargo_imageNtB5_20CargoImageImportOptsNtNtCs2aLnEu25Pl6_4clap6derive4Args12augment_args
FN:14,_RNvXs7_NtNtCs6wcrk8Qgr6W_6nanocl6models11cargo_imageNtB5_20CargoImageCreateOptsNtNtCs2aLnEu25Pl6_4clap6derive14FromArgMatches20from_arg_matches_mut
FN:16,_RNCNvXs7_NtNtCs6wcrk8Qgr6W_6nanocl6models11cargo_imageNtB7_20CargoImageCreateOptsNtNtCs2aLnEu25Pl6_4clap6derive14FromArgMatches20from_arg_matches_mut0Bb_
FN:73,_RNvXNtNtCs6wcrk8Qgr6W_6nanocl6models11cargo_imageNtB2_13CargoImageRowINtNtCshYNBHIop811_4core7convert4FromNtNtCsie9iFrSfWVE_18bollard_next_stubs6models12ImageSummaryE4from
FN:19,_RNvXsd_NtNtCs6wcrk8Qgr6W_6nanocl6models11cargo_imageNtB5_21CargoImageInspectOptsNtNtCs2aLnEu25Pl6_4clap6derive4Args12augment_args
FN:55,_RNvXsr_NtNtCs6wcrk8Qgr6W_6nanocl6models11cargo_imageNtB5_13CargoImageRowNtNtCsjra9mVSv54w_6tabled6tabled6Tabled7headers
FN:6,_RNvXs2_NtNtCs6wcrk8Qgr6W_6nanocl6models11cargo_imageNtB5_20CargoImageRemoveOptsNtNtCs2aLnEu25Pl6_4clap6derive14FromArgMatches20from_arg_matches_mut
FN:11,_RNCNvXs2_NtNtCs6wcrk8Qgr6W_6nanocl6models11cargo_imageNtB7_20CargoImageRemoveOptsNtNtCs2aLnEu25Pl6_4clap6derive14FromArgMatches20from_arg_matches_muts_0Bb_
FN:64,_RNvNtNtCs6wcrk8Qgr6W_6nanocl6models11cargo_image12convert_size
FN:24,_RNvXsf_NtNtCs6wcrk8Qgr6W_6nanocl6models11cargo_imageNtB5_18CargoImageCommandsNtNtCs2aLnEu25Pl6_4clap6derive14FromArgMatches20from_arg_matches_mut
FN:48,_RNvXsp_NtNtCs6wcrk8Qgr6W_6nanocl6models11cargo_imageNtB5_14CargoImageOptsNtNtCs2aLnEu25Pl6_4clap6derive14FromArgMatches20from_arg_matches_mut
FN:14,_RNvXs8_NtNtCs6wcrk8Qgr6W_6nanocl6models11cargo_imageNtB5_20CargoImageCreateOptsNtNtCs2aLnEu25Pl6_4clap6derive4Args12augment_args
FN:40,_RNvXsk_NtNtCs6wcrk8Qgr6W_6nanocl6models11cargo_imageNtB5_20CargoImageImportOptsNtNtCs2aLnEu25Pl6_4clap6derive14FromArgMatches20from_arg_matches_mut
FN:6,_RNvXs3_NtNtCs6wcrk8Qgr6W_6nanocl6models11cargo_imageNtB5_20CargoImageRemoveOptsNtNtCs2aLnEu25Pl6_4clap6derive4Args12augment_args
FN:48,_RNvXsq_NtNtCs6wcrk8Qgr6W_6nanocl6models11cargo_imageNtB5_14CargoImageOptsNtNtCs2aLnEu25Pl6_4clap6derive4Args12augment_args
FN:55,_RNvXsr_NtNtCs6wcrk8Qgr6W_6nanocl6models11cargo_imageNtB5_13CargoImageRowNtNtCsjra9mVSv54w_6tabled6tabled6Tabled6fields
FN:19,_RNvXsc_NtNtCs6wcrk8Qgr6W_6nanocl6models11cargo_imageNtB5_21CargoImageInspectOptsNtNtCs2aLnEu25Pl6_4clap6derive14FromArgMatches20from_arg_matches_mut
FN:21,_RNCNvXsc_NtNtCs6wcrk8Qgr6W_6nanocl6models11cargo_imageNtB7_21CargoImageInspectOptsNtNtCs2aLnEu25Pl6_4clap6derive14FromArgMatches20from_arg_matches_mut0Bb_
FNDA:0,_RNvXso_NtNtCs6wcrk8Qgr6W_6nanocl6models11cargo_imageNtB5_14CargoImageOptsNtNtCs2aLnEu25Pl6_4clap6derive14CommandFactory7command
FNDA:0,_RNvXsd_NtNtCs6wcrk8Qgr6W_6nanocl6models11cargo_imageNtB5_21CargoImageInspectOptsNtNtCs2aLnEu25Pl6_4clap6derive4Args23augment_args_for_update
FNDA:0,_RNvXs4_NtNtCs6wcrk8Qgr6W_6nanocl6models11cargo_imageNtB5_20CargoImageCreateOptsNtNtCshYNBHIop811_4core3fmt5Debug3fmt
FNDA:0,_RNvXsp_NtNtCs6wcrk8Qgr6W_6nanocl6models11cargo_imageNtB5_14CargoImageOptsNtNtCs2aLnEu25Pl6_4clap6derive14FromArgMatches27update_from_arg_matches_mut
FNDA:0,_RNvXsq_NtNtCs6wcrk8Qgr6W_6nanocl6models11cargo_imageNtB5_14CargoImageOptsNtNtCs2aLnEu25Pl6_4clap6derive4Args8group_id
FNDA:0,_RNvXsb_NtNtCs6wcrk8Qgr6W_6nanocl6models11cargo_imageNtB5_21CargoImageInspectOptsNtNtCs2aLnEu25Pl6_4clap6derive14CommandFactory18command_for_update
FNDA:0,_RNvXsf_NtNtCs6wcrk8Qgr6W_6nanocl6models11cargo_imageNtB5_18CargoImageCommandsNtNtCs2aLnEu25Pl6_4clap6derive14FromArgMatches16from_arg_matches
FNDA:0,_RNvXsp_NtNtCs6wcrk8Qgr6W_6nanocl6models11cargo_imageNtB5_14CargoImageOptsNtNtCs2aLnEu25Pl6_4clap6derive14FromArgMatches23update_from_arg_matches
FNDA:0,_RNvXs3_NtNtCs6wcrk8Qgr6W_6nanocl6models11cargo_imageNtB5_20CargoImageRemoveOptsNtNtCs2aLnEu25Pl6_4clap6derive4Args8group_id
FNDA:0,_RNvXsg_NtNtCs6wcrk8Qgr6W_6nanocl6models11cargo_imageNtB5_18CargoImageCommandsNtNtCs2aLnEu25Pl6_4clap6derive10Subcommand14has_subcommand
FNDA:0,_RNvXsk_NtNtCs6wcrk8Qgr6W_6nanocl6models11cargo_imageNtB5_20CargoImageImportOptsNtNtCs2aLnEu25Pl6_4clap6derive14FromArgMatches23update_from_arg_matches
FNDA:0,_RNvXs1_NtNtCs6wcrk8Qgr6W_6nanocl6models11cargo_imageNtB5_20CargoImageRemoveOptsNtNtCs2aLnEu25Pl6_4clap6derive14CommandFactory7command
FNDA:0,_RNvXsf_NtNtCs6wcrk8Qgr6W_6nanocl6models11cargo_imageNtB5_18CargoImageCommandsNtNtCs2aLnEu25Pl6_4clap6derive14FromArgMatches23update_from_arg_matches
FNDA:0,_RNvXs7_NtNtCs6wcrk8Qgr6W_6nanocl6models11cargo_imageNtB5_20CargoImageCreateOptsNtNtCs2aLnEu25Pl6_4clap6derive14FromArgMatches23update_from_arg_matches
FNDA:0,_RNvXs3_NtNtCs6wcrk8Qgr6W_6nanocl6models11cargo_imageNtB5_20CargoImageRemoveOptsNtNtCs2aLnEu25Pl6_4clap6derive4Args23augment_args_for_update
FNDA:0,_RNvXs2_NtNtCs6wcrk8Qgr6W_6nanocl6models11cargo_imageNtB5_20CargoImageRemoveOptsNtNtCs2aLnEu25Pl6_4clap6derive14FromArgMatches27update_from_arg_matches_mut
FNDA:0,_RNvXs8_NtNtCs6wcrk8Qgr6W_6nanocl6models11cargo_imageNtB5_20CargoImageCreateOptsNtNtCs2aLnEu25Pl6_4clap6derive4Args23augment_args_for_update
FNDA:0,_RNvXsm_NtNtCs6wcrk8Qgr6W_6nanocl6models11cargo_imageNtB5_14CargoImageOptsNtNtCshYNBHIop811_4core3fmt5Debug3fmt
FNDA:0,_RNvXsf_NtNtCs6wcrk8Qgr6W_6nanocl6models11cargo_imageNtB5_18CargoImageCommandsNtNtCs2aLnEu25Pl6_4clap6derive14FromArgMatches27update_from_arg_matches_mut
FNDA:0,_RNvXsc_NtNtCs6wcrk8Qgr6W_6nanocl6models11cargo_imageNtB5_21CargoImageInspectOptsNtNtCs2aLnEu25Pl6_4clap6derive14FromArgMatches23update_from_arg_matches
FNDA:0,_RNvXse_NtNtCs6wcrk8Qgr6W_6nanocl6models11cargo_imageNtB5_18CargoImageCommandsNtNtCshYNBHIop811_4core3fmt5Debug3fmt
FNDA:0,_RNvXs6_NtNtCs6wcrk8Qgr6W_6nanocl6models11cargo_imageNtB5_20CargoImageCreateOptsNtNtCs2aLnEu25Pl6_4clap6derive14CommandFactory18command_for_update
FNDA:0,_RNvXsp_NtNtCs6wcrk8Qgr6W_6nanocl6models11cargo_imageNtB5_14CargoImageOptsNtNtCs2aLnEu25Pl6_4clap6derive14FromArgMatches16from_arg_matches
FNDA:0,_RNCNvXs7_NtNtCs6wcrk8Qgr6W_6nanocl6models11cargo_imageNtB7_20CargoImageCreateOptsNtNtCs2aLnEu25Pl6_4clap6derive14FromArgMatches27update_from_arg_matches_mut0Bb_
FNDA:0,_RNvXsk_NtNtCs6wcrk8Qgr6W_6nanocl6models11cargo_imageNtB5_20CargoImageImportOptsNtNtCs2aLnEu25Pl6_4clap6derive14FromArgMatches27update_from_arg_matches_mut
FNDA:0,_RNvXso_NtNtCs6wcrk8Qgr6W_6nanocl6models11cargo_imageNtB5_14CargoImageOptsNtNtCs2aLnEu25Pl6_4clap6derive14CommandFactory18command_for_update
FNDA:0,_RNvXs8_NtNtCs6wcrk8Qgr6W_6nanocl6models11cargo_imageNtB5_20CargoImageCreateOptsNtNtCs2aLnEu25Pl6_4clap6derive4Args8group_id
FNDA:0,_RNvXsg_NtNtCs6wcrk8Qgr6W_6nanocl6models11cargo_imageNtB5_18CargoImageCommandsNtNtCs2aLnEu25Pl6_4clap6derive10Subcommand30augment_subcommands_for_update
FNDA:0,_RNvXsc_NtNtCs6wcrk8Qgr6W_6nanocl6models11cargo_imageNtB5_21CargoImageInspectOptsNtNtCs2aLnEu25Pl6_4clap6derive14FromArgMatches27update_from_arg_matches_mut
FNDA:0,_RNCNvXsc_NtNtCs6wcrk8Qgr6W_6nanocl6models11cargo_imageNtB7_21CargoImageInspectOptsNtNtCs2aLnEu25Pl6_4clap6derive14FromArgMatches27update_from_arg_matches_mut0Bb_
FNDA:0,_RNvXsk_NtNtCs6wcrk8Qgr6W_6nanocl6models11cargo_imageNtB5_20CargoImageImportOptsNtNtCs2aLnEu25Pl6_4clap6derive14FromArgMatches16from_arg_matches
FNDA:0,_RNvXs_NtNtCs6wcrk8Qgr6W_6nanocl6models11cargo_imageNtB4_20CargoImageRemoveOptsNtNtCshYNBHIop811_4core3fmt5Debug3fmt
FNDA:0,_RNvXsj_NtNtCs6wcrk8Qgr6W_6nanocl6models11cargo_imageNtB5_20CargoImageImportOptsNtNtCs2aLnEu25Pl6_4clap6derive14CommandFactory18command_for_update
FNDA:0,_RNvXsh_NtNtCs6wcrk8Qgr6W_6nanocl6models11cargo_imageNtB5_20CargoImageImportOptsNtNtCshYNBHIop811_4core3fmt5Debug3fmt
FNDA:0,_RNvXs7_NtNtCs6wcrk8Qgr6W_6nanocl6models11cargo_imageNtB5_20CargoImageCreateOptsNtNtCs2aLnEu25Pl6_4clap6derive14FromArgMatches16from_arg_matches
FNDA:0,_RNvXs6_NtNtCs6wcrk8Qgr6W_6nanocl6models11cargo_imageNtB5_20CargoImageCreateOptsNtNtCs2aLnEu25Pl6_4clap6derive14CommandFactory7command
FNDA:0,_RNvXs9_NtNtCs6wcrk8Qgr6W_6nanocl6models11cargo_imageNtB5_21CargoImageInspectOptsNtNtCshYNBHIop811_4core3fmt5Debug3fmt
FNDA:0,_RNCNvXsk_NtNtCs6wcrk8Qgr6W_6nanocl6models11cargo_imageNtB7_20CargoImageImportOptsNtNtCs2aLnEu25Pl6_4clap6derive14FromArgMatches27update_from_arg_matches_mut0Bb_
FNDA:0,_RNCNvXs2_NtNtCs6wcrk8Qgr6W_6nanocl6models11cargo_imageNtB7_20CargoImageRemoveOptsNtNtCs2aLnEu25Pl6_4clap6derive14FromArgMatches27update_from_arg_matches_mut0Bb_
FNDA:0,_RNvXsc_NtNtCs6wcrk8Qgr6W_6nanocl6models11cargo_imageNtB5_21CargoImageInspectOptsNtNtCs2aLnEu25Pl6_4clap6derive14FromArgMatches16from_arg_matches
FNDA:0,_RNvXsl_NtNtCs6wcrk8Qgr6W_6nanocl6models11cargo_imageNtB5_20CargoImageImportOptsNtNtCs2aLnEu25Pl6_4clap6derive4Args8group_id
FNDA:0,_RNCNvXs2_NtNtCs6wcrk8Qgr6W_6nanocl6models11cargo_imageNtB7_20CargoImageRemoveOptsNtNtCs2aLnEu25Pl6_4clap6derive14FromArgMatches27update_from_arg_matches_muts_0Bb_
FNDA:0,_RNvXs2_NtNtCs6wcrk8Qgr6W_6nanocl6models11cargo_imageNtB5_20CargoImageRemoveOptsNtNtCs2aLnEu25Pl6_4clap6derive14FromArgMatches23update_from_arg_matches
FNDA:0,_RNvXsd_NtNtCs6wcrk8Qgr6W_6nanocl6models11cargo_imageNtB5_21CargoImageInspectOptsNtNtCs2aLnEu25Pl6_4clap6derive4Args8group_id
FNDA:0,_RNvXs7_NtNtCs6wcrk8Qgr6W_6nanocl6models11cargo_imageNtB5_20CargoImageCreateOptsNtNtCs2aLnEu25Pl6_4clap6derive14FromArgMatches27update_from_arg_matches_mut
FNDA:0,_RNvXsj_NtNtCs6wcrk8Qgr6W_6nanocl6models11cargo_imageNtB5_20CargoImageImportOptsNtNtCs2aLnEu25Pl6_4clap6derive14CommandFactory7command
FNDA:0,_RNvXs2_NtNtCs6wcrk8Qgr6W_6nanocl6models11cargo_imageNtB5_20CargoImageRemoveOptsNtNtCs2aLnEu25Pl6_4clap6derive14FromArgMatches16from_arg_matches
FNDA:0,_RNvXsb_NtNtCs6wcrk8Qgr6W_6nanocl6models11cargo_imageNtB5_21CargoImageInspectOptsNtNtCs2aLnEu25Pl6_4clap6derive14CommandFactory7command
FNDA:0,_RNvXs1_NtNtCs6wcrk8Qgr6W_6nanocl6models11cargo_imageNtB5_20CargoImageRemoveOptsNtNtCs2aLnEu25Pl6_4clap6derive14CommandFactory18command_for_update
FNDA:0,_RNvXsl_NtNtCs6wcrk8Qgr6W_6nanocl6models11cargo_imageNtB5_20CargoImageImportOptsNtNtCs2aLnEu25Pl6_4clap6derive4Args23augment_args_for_update
FNDA:0,_RNvXsq_NtNtCs6wcrk8Qgr6W_6nanocl6models11cargo_imageNtB5_14CargoImageOptsNtNtCs2aLnEu25Pl6_4clap6derive4Args23augment_args_for_update
FNDA:0,_RNCNvXsk_NtNtCs6wcrk8Qgr6W_6nanocl6models11cargo_imageNtB7_20CargoImageImportOptsNtNtCs2aLnEu25Pl6_4clap6derive14FromArgMatches20from_arg_matches_mut0Bb_
FNDA:37,_RNvXsg_NtNtCs6wcrk8Qgr6W_6nanocl6models11cargo_imageNtB5_18CargoImageCommandsNtNtCs2aLnEu25Pl6_4clap6derive10Subcommand19augment_subcommands
FNDA:0,_RNCNvXs2_NtNtCs6wcrk8Qgr6W_6nanocl6models11cargo_imageNtB7_20CargoImageRemoveOptsNtNtCs2aLnEu25Pl6_4clap6derive14FromArgMatches20from_arg_matches_mut0Bb_
FNDA:37,_RNvXsl_NtNtCs6wcrk8Qgr6W_6nanocl6models11cargo_imageNtB5_20CargoImageImportOptsNtNtCs2aLnEu25Pl6_4clap6derive4Args12augment_args
FNDA:1,_RNvXs7_NtNtCs6wcrk8Qgr6W_6nanocl6models11cargo_imageNtB5_20CargoImageCreateOptsNtNtCs2aLnEu25Pl6_4clap6derive14FromArgMatches20from_arg_matches_mut
FNDA:0,_RNCNvXs7_NtNtCs6wcrk8Qgr6W_6nanocl6models11cargo_imageNtB7_20CargoImageCreateOptsNtNtCs2aLnEu25Pl6_4clap6derive14FromArgMatches20from_arg_matches_mut0Bb_
FNDA:282,_RNvXNtNtCs6wcrk8Qgr6W_6nanocl6models11cargo_imageNtB2_13CargoImageRowINtNtCshYNBHIop811_4core7convert4FromNtNtCsie9iFrSfWVE_18bollard_next_stubs6models12ImageSummaryE4from
FNDA:37,_RNvXsd_NtNtCs6wcrk8Qgr6W_6nanocl6models11cargo_imageNtB5_21CargoImageInspectOptsNtNtCs2aLnEu25Pl6_4clap6derive4Args12augment_args
FNDA:1,_RNvXsr_NtNtCs6wcrk8Qgr6W_6nanocl6models11cargo_imageNtB5_13CargoImageRowNtNtCsjra9mVSv54w_6tabled6tabled6Tabled7headers
FNDA:1,_RNvXs2_NtNtCs6wcrk8Qgr6W_6nanocl6models11cargo_imageNtB5_20CargoImageRemoveOptsNtNtCs2aLnEu25Pl6_4clap6derive14FromArgMatches20from_arg_matches_mut
FNDA:1,_RNCNvXs2_NtNtCs6wcrk8Qgr6W_6nanocl6models11cargo_imageNtB7_20CargoImageRemoveOptsNtNtCs2aLnEu25Pl6_4clap6derive14FromArgMatches20from_arg_matches_muts_0Bb_
FNDA:282,_RNvNtNtCs6wcrk8Qgr6W_6nanocl6models11cargo_image12convert_size
FNDA:0,_RNvXsf_NtNtCs6wcrk8Qgr6W_6nanocl6models11cargo_imageNtB5_18CargoImageCommandsNtNtCs2aLnEu25Pl6_4clap6derive14FromArgMatches20from_arg_matches_mut
FNDA:5,_RNvXsp_NtNtCs6wcrk8Qgr6W_6nanocl6models11cargo_imageNtB5_14CargoImageOptsNtNtCs2aLnEu25Pl6_4clap6derive14FromArgMatches20from_arg_matches_mut
FNDA:37,_RNvXs8_NtNtCs6wcrk8Qgr6W_6nanocl6models11cargo_imageNtB5_20CargoImageCreateOptsNtNtCs2aLnEu25Pl6_4clap6derive4Args12augment_args
FNDA:1,_RNvXsk_NtNtCs6wcrk8Qgr6W_6nanocl6models11cargo_imageNtB5_20CargoImageImportOptsNtNtCs2aLnEu25Pl6_4clap6derive14FromArgMatches20from_arg_matches_mut
FNDA:37,_RNvXs3_NtNtCs6wcrk8Qgr6W_6nanocl6models11cargo_imageNtB5_20CargoImageRemoveOptsNtNtCs2aLnEu25Pl6_4clap6derive4Args12augment_args
FNDA:37,_RNvXsq_NtNtCs6wcrk8Qgr6W_6nanocl6models11cargo_imageNtB5_14CargoImageOptsNtNtCs2aLnEu25Pl6_4clap6derive4Args12augment_args
FNDA:282,_RNvXsr_NtNtCs6wcrk8Qgr6W_6nanocl6models11cargo_imageNtB5_13CargoImageRowNtNtCsjra9mVSv54w_6tabled6tabled6Tabled6fields
FNDA:1,_RNvXsc_NtNtCs6wcrk8Qgr6W_6nanocl6models11cargo_imageNtB5_21CargoImageInspectOptsNtNtCs2aLnEu25Pl6_4clap6derive14FromArgMatches20from_arg_matches_mut
FNDA:0,_RNCNvXsc_NtNtCs6wcrk8Qgr6W_6nanocl6models11cargo_imageNtB7_21CargoImageInspectOptsNtNtCs2aLnEu25Pl6_4clap6derive14FromArgMatches20from_arg_matches_mut0Bb_
FNF:20
FNH:10
DA:6,38
DA:9,0
DA:10,0
DA:11,1
DA:14,38
DA:16,0
DA:19,38
DA:21,0
DA:24,15
DA:40,38
DA:44,0
DA:48,5
DA:55,283
DA:64,282
DA:65,282
DA:66,15
DA:68,267
DA:70,282
DA:73,282
DA:74,282
DA:75,282
DA:76,282
DA:77,282
DA:78,282
DA:79,282
DA:80,282
DA:81,282
DA:82,282
DA:83,282
DA:84,282
DA:85,282
DA:86,282
DA:87,282
DA:88,282
DA:89,282
DA:90,282
DA:91,282
DA:92,282
BRF:0
BRH:0
LF:44
LH:33
end_of_record
SF:/home/leone/Documents/next-hat/nanocl/bin/nanocl/src/models/mod.rs
FN:26,_RNvXs1_NtCs6wcrk8Qgr6W_6nanocl6modelsNtB5_3CliNtNtCs2aLnEu25Pl6_4clap6derive14FromArgMatches27update_from_arg_matches_mut
FN:37,_RNvXs5_NtCs6wcrk8Qgr6W_6nanocl6modelsNtB5_8CommandsNtNtCs2aLnEu25Pl6_4clap6derive10Subcommand30augment_subcommands_for_update
FN:37,_RNvXs4_NtCs6wcrk8Qgr6W_6nanocl6modelsNtB5_8CommandsNtNtCs2aLnEu25Pl6_4clap6derive14FromArgMatches27update_from_arg_matches_mut
FN:31,_RNCNvXs1_NtCs6wcrk8Qgr6W_6nanocl6modelsNtB7_3CliNtNtCs2aLnEu25Pl6_4clap6derive14FromArgMatches27update_from_arg_matches_mut0B9_
FN:37,_RNvXs5_NtCs6wcrk8Qgr6W_6nanocl6modelsNtB5_8CommandsNtNtCs2aLnEu25Pl6_4clap6derive10Subcommand14has_subcommand
FN:37,_RNvXs4_NtCs6wcrk8Qgr6W_6nanocl6modelsNtB5_8CommandsNtNtCs2aLnEu25Pl6_4clap6derive14FromArgMatches23update_from_arg_matches
FN:26,_RNvXs0_NtCs6wcrk8Qgr6W_6nanocl6modelsNtB5_3CliNtNtCs2aLnEu25Pl6_4clap6derive14CommandFactory18command_for_update
FN:37,_RNvXs3_NtCs6wcrk8Qgr6W_6nanocl6modelsNtB5_8CommandsNtNtCshYNBHIop811_4core3fmt5Debug3fmt
FN:26,_RNvXs2_NtCs6wcrk8Qgr6W_6nanocl6modelsNtB5_3CliNtNtCs2aLnEu25Pl6_4clap6derive4Args8group_id
FN:37,_RNvXs4_NtCs6wcrk8Qgr6W_6nanocl6modelsNtB5_8CommandsNtNtCs2aLnEu25Pl6_4clap6derive14FromArgMatches16from_arg_matches
FN:26,_RNvXs1_NtCs6wcrk8Qgr6W_6nanocl6modelsNtB5_3CliNtNtCs2aLnEu25Pl6_4clap6derive14FromArgMatches23update_from_arg_matches
FN:26,_RNvXs2_NtCs6wcrk8Qgr6W_6nanocl6modelsNtB5_3CliNtNtCs2aLnEu25Pl6_4clap6derive4Args23augment_args_for_update
FN:26,_RNvXNtCs6wcrk8Qgr6W_6nanocl6modelsNtB2_3CliNtNtCshYNBHIop811_4core3fmt5Debug3fmt
FN:26,_RNvXs1_NtCs6wcrk8Qgr6W_6nanocl6modelsNtB5_3CliNtNtCs2aLnEu25Pl6_4clap6derive14FromArgMatches16from_arg_matches
FN:26,_RNvXs0_NtCs6wcrk8Qgr6W_6nanocl6modelsNtB5_3CliNtNtCs2aLnEu25Pl6_4clap6derive14CommandFactory7command
FN:37,_RNvXs5_NtCs6wcrk8Qgr6W_6nanocl6modelsNtB5_8CommandsNtNtCs2aLnEu25Pl6_4clap6derive10Subcommand19augment_subcommands
FN:26,_RNvXs1_NtCs6wcrk8Qgr6W_6nanocl6modelsNtB5_3CliNtNtCs2aLnEu25Pl6_4clap6derive14FromArgMatches20from_arg_matches_mut
FN:26,_RNvXs2_NtCs6wcrk8Qgr6W_6nanocl6modelsNtB5_3CliNtNtCs2aLnEu25Pl6_4clap6derive4Args12augment_args
FN:31,_RNCNvXs1_NtCs6wcrk8Qgr6W_6nanocl6modelsNtB7_3CliNtNtCs2aLnEu25Pl6_4clap6derive14FromArgMatches20from_arg_matches_mut0B9_
FN:37,_RNvXs4_NtCs6wcrk8Qgr6W_6nanocl6modelsNtB5_8CommandsNtNtCs2aLnEu25Pl6_4clap6derive14FromArgMatches20from_arg_matches_mut
FNDA:0,_RNvXs1_NtCs6wcrk8Qgr6W_6nanocl6modelsNtB5_3CliNtNtCs2aLnEu25Pl6_4clap6derive14FromArgMatches27update_from_arg_matches_mut
FNDA:0,_RNvXs5_NtCs6wcrk8Qgr6W_6nanocl6modelsNtB5_8CommandsNtNtCs2aLnEu25Pl6_4clap6derive10Subcommand30augment_subcommands_for_update
FNDA:0,_RNvXs4_NtCs6wcrk8Qgr6W_6nanocl6modelsNtB5_8CommandsNtNtCs2aLnEu25Pl6_4clap6derive14FromArgMatches27update_from_arg_matches_mut
FNDA:0,_RNCNvXs1_NtCs6wcrk8Qgr6W_6nanocl6modelsNtB7_3CliNtNtCs2aLnEu25Pl6_4clap6derive14FromArgMatches27update_from_arg_matches_mut0B9_
FNDA:0,_RNvXs5_NtCs6wcrk8Qgr6W_6nanocl6modelsNtB5_8CommandsNtNtCs2aLnEu25Pl6_4clap6derive10Subcommand14has_subcommand
FNDA:0,_RNvXs4_NtCs6wcrk8Qgr6W_6nanocl6modelsNtB5_8CommandsNtNtCs2aLnEu25Pl6_4clap6derive14FromArgMatches23update_from_arg_matches
FNDA:0,_RNvXs0_NtCs6wcrk8Qgr6W_6nanocl6modelsNtB5_3CliNtNtCs2aLnEu25Pl6_4clap6derive14CommandFactory18command_for_update
FNDA:0,_RNvXs3_NtCs6wcrk8Qgr6W_6nanocl6modelsNtB5_8CommandsNtNtCshYNBHIop811_4core3fmt5Debug3fmt
FNDA:0,_RNvXs2_NtCs6wcrk8Qgr6W_6nanocl6modelsNtB5_3CliNtNtCs2aLnEu25Pl6_4clap6derive4Args8group_id
FNDA:0,_RNvXs4_NtCs6wcrk8Qgr6W_6nanocl6modelsNtB5_8CommandsNtNtCs2aLnEu25Pl6_4clap6derive14FromArgMatches16from_arg_matches
FNDA:0,_RNvXs1_NtCs6wcrk8Qgr6W_6nanocl6modelsNtB5_3CliNtNtCs2aLnEu25Pl6_4clap6derive14FromArgMatches23update_from_arg_matches
FNDA:0,_RNvXs2_NtCs6wcrk8Qgr6W_6nanocl6modelsNtB5_3CliNtNtCs2aLnEu25Pl6_4clap6derive4Args23augment_args_for_update
FNDA:0,_RNvXNtCs6wcrk8Qgr6W_6nanocl6modelsNtB2_3CliNtNtCshYNBHIop811_4core3fmt5Debug3fmt
FNDA:0,_RNvXs1_NtCs6wcrk8Qgr6W_6nanocl6modelsNtB5_3CliNtNtCs2aLnEu25Pl6_4clap6derive14FromArgMatches16from_arg_matches
FNDA:37,_RNvXs0_NtCs6wcrk8Qgr6W_6nanocl6modelsNtB5_3CliNtNtCs2aLnEu25Pl6_4clap6derive14CommandFactory7command
FNDA:37,_RNvXs5_NtCs6wcrk8Qgr6W_6nanocl6modelsNtB5_8CommandsNtNtCs2aLnEu25Pl6_4clap6derive10Subcommand19augment_subcommands
FNDA:37,_RNvXs1_NtCs6wcrk8Qgr6W_6nanocl6modelsNtB5_3CliNtNtCs2aLnEu25Pl6_4clap6derive14FromArgMatches20from_arg_matches_mut
FNDA:37,_RNvXs2_NtCs6wcrk8Qgr6W_6nanocl6modelsNtB5_3CliNtNtCs2aLnEu25Pl6_4clap6derive4Args12augment_args
FNDA:0,_RNCNvXs1_NtCs6wcrk8Qgr6W_6nanocl6modelsNtB7_3CliNtNtCs2aLnEu25Pl6_4clap6derive14FromArgMatches20from_arg_matches_mut0B9_
FNDA:0,_RNvXs4_NtCs6wcrk8Qgr6W_6nanocl6modelsNtB5_8CommandsNtNtCs2aLnEu25Pl6_4clap6derive14FromArgMatches20from_arg_matches_mut
FNF:5
FNH:2
DA:26,74
DA:31,0
DA:37,123
BRF:0
BRH:0
LF:5
LH:2
end_of_record
SF:/home/leone/Documents/next-hat/nanocl/bin/nanocl/src/models/namespace.rs
FN:38,_RNvXsc_NtNtCs6wcrk8Qgr6W_6nanocl6models9namespaceNtB5_13NamespaceOptsNtNtCshYNBHIop811_4core3fmt5Debug3fmt
FN:21,_RNvXs2_NtNtCs6wcrk8Qgr6W_6nanocl6models9namespaceNtB5_19NamespaceDeleteOptsNtNtCshYNBHIop811_4core3fmt5Debug3fmt
FN:31,_RNvXs7_NtNtCs6wcrk8Qgr6W_6nanocl6models9namespaceNtB5_13NamespaceArgsNtNtCshYNBHIop811_4core3fmt5Debug3fmt
FN:21,_RNvXs5_NtNtCs6wcrk8Qgr6W_6nanocl6models9namespaceNtB5_19NamespaceDeleteOptsNtNtCs2aLnEu25Pl6_4clap6derive14FromArgMatches16from_arg_matches
FN:31,_RNvXsa_NtNtCs6wcrk8Qgr6W_6nanocl6models9namespaceNtB5_13NamespaceArgsNtNtCs2aLnEu25Pl6_4clap6derive14FromArgMatches23update_from_arg_matches
FN:25,_RNCNvXs5_NtNtCs6wcrk8Qgr6W_6nanocl6models9namespaceNtB7_19NamespaceDeleteOptsNtNtCs2aLnEu25Pl6_4clap6derive14FromArgMatches27update_from_arg_matches_mut0Bb_
FN:38,_RNvXsg_NtNtCs6wcrk8Qgr6W_6nanocl6models9namespaceNtB5_13NamespaceOptsNtNtCs2aLnEu25Pl6_4clap6derive4Args8group_id
FN:7,_RNvXs1_NtNtCs6wcrk8Qgr6W_6nanocl6models9namespaceNtB5_17NamespaceCommandsNtNtCs2aLnEu25Pl6_4clap6derive10Subcommand14has_subcommand
FN:38,_RNvXsg_NtNtCs6wcrk8Qgr6W_6nanocl6models9namespaceNtB5_13NamespaceOptsNtNtCs2aLnEu25Pl6_4clap6derive4Args23augment_args_for_update
FN:38,_RNvXse_NtNtCs6wcrk8Qgr6W_6nanocl6models9namespaceNtB5_13NamespaceOptsNtNtCs2aLnEu25Pl6_4clap6derive14CommandFactory18command_for_update
FN:31,_RNvXsa_NtNtCs6wcrk8Qgr6W_6nanocl6models9namespaceNtB5_13NamespaceArgsNtNtCs2aLnEu25Pl6_4clap6derive14FromArgMatches16from_arg_matches
FN:7,_RNvXs0_NtNtCs6wcrk8Qgr6W_6nanocl6models9namespaceNtB5_17NamespaceCommandsNtNtCs2aLnEu25Pl6_4clap6derive14FromArgMatches16from_arg_matches
FN:27,_RNCNvXs5_NtNtCs6wcrk8Qgr6W_6nanocl6models9namespaceNtB7_19NamespaceDeleteOptsNtNtCs2aLnEu25Pl6_4clap6derive14FromArgMatches27update_from_arg_matches_muts_0Bb_
FN:21,_RNvXs5_NtNtCs6wcrk8Qgr6W_6nanocl6models9namespaceNtB5_19NamespaceDeleteOptsNtNtCs2aLnEu25Pl6_4clap6derive14FromArgMatches27update_from_arg_matches_mut
FN:41,_RNCNvXsf_NtNtCs6wcrk8Qgr6W_6nanocl6models9namespaceNtB7_13NamespaceOptsNtNtCs2aLnEu25Pl6_4clap6derive14FromArgMatches27update_from_arg_matches_mut0Bb_
FN:21,_RNvXs6_NtNtCs6wcrk8Qgr6W_6nanocl6models9namespaceNtB5_19NamespaceDeleteOptsNtNtCs2aLnEu25Pl6_4clap6derive4Args23augment_args_for_update
FN:38,_RNvXsf_NtNtCs6wcrk8Qgr6W_6nanocl6models9namespaceNtB5_13NamespaceOptsNtNtCs2aLnEu25Pl6_4clap6derive14FromArgMatches23update_from_arg_matches
FN:38,_RNvXsf_NtNtCs6wcrk8Qgr6W_6nanocl6models9namespaceNtB5_13NamespaceOptsNtNtCs2aLnEu25Pl6_4clap6derive14FromArgMatches16from_arg_matches
FN:38,_RNvXse_NtNtCs6wcrk8Qgr6W_6nanocl6models9namespaceNtB5_13NamespaceOptsNtNtCs2aLnEu25Pl6_4clap6derive14CommandFactory7command
FN:21,_RNvXs6_NtNtCs6wcrk8Qgr6W_6nanocl6models9namespaceNtB5_19NamespaceDeleteOptsNtNtCs2aLnEu25Pl6_4clap6derive4Args8group_id
FN:7,_RNvXs0_NtNtCs6wcrk8Qgr6W_6nanocl6models9namespaceNtB5_17NamespaceCommandsNtNtCs2aLnEu25Pl6_4clap6derive14FromArgMatches27update_from_arg_matches_mut
FN:31,_RNvXsa_NtNtCs6wcrk8Qgr6W_6nanocl6models9namespaceNtB5_13NamespaceArgsNtNtCs2aLnEu25Pl6_4clap6derive14FromArgMatches27update_from_arg_matches_mut
FN:7,_RNvXs_NtNtCs6wcrk8Qgr6W_6nanocl6models9namespaceNtB4_17NamespaceCommandsNtNtCshYNBHIop811_4core3fmt5Debug3fmt
FN:21,_RNvXs4_NtNtCs6wcrk8Qgr6W_6nanocl6models9namespaceNtB5_19NamespaceDeleteOptsNtNtCs2aLnEu25Pl6_4clap6derive14CommandFactory7command
FN:31,_RNvXs9_NtNtCs6wcrk8Qgr6W_6nanocl6models9namespaceNtB5_13NamespaceArgsNtNtCs2aLnEu25Pl6_4clap6derive14CommandFactory7command
FN:31,_RNvXsb_NtNtCs6wcrk8Qgr6W_6nanocl6models9namespaceNtB5_13NamespaceArgsNtNtCs2aLnEu25Pl6_4clap6derive4Args8group_id
FN:31,_RNvXs9_NtNtCs6wcrk8Qgr6W_6nanocl6models9namespaceNtB5_13NamespaceArgsNtNtCs2aLnEu25Pl6_4clap6derive14CommandFactory18command_for_update
FN:7,_RNvXs1_NtNtCs6wcrk8Qgr6W_6nanocl6models9namespaceNtB5_17NamespaceCommandsNtNtCs2aLnEu25Pl6_4clap6derive10Subcommand30augment_subcommands_for_update
FN:21,_RNvXs4_NtNtCs6wcrk8Qgr6W_6nanocl6models9namespaceNtB5_19NamespaceDeleteOptsNtNtCs2aLnEu25Pl6_4clap6derive14CommandFactory18command_for_update
FN:38,_RNvXsf_NtNtCs6wcrk8Qgr6W_6nanocl6models9namespaceNtB5_13NamespaceOptsNtNtCs2aLnEu25Pl6_4clap6derive14FromArgMatches27update_from_arg_matches_mut
FN:7,_RNvXs0_NtNtCs6wcrk8Qgr6W_6nanocl6models9namespaceNtB5_17NamespaceCommandsNtNtCs2aLnEu25Pl6_4clap6derive14FromArgMatches23update_from_arg_matches
FN:21,_RNvXs5_NtNtCs6wcrk8Qgr6W_6nanocl6models9namespaceNtB5_19NamespaceDeleteOptsNtNtCs2aLnEu25Pl6_4clap6derive14FromArgMatches23update_from_arg_matches
FN:31,_RNvXsb_NtNtCs6wcrk8Qgr6W_6nanocl6models9namespaceNtB5_13NamespaceArgsNtNtCs2aLnEu25Pl6_4clap6derive4Args23augment_args_for_update
FN:38,_RNvXsf_NtNtCs6wcrk8Qgr6W_6nanocl6models9namespaceNtB5_13NamespaceOptsNtNtCs2aLnEu25Pl6_4clap6derive14FromArgMatches20from_arg_matches_mut
FN:38,_RNvXsg_NtNtCs6wcrk8Qgr6W_6nanocl6models9namespaceNtB5_13NamespaceOptsNtNtCs2aLnEu25Pl6_4clap6derive4Args12augment_args
FN:21,_RNvXs5_NtNtCs6wcrk8Qgr6W_6nanocl6models9namespaceNtB5_19NamespaceDeleteOptsNtNtCs2aLnEu25Pl6_4clap6derive14FromArgMatches20from_arg_matches_mut
FN:31,_RNvXsa_NtNtCs6wcrk8Qgr6W_6nanocl6models9namespaceNtB5_13NamespaceArgsNtNtCs2aLnEu25Pl6_4clap6derive14FromArgMatches20from_arg_matches_mut
FN:21,_RNvXs6_NtNtCs6wcrk8Qgr6W_6nanocl6models9namespaceNtB5_19NamespaceDeleteOptsNtNtCs2aLnEu25Pl6_4clap6derive4Args12augment_args
FN:41,_RNCNvXsf_NtNtCs6wcrk8Qgr6W_6nanocl6models9namespaceNtB7_13NamespaceOptsNtNtCs2aLnEu25Pl6_4clap6derive14FromArgMatches20from_arg_matches_mut0Bb_
FN:27,_RNCNvXs5_NtNtCs6wcrk8Qgr6W_6nanocl6models9namespaceNtB7_19NamespaceDeleteOptsNtNtCs2aLnEu25Pl6_4clap6derive14FromArgMatches20from_arg_matches_muts_0Bb_
FN:31,_RNvXsb_NtNtCs6wcrk8Qgr6W_6nanocl6models9namespaceNtB5_13NamespaceArgsNtNtCs2aLnEu25Pl6_4clap6derive4Args12augment_args
FN:7,_RNvXs1_NtNtCs6wcrk8Qgr6W_6nanocl6models9namespaceNtB5_17NamespaceCommandsNtNtCs2aLnEu25Pl6_4clap6derive10Subcommand19augment_subcommands
FN:44,_RNvXsh_NtNtCs6wcrk8Qgr6W_6nanocl6models9namespaceNtB5_12NamespaceRowNtNtCsjra9mVSv54w_6tabled6tabled6Tabled7headers
FN:52,_RNvXNtNtCs6wcrk8Qgr6W_6nanocl6models9namespaceNtB2_12NamespaceRowINtNtCshYNBHIop811_4core7convert4FromNtNtCsfutTBaew1Qf_12nanocl_stubs9namespace16NamespaceSummaryE4from
FN:44,_RNvXsh_NtNtCs6wcrk8Qgr6W_6nanocl6models9namespaceNtB5_12NamespaceRowNtNtCsjra9mVSv54w_6tabled6tabled6Tabled6fields
FN:25,_RNCNvXs5_NtNtCs6wcrk8Qgr6W_6nanocl6models9namespaceNtB7_19NamespaceDeleteOptsNtNtCs2aLnEu25Pl6_4clap6derive14FromArgMatches20from_arg_matches_mut0Bb_
FN:7,_RNvXs0_NtNtCs6wcrk8Qgr6W_6nanocl6models9namespaceNtB5_17NamespaceCommandsNtNtCs2aLnEu25Pl6_4clap6derive14FromArgMatches20from_arg_matches_mut
FNDA:0,_RNvXsc_NtNtCs6wcrk8Qgr6W_6nanocl6models9namespaceNtB5_13NamespaceOptsNtNtCshYNBHIop811_4core3fmt5Debug3fmt
FNDA:0,_RNvXs2_NtNtCs6wcrk8Qgr6W_6nanocl6models9namespaceNtB5_19NamespaceDeleteOptsNtNtCshYNBHIop811_4core3fmt5Debug3fmt
FNDA:0,_RNvXs7_NtNtCs6wcrk8Qgr6W_6nanocl6models9namespaceNtB5_13NamespaceArgsNtNtCshYNBHIop811_4core3fmt5Debug3fmt
FNDA:0,_RNvXs5_NtNtCs6wcrk8Qgr6W_6nanocl6models9namespaceNtB5_19NamespaceDeleteOptsNtNtCs2aLnEu25Pl6_4clap6derive14FromArgMatches16from_arg_matches
FNDA:0,_RNvXsa_NtNtCs6wcrk8Qgr6W_6nanocl6models9namespaceNtB5_13NamespaceArgsNtNtCs2aLnEu25Pl6_4clap6derive14FromArgMatches23update_from_arg_matches
FNDA:0,_RNCNvXs5_NtNtCs6wcrk8Qgr6W_6nanocl6models9namespaceNtB7_19NamespaceDeleteOptsNtNtCs2aLnEu25Pl6_4clap6derive14FromArgMatches27update_from_arg_matches_mut0Bb_
FNDA:0,_RNvXsg_NtNtCs6wcrk8Qgr6W_6nanocl6models9namespaceNtB5_13NamespaceOptsNtNtCs2aLnEu25Pl6_4clap6derive4Args8group_id
FNDA:0,_RNvXs1_NtNtCs6wcrk8Qgr6W_6nanocl6models9namespaceNtB5_17NamespaceCommandsNtNtCs2aLnEu25Pl6_4clap6derive10Subcommand14has_subcommand
FNDA:0,_RNvXsg_NtNtCs6wcrk8Qgr6W_6nanocl6models9namespaceNtB5_13NamespaceOptsNtNtCs2aLnEu25Pl6_4clap6derive4Args23augment_args_for_update
FNDA:0,_RNvXse_NtNtCs6wcrk8Qgr6W_6nanocl6models9namespaceNtB5_13NamespaceOptsNtNtCs2aLnEu25Pl6_4clap6derive14CommandFactory18command_for_update
FNDA:0,_RNvXsa_NtNtCs6wcrk8Qgr6W_6nanocl6models9namespaceNtB5_13NamespaceArgsNtNtCs2aLnEu25Pl6_4clap6derive14FromArgMatches16from_arg_matches
FNDA:0,_RNvXs0_NtNtCs6wcrk8Qgr6W_6nanocl6models9namespaceNtB5_17NamespaceCommandsNtNtCs2aLnEu25Pl6_4clap6derive14FromArgMatches16from_arg_matches
FNDA:0,_RNCNvXs5_NtNtCs6wcrk8Qgr6W_6nanocl6models9namespaceNtB7_19NamespaceDeleteOptsNtNtCs2aLnEu25Pl6_4clap6derive14FromArgMatches27update_from_arg_matches_muts_0Bb_
FNDA:0,_RNvXs5_NtNtCs6wcrk8Qgr6W_6nanocl6models9namespaceNtB5_19NamespaceDeleteOptsNtNtCs2aLnEu25Pl6_4clap6derive14FromArgMatches27update_from_arg_matches_mut
FNDA:0,_RNCNvXsf_NtNtCs6wcrk8Qgr6W_6nanocl6models9namespaceNtB7_13NamespaceOptsNtNtCs2aLnEu25Pl6_4clap6derive14FromArgMatches27update_from_arg_matches_mut0Bb_
FNDA:0,_RNvXs6_NtNtCs6wcrk8Qgr6W_6nanocl6models9namespaceNtB5_19NamespaceDeleteOptsNtNtCs2aLnEu25Pl6_4clap6derive4Args23augment_args_for_update
FNDA:0,_RNvXsf_NtNtCs6wcrk8Qgr6W_6nanocl6models9namespaceNtB5_13NamespaceOptsNtNtCs2aLnEu25Pl6_4clap6derive14FromArgMatches23update_from_arg_matches
FNDA:0,_RNvXsf_NtNtCs6wcrk8Qgr6W_6nanocl6models9namespaceNtB5_13NamespaceOptsNtNtCs2aLnEu25Pl6_4clap6derive14FromArgMatches16from_arg_matches
FNDA:0,_RNvXse_NtNtCs6wcrk8Qgr6W_6nanocl6models9namespaceNtB5_13NamespaceOptsNtNtCs2aLnEu25Pl6_4clap6derive14CommandFactory7command
FNDA:0,_RNvXs6_NtNtCs6wcrk8Qgr6W_6nanocl6models9namespaceNtB5_19NamespaceDeleteOptsNtNtCs2aLnEu25Pl6_4clap6derive4Args8group_id
FNDA:0,_RNvXs0_NtNtCs6wcrk8Qgr6W_6nanocl6models9namespaceNtB5_17NamespaceCommandsNtNtCs2aLnEu25Pl6_4clap6derive14FromArgMatches27update_from_arg_matches_mut
FNDA:0,_RNvXsa_NtNtCs6wcrk8Qgr6W_6nanocl6models9namespaceNtB5_13NamespaceArgsNtNtCs2aLnEu25Pl6_4clap6derive14FromArgMatches27update_from_arg_matches_mut
FNDA:0,_RNvXs_NtNtCs6wcrk8Qgr6W_6nanocl6models9namespaceNtB4_17NamespaceCommandsNtNtCshYNBHIop811_4core3fmt5Debug3fmt
FNDA:0,_RNvXs4_NtNtCs6wcrk8Qgr6W_6nanocl6models9namespaceNtB5_19NamespaceDeleteOptsNtNtCs2aLnEu25Pl6_4clap6derive14CommandFactory7command
FNDA:0,_RNvXs9_NtNtCs6wcrk8Qgr6W_6nanocl6models9namespaceNtB5_13NamespaceArgsNtNtCs2aLnEu25Pl6_4clap6derive14CommandFactory7command
FNDA:0,_RNvXsb_NtNtCs6wcrk8Qgr6W_6nanocl6models9namespaceNtB5_13NamespaceArgsNtNtCs2aLnEu25Pl6_4clap6derive4Args8group_id
FNDA:0,_RNvXs9_NtNtCs6wcrk8Qgr6W_6nanocl6models9namespaceNtB5_13NamespaceArgsNtNtCs2aLnEu25Pl6_4clap6derive14CommandFactory18command_for_update
FNDA:0,_RNvXs1_NtNtCs6wcrk8Qgr6W_6nanocl6models9namespaceNtB5_17NamespaceCommandsNtNtCs2aLnEu25Pl6_4clap6derive10Subcommand30augment_subcommands_for_update
FNDA:0,_RNvXs4_NtNtCs6wcrk8Qgr6W_6nanocl6models9namespaceNtB5_19NamespaceDeleteOptsNtNtCs2aLnEu25Pl6_4clap6derive14CommandFactory18command_for_update
FNDA:0,_RNvXsf_NtNtCs6wcrk8Qgr6W_6nanocl6models9namespaceNtB5_13NamespaceOptsNtNtCs2aLnEu25Pl6_4clap6derive14FromArgMatches27update_from_arg_matches_mut
FNDA:0,_RNvXs0_NtNtCs6wcrk8Qgr6W_6nanocl6models9namespaceNtB5_17NamespaceCommandsNtNtCs2aLnEu25Pl6_4clap6derive14FromArgMatches23update_from_arg_matches
FNDA:0,_RNvXs5_NtNtCs6wcrk8Qgr6W_6nanocl6models9namespaceNtB5_19NamespaceDeleteOptsNtNtCs2aLnEu25Pl6_4clap6derive14FromArgMatches23update_from_arg_matches
FNDA:0,_RNvXsb_NtNtCs6wcrk8Qgr6W_6nanocl6models9namespaceNtB5_13NamespaceArgsNtNtCs2aLnEu25Pl6_4clap6derive4Args23augment_args_for_update
FNDA:2,_RNvXsf_NtNtCs6wcrk8Qgr6W_6nanocl6models9namespaceNtB5_13NamespaceOptsNtNtCs2aLnEu25Pl6_4clap6derive14FromArgMatches20from_arg_matches_mut
FNDA:74,_RNvXsg_NtNtCs6wcrk8Qgr6W_6nanocl6models9namespaceNtB5_13NamespaceOptsNtNtCs2aLnEu25Pl6_4clap6derive4Args12augment_args
FNDA:1,_RNvXs5_NtNtCs6wcrk8Qgr6W_6nanocl6models9namespaceNtB5_19NamespaceDeleteOptsNtNtCs2aLnEu25Pl6_4clap6derive14FromArgMatches20from_arg_matches_mut
FNDA:4,_RNvXsa_NtNtCs6wcrk8Qgr6W_6nanocl6models9namespaceNtB5_13NamespaceArgsNtNtCs2aLnEu25Pl6_4clap6derive14FromArgMatches20from_arg_matches_mut
FNDA:37,_RNvXs6_NtNtCs6wcrk8Qgr6W_6nanocl6models9namespaceNtB5_19NamespaceDeleteOptsNtNtCs2aLnEu25Pl6_4clap6derive4Args12augment_args
FNDA:0,_RNCNvXsf_NtNtCs6wcrk8Qgr6W_6nanocl6models9namespaceNtB7_13NamespaceOptsNtNtCs2aLnEu25Pl6_4clap6derive14FromArgMatches20from_arg_matches_mut0Bb_
FNDA:1,_RNCNvXs5_NtNtCs6wcrk8Qgr6W_6nanocl6models9namespaceNtB7_19NamespaceDeleteOptsNtNtCs2aLnEu25Pl6_4clap6derive14FromArgMatches20from_arg_matches_muts_0Bb_
FNDA:37,_RNvXsb_NtNtCs6wcrk8Qgr6W_6nanocl6models9namespaceNtB5_13NamespaceArgsNtNtCs2aLnEu25Pl6_4clap6derive4Args12augment_args
FNDA:37,_RNvXs1_NtNtCs6wcrk8Qgr6W_6nanocl6models9namespaceNtB5_17NamespaceCommandsNtNtCs2aLnEu25Pl6_4clap6derive10Subcommand19augment_subcommands
FNDA:1,_RNvXsh_NtNtCs6wcrk8Qgr6W_6nanocl6models9namespaceNtB5_12NamespaceRowNtNtCsjra9mVSv54w_6tabled6tabled6Tabled7headers
FNDA:4,_RNvXNtNtCs6wcrk8Qgr6W_6nanocl6models9namespaceNtB2_12NamespaceRowINtNtCshYNBHIop811_4core7convert4FromNtNtCsfutTBaew1Qf_12nanocl_stubs9namespace16NamespaceSummaryE4from
FNDA:4,_RNvXsh_NtNtCs6wcrk8Qgr6W_6nanocl6models9namespaceNtB5_12NamespaceRowNtNtCsjra9mVSv54w_6tabled6tabled6Tabled6fields
FNDA:0,_RNCNvXs5_NtNtCs6wcrk8Qgr6W_6nanocl6models9namespaceNtB7_19NamespaceDeleteOptsNtNtCs2aLnEu25Pl6_4clap6derive14FromArgMatches20from_arg_matches_mut0Bb_
FNDA:0,_RNvXs0_NtNtCs6wcrk8Qgr6W_6nanocl6models9namespaceNtB5_17NamespaceCommandsNtNtCs2aLnEu25Pl6_4clap6derive14FromArgMatches20from_arg_matches_mut
FNF:13
FNH:7
DA:7,10
DA:21,38
DA:25,0
DA:26,0
DA:27,1
DA:31,4
DA:38,76
DA:41,0
DA:44,5
DA:52,4
DA:53,4
DA:54,4
DA:55,4
DA:56,4
DA:57,4
DA:58,4
BRF:0
BRH:0
LF:20
LH:13
end_of_record
SF:/home/leone/Documents/next-hat/nanocl/bin/nanocl/src/models/resource.rs
FN:81,_RNvXsm_NtNtCs6wcrk8Qgr6W_6nanocl6models8resourceNtB5_19ResourceHistoryOptsNtNtCs2aLnEu25Pl6_4clap6derive14FromArgMatches23update_from_arg_matches
FN:66,_RNvXsd_NtNtCs6wcrk8Qgr6W_6nanocl6models8resourceNtB5_18ResourceRemoveOptsNtNtCs2aLnEu25Pl6_4clap6derive4Args8group_id
FN:25,_RNvXs4_NtNtCs6wcrk8Qgr6W_6nanocl6models8resourceNtB5_12ResourceArgsNtNtCs2aLnEu25Pl6_4clap6derive14CommandFactory7command
FN:92,_RNCNvXsr_NtNtCs6wcrk8Qgr6W_6nanocl6models8resourceNtB7_17ResourceResetOptsNtNtCs2aLnEu25Pl6_4clap6derive14FromArgMatches27update_from_arg_matches_muts_0Bb_
FN:25,_RNvXs6_NtNtCs6wcrk8Qgr6W_6nanocl6models8resourceNtB5_12ResourceArgsNtNtCs2aLnEu25Pl6_4clap6derive4Args8group_id
FN:87,_RNvXss_NtNtCs6wcrk8Qgr6W_6nanocl6models8resourceNtB5_17ResourceResetOptsNtNtCs2aLnEu25Pl6_4clap6derive4Args8group_id
FN:8,_RNvXs1_NtNtCs6wcrk8Qgr6W_6nanocl6models8resourceNtB5_16ResourceCommandsNtNtCs2aLnEu25Pl6_4clap6derive10Subcommand30augment_subcommands_for_update
FN:8,_RNvXs0_NtNtCs6wcrk8Qgr6W_6nanocl6models8resourceNtB5_16ResourceCommandsNtNtCs2aLnEu25Pl6_4clap6derive14FromArgMatches16from_arg_matches
FN:66,_RNvXsc_NtNtCs6wcrk8Qgr6W_6nanocl6models8resourceNtB5_18ResourceRemoveOptsNtNtCs2aLnEu25Pl6_4clap6derive14FromArgMatches16from_arg_matches
FN:75,_RNvXsh_NtNtCs6wcrk8Qgr6W_6nanocl6models8resourceNtB5_19ResourceInspectOptsNtNtCs2aLnEu25Pl6_4clap6derive14FromArgMatches23update_from_arg_matches
FN:8,_RNvXs0_NtNtCs6wcrk8Qgr6W_6nanocl6models8resourceNtB5_16ResourceCommandsNtNtCs2aLnEu25Pl6_4clap6derive14FromArgMatches23update_from_arg_matches
FN:81,_RNvXsl_NtNtCs6wcrk8Qgr6W_6nanocl6models8resourceNtB5_19ResourceHistoryOptsNtNtCs2aLnEu25Pl6_4clap6derive14CommandFactory7command
FN:66,_RNvXsb_NtNtCs6wcrk8Qgr6W_6nanocl6models8resourceNtB5_18ResourceRemoveOptsNtNtCs2aLnEu25Pl6_4clap6derive14CommandFactory18command_for_update
FN:87,_RNvXsq_NtNtCs6wcrk8Qgr6W_6nanocl6models8resourceNtB5_17ResourceResetOptsNtNtCs2aLnEu25Pl6_4clap6derive14CommandFactory18command_for_update
FN:75,_RNvXsg_NtNtCs6wcrk8Qgr6W_6nanocl6models8resourceNtB5_19ResourceInspectOptsNtNtCs2aLnEu25Pl6_4clap6derive14CommandFactory7command
FN:81,_RNvXsm_NtNtCs6wcrk8Qgr6W_6nanocl6models8resourceNtB5_19ResourceHistoryOptsNtNtCs2aLnEu25Pl6_4clap6derive14FromArgMatches16from_arg_matches
FN:87,_RNvXsr_NtNtCs6wcrk8Qgr6W_6nanocl6models8resourceNtB5_17ResourceResetOptsNtNtCs2aLnEu25Pl6_4clap6derive14FromArgMatches27update_from_arg_matches_mut
FN:81,_RNvXsj_NtNtCs6wcrk8Qgr6W_6nanocl6models8resourceNtB5_19ResourceHistoryOptsNtNtCshYNBHIop811_4core3fmt5Debug3fmt
FN:81,_RNvXsn_NtNtCs6wcrk8Qgr6W_6nanocl6models8resourceNtB5_19ResourceHistoryOptsNtNtCs2aLnEu25Pl6_4clap6derive4Args23augment_args_for_update
FN:66,_RNvXsc_NtNtCs6wcrk8Qgr6W_6nanocl6models8resourceNtB5_18ResourceRemoveOptsNtNtCs2aLnEu25Pl6_4clap6derive14FromArgMatches27update_from_arg_matches_mut
FN:8,_RNvXs1_NtNtCs6wcrk8Qgr6W_6nanocl6models8resourceNtB5_16ResourceCommandsNtNtCs2aLnEu25Pl6_4clap6derive10Subcommand14has_subcommand
FN:25,_RNvXs6_NtNtCs6wcrk8Qgr6W_6nanocl6models8resourceNtB5_12ResourceArgsNtNtCs2aLnEu25Pl6_4clap6derive4Args23augment_args_for_update
FN:75,_RNvXsg_NtNtCs6wcrk8Qgr6W_6nanocl6models8resourceNtB5_19ResourceInspectOptsNtNtCs2aLnEu25Pl6_4clap6derive14CommandFactory18command_for_update
FN:25,_RNvXs5_NtNtCs6wcrk8Qgr6W_6nanocl6models8resourceNtB5_12ResourceArgsNtNtCs2aLnEu25Pl6_4clap6derive14FromArgMatches27update_from_arg_matches_mut
FN:8,_RNvXs_NtNtCs6wcrk8Qgr6W_6nanocl6models8resourceNtB4_16ResourceCommandsNtNtCshYNBHIop811_4core3fmt5Debug3fmt
FN:75,_RNvXsi_NtNtCs6wcrk8Qgr6W_6nanocl6models8resourceNtB5_19ResourceInspectOptsNtNtCs2aLnEu25Pl6_4clap6derive4Args8group_id
FN:81,_RNvXsm_NtNtCs6wcrk8Qgr6W_6nanocl6models8resourceNtB5_19ResourceHistoryOptsNtNtCs2aLnEu25Pl6_4clap6derive14FromArgMatches27update_from_arg_matches_mut
FN:90,_RNCNvXsr_NtNtCs6wcrk8Qgr6W_6nanocl6models8resourceNtB7_17ResourceResetOptsNtNtCs2aLnEu25Pl6_4clap6derive14FromArgMatches27update_from_arg_matches_mut0Bb_
FN:8,_RNvXs0_NtNtCs6wcrk8Qgr6W_6nanocl6models8resourceNtB5_16ResourceCommandsNtNtCs2aLnEu25Pl6_4clap6derive14FromArgMatches27update_from_arg_matches_mut
FN:25,_RNvXs5_NtNtCs6wcrk8Qgr6W_6nanocl6models8resourceNtB5_12ResourceArgsNtNtCs2aLnEu25Pl6_4clap6derive14FromArgMatches23update_from_arg_matches
FN:25,_RNvXs4_NtNtCs6wcrk8Qgr6W_6nanocl6models8resourceNtB5_12ResourceArgsNtNtCs2aLnEu25Pl6_4clap6derive14CommandFactory18command_for_update
FN:87,_RNvXso_NtNtCs6wcrk8Qgr6W_6nanocl6models8resourceNtB5_17ResourceResetOptsNtNtCshYNBHIop811_4core3fmt5Debug3fmt
FN:32,_RNvXs7_NtNtCs6wcrk8Qgr6W_6nanocl6models8resourceNtB5_11ResourceRowNtNtCshYNBHIop811_4core3fmt5Debug3fmt
FN:66,_RNvXsb_NtNtCs6wcrk8Qgr6W_6nanocl6models8resourceNtB5_18ResourceRemoveOptsNtNtCs2aLnEu25Pl6_4clap6derive14CommandFactory7command
FN:84,_RNCNvXsm_NtNtCs6wcrk8Qgr6W_6nanocl6models8resourceNtB7_19ResourceHistoryOptsNtNtCs2aLnEu25Pl6_4clap6derive14FromArgMatches27update_from_arg_matches_mut0Bb_
FN:66,_RNvXs9_NtNtCs6wcrk8Qgr6W_6nanocl6models8resourceNtB5_18ResourceRemoveOptsNtNtCshYNBHIop811_4core3fmt5Debug3fmt
FN:70,_RNCNvXsc_NtNtCs6wcrk8Qgr6W_6nanocl6models8resourceNtB7_18ResourceRemoveOptsNtNtCs2aLnEu25Pl6_4clap6derive14FromArgMatches27update_from_arg_matches_mut0Bb_
FN:72,_RNCNvXsc_NtNtCs6wcrk8Qgr6W_6nanocl6models8resourceNtB7_18ResourceRemoveOptsNtNtCs2aLnEu25Pl6_4clap6derive14FromArgMatches27update_from_arg_matches_muts_0Bb_
FN:75,_RNvXse_NtNtCs6wcrk8Qgr6W_6nanocl6models8resourceNtB5_19ResourceInspectOptsNtNtCshYNBHIop811_4core3fmt5Debug3fmt
FN:75,_RNvXsi_NtNtCs6wcrk8Qgr6W_6nanocl6models8resourceNtB5_19ResourceInspectOptsNtNtCs2aLnEu25Pl6_4clap6derive4Args23augment_args_for_update
FN:87,_RNvXsr_NtNtCs6wcrk8Qgr6W_6nanocl6models8resourceNtB5_17ResourceResetOptsNtNtCs2aLnEu25Pl6_4clap6derive14FromArgMatches23update_from_arg_matches
FN:81,_RNvXsn_NtNtCs6wcrk8Qgr6W_6nanocl6models8resourceNtB5_19ResourceHistoryOptsNtNtCs2aLnEu25Pl6_4clap6derive4Args8group_id
FN:66,_RNvXsc_NtNtCs6wcrk8Qgr6W_6nanocl6models8resourceNtB5_18ResourceRemoveOptsNtNtCs2aLnEu25Pl6_4clap6derive14FromArgMatches23update_from_arg_matches
FN:25,_RNvXs5_NtNtCs6wcrk8Qgr6W_6nanocl6models8resourceNtB5_12ResourceArgsNtNtCs2aLnEu25Pl6_4clap6derive14FromArgMatches16from_arg_matches
FN:87,_RNvXsq_NtNtCs6wcrk8Qgr6W_6nanocl6models8resourceNtB5_17ResourceResetOptsNtNtCs2aLnEu25Pl6_4clap6derive14CommandFactory7command
FN:25,_RNvXs2_NtNtCs6wcrk8Qgr6W_6nanocl6models8resourceNtB5_12ResourceArgsNtNtCshYNBHIop811_4core3fmt5Debug3fmt
FN:75,_RNvXsh_NtNtCs6wcrk8Qgr6W_6nanocl6models8resourceNtB5_19ResourceInspectOptsNtNtCs2aLnEu25Pl6_4clap6derive14FromArgMatches27update_from_arg_matches_mut
FN:87,_RNvXss_NtNtCs6wcrk8Qgr6W_6nanocl6models8resourceNtB5_17ResourceResetOptsNtNtCs2aLnEu25Pl6_4clap6derive4Args23augment_args_for_update
FN:87,_RNvXsr_NtNtCs6wcrk8Qgr6W_6nanocl6models8resourceNtB5_17ResourceResetOptsNtNtCs2aLnEu25Pl6_4clap6derive14FromArgMatches16from_arg_matches
FN:66,_RNvXsd_NtNtCs6wcrk8Qgr6W_6nanocl6models8resourceNtB5_18ResourceRemoveOptsNtNtCs2aLnEu25Pl6_4clap6derive4Args23augment_args_for_update
FN:75,_RNvXsh_NtNtCs6wcrk8Qgr6W_6nanocl6models8resourceNtB5_19ResourceInspectOptsNtNtCs2aLnEu25Pl6_4clap6derive14FromArgMatches16from_arg_matches
FN:78,_RNCNvXsh_NtNtCs6wcrk8Qgr6W_6nanocl6models8resourceNtB7_19ResourceInspectOptsNtNtCs2aLnEu25Pl6_4clap6derive14FromArgMatches27update_from_arg_matches_mut0Bb_
FN:81,_RNvXsl_NtNtCs6wcrk8Qgr6W_6nanocl6models8resourceNtB5_19ResourceHistoryOptsNtNtCs2aLnEu25Pl6_4clap6derive14CommandFactory18command_for_update
FN:84,_RNCNvXsm_NtNtCs6wcrk8Qgr6W_6nanocl6models8resourceNtB7_19ResourceHistoryOptsNtNtCs2aLnEu25Pl6_4clap6derive14FromArgMatches20from_arg_matches_mut0Bb_
FN:87,_RNvXss_NtNtCs6wcrk8Qgr6W_6nanocl6models8resourceNtB5_17ResourceResetOptsNtNtCs2aLnEu25Pl6_4clap6derive4Args12augment_args
FN:8,_RNvXs0_NtNtCs6wcrk8Qgr6W_6nanocl6models8resourceNtB5_16ResourceCommandsNtNtCs2aLnEu25Pl6_4clap6derive14FromArgMatches20from_arg_matches_mut
FN:75,_RNvXsh_NtNtCs6wcrk8Qgr6W_6nanocl6models8resourceNtB5_19ResourceInspectOptsNtNtCs2aLnEu25Pl6_4clap6derive14FromArgMatches20from_arg_matches_mut
FN:32,_RNvXs8_NtNtCs6wcrk8Qgr6W_6nanocl6models8resourceNtB5_11ResourceRowNtNtCsjra9mVSv54w_6tabled6tabled6Tabled6fields
FN:87,_RNvXsr_NtNtCs6wcrk8Qgr6W_6nanocl6models8resourceNtB5_17ResourceResetOptsNtNtCs2aLnEu25Pl6_4clap6derive14FromArgMatches20from_arg_matches_mut
FN:81,_RNvXsm_NtNtCs6wcrk8Qgr6W_6nanocl6models8resourceNtB5_19ResourceHistoryOptsNtNtCs2aLnEu25Pl6_4clap6derive14FromArgMatches20from_arg_matches_mut
FN:66,_RNvXsc_NtNtCs6wcrk8Qgr6W_6nanocl6models8resourceNtB5_18ResourceRemoveOptsNtNtCs2aLnEu25Pl6_4clap6derive14FromArgMatches20from_arg_matches_mut
FN:72,_RNCNvXsc_NtNtCs6wcrk8Qgr6W_6nanocl6models8resourceNtB7_18ResourceRemoveOptsNtNtCs2aLnEu25Pl6_4clap6derive14FromArgMatches20from_arg_matches_muts_0Bb_
FN:42,_RNvXNtNtCs6wcrk8Qgr6W_6nanocl6models8resourceNtB2_11ResourceRowINtNtCshYNBHIop811_4core7convert4FromNtNtCsfutTBaew1Qf_12nanocl_stubs8resource8ResourceE4from
FN:70,_RNCNvXsc_NtNtCs6wcrk8Qgr6W_6nanocl6models8resourceNtB7_18ResourceRemoveOptsNtNtCs2aLnEu25Pl6_4clap6derive14FromArgMatches20from_arg_matches_mut0Bb_
FN:78,_RNCNvXsh_NtNtCs6wcrk8Qgr6W_6nanocl6models8resourceNtB7_19ResourceInspectOptsNtNtCs2aLnEu25Pl6_4clap6derive14FromArgMatches20from_arg_matches_mut0Bb_
FN:90,_RNCNvXsr_NtNtCs6wcrk8Qgr6W_6nanocl6models8resourceNtB7_17ResourceResetOptsNtNtCs2aLnEu25Pl6_4clap6derive14FromArgMatches20from_arg_matches_mut0Bb_
FN:66,_RNvXsd_NtNtCs6wcrk8Qgr6W_6nanocl6models8resourceNtB5_18ResourceRemoveOptsNtNtCs2aLnEu25Pl6_4clap6derive4Args12augment_args
FN:81,_RNvXsn_NtNtCs6wcrk8Qgr6W_6nanocl6models8resourceNtB5_19ResourceHistoryOptsNtNtCs2aLnEu25Pl6_4clap6derive4Args12augment_args
FN:25,_RNvXs6_NtNtCs6wcrk8Qgr6W_6nanocl6models8resourceNtB5_12ResourceArgsNtNtCs2aLnEu25Pl6_4clap6derive4Args12augment_args
FN:8,_RNvXs1_NtNtCs6wcrk8Qgr6W_6nanocl6models8resourceNtB5_16ResourceCommandsNtNtCs2aLnEu25Pl6_4clap6derive10Subcommand19augment_subcommands
FN:25,_RNvXs5_NtNtCs6wcrk8Qgr6W_6nanocl6models8resourceNtB5_12ResourceArgsNtNtCs2aLnEu25Pl6_4clap6derive14FromArgMatches20from_arg_matches_mut
FN:75,_RNvXsi_NtNtCs6wcrk8Qgr6W_6nanocl6models8resourceNtB5_19ResourceInspectOptsNtNtCs2aLnEu25Pl6_4clap6derive4Args12augment_args
FN:92,_RNCNvXsr_NtNtCs6wcrk8Qgr6W_6nanocl6models8resourceNtB7_17ResourceResetOptsNtNtCs2aLnEu25Pl6_4clap6derive14FromArgMatches20from_arg_matches_muts_0Bb_
FN:32,_RNvXs8_NtNtCs6wcrk8Qgr6W_6nanocl6models8resourceNtB5_11ResourceRowNtNtCsjra9mVSv54w_6tabled6tabled6Tabled7headers
FNDA:0,_RNvXsm_NtNtCs6wcrk8Qgr6W_6nanocl6models8resourceNtB5_19ResourceHistoryOptsNtNtCs2aLnEu25Pl6_4clap6derive14FromArgMatches23update_from_arg_matches
FNDA:0,_RNvXsd_NtNtCs6wcrk8Qgr6W_6nanocl6models8resourceNtB5_18ResourceRemoveOptsNtNtCs2aLnEu25Pl6_4clap6derive4Args8group_id
FNDA:0,_RNvXs4_NtNtCs6wcrk8Qgr6W_6nanocl6models8resourceNtB5_12ResourceArgsNtNtCs2aLnEu25Pl6_4clap6derive14CommandFactory7command
FNDA:0,_RNCNvXsr_NtNtCs6wcrk8Qgr6W_6nanocl6models8resourceNtB7_17ResourceResetOptsNtNtCs2aLnEu25Pl6_4clap6derive14FromArgMatches27update_from_arg_matches_muts_0Bb_
FNDA:0,_RNvXs6_NtNtCs6wcrk8Qgr6W_6nanocl6models8resourceNtB5_12ResourceArgsNtNtCs2aLnEu25Pl6_4clap6derive4Args8group_id
FNDA:0,_RNvXss_NtNtCs6wcrk8Qgr6W_6nanocl6models8resourceNtB5_17ResourceResetOptsNtNtCs2aLnEu25Pl6_4clap6derive4Args8group_id
FNDA:0,_RNvXs1_NtNtCs6wcrk8Qgr6W_6nanocl6models8resourceNtB5_16ResourceCommandsNtNtCs2aLnEu25Pl6_4clap6derive10Subcommand30augment_subcommands_for_update
FNDA:0,_RNvXs0_NtNtCs6wcrk8Qgr6W_6nanocl6models8resourceNtB5_16ResourceCommandsNtNtCs2aLnEu25Pl6_4clap6derive14FromArgMatches16from_arg_matches
FNDA:0,_RNvXsc_NtNtCs6wcrk8Qgr6W_6nanocl6models8resourceNtB5_18ResourceRemoveOptsNtNtCs2aLnEu25Pl6_4clap6derive14FromArgMatches16from_arg_matches
FNDA:0,_RNvXsh_NtNtCs6wcrk8Qgr6W_6nanocl6models8resourceNtB5_19ResourceInspectOptsNtNtCs2aLnEu25Pl6_4clap6derive14FromArgMatches23update_from_arg_matches
FNDA:0,_RNvXs0_NtNtCs6wcrk8Qgr6W_6nanocl6models8resourceNtB5_16ResourceCommandsNtNtCs2aLnEu25Pl6_4clap6derive14FromArgMatches23update_from_arg_matches
FNDA:0,_RNvXsl_NtNtCs6wcrk8Qgr6W_6nanocl6models8resourceNtB5_19ResourceHistoryOptsNtNtCs2aLnEu25Pl6_4clap6derive14CommandFactory7command
FNDA:0,_RNvXsb_NtNtCs6wcrk8Qgr6W_6nanocl6models8resourceNtB5_18ResourceRemoveOptsNtNtCs2aLnEu25Pl6_4clap6derive14CommandFactory18command_for_update
FNDA:0,_RNvXsq_NtNtCs6wcrk8Qgr6W_6nanocl6models8resourceNtB5_17ResourceResetOptsNtNtCs2aLnEu25Pl6_4clap6derive14CommandFactory18command_for_update
FNDA:0,_RNvXsg_NtNtCs6wcrk8Qgr6W_6nanocl6models8resourceNtB5_19ResourceInspectOptsNtNtCs2aLnEu25Pl6_4clap6derive14CommandFactory7command
FNDA:0,_RNvXsm_NtNtCs6wcrk8Qgr6W_6nanocl6models8resourceNtB5_19ResourceHistoryOptsNtNtCs2aLnEu25Pl6_4clap6derive14FromArgMatches16from_arg_matches
FNDA:0,_RNvXsr_NtNtCs6wcrk8Qgr6W_6nanocl6models8resourceNtB5_17ResourceResetOptsNtNtCs2aLnEu25Pl6_4clap6derive14FromArgMatches27update_from_arg_matches_mut
FNDA:0,_RNvXsj_NtNtCs6wcrk8Qgr6W_6nanocl6models8resourceNtB5_19ResourceHistoryOptsNtNtCshYNBHIop811_4core3fmt5Debug3fmt
FNDA:0,_RNvXsn_NtNtCs6wcrk8Qgr6W_6nanocl6models8resourceNtB5_19ResourceHistoryOptsNtNtCs2aLnEu25Pl6_4clap6derive4Args23augment_args_for_update
FNDA:0,_RNvXsc_NtNtCs6wcrk8Qgr6W_6nanocl6models8resourceNtB5_18ResourceRemoveOptsNtNtCs2aLnEu25Pl6_4clap6derive14FromArgMatches27update_from_arg_matches_mut
FNDA:0,_RNvXs1_NtNtCs6wcrk8Qgr6W_6nanocl6models8resourceNtB5_16ResourceCommandsNtNtCs2aLnEu25Pl6_4clap6derive10Subcommand14has_subcommand
FNDA:0,_RNvXs6_NtNtCs6wcrk8Qgr6W_6nanocl6models8resourceNtB5_12ResourceArgsNtNtCs2aLnEu25Pl6_4clap6derive4Args23augment_args_for_update
FNDA:0,_RNvXsg_NtNtCs6wcrk8Qgr6W_6nanocl6models8resourceNtB5_19ResourceInspectOptsNtNtCs2aLnEu25Pl6_4clap6derive14CommandFactory18command_for_update
FNDA:0,_RNvXs5_NtNtCs6wcrk8Qgr6W_6nanocl6models8resourceNtB5_12ResourceArgsNtNtCs2aLnEu25Pl6_4clap6derive14FromArgMatches27update_from_arg_matches_mut
FNDA:0,_RNvXs_NtNtCs6wcrk8Qgr6W_6nanocl6models8resourceNtB4_16ResourceCommandsNtNtCshYNBHIop811_4core3fmt5Debug3fmt
FNDA:0,_RNvXsi_NtNtCs6wcrk8Qgr6W_6nanocl6models8resourceNtB5_19ResourceInspectOptsNtNtCs2aLnEu25Pl6_4clap6derive4Args8group_id
FNDA:0,_RNvXsm_NtNtCs6wcrk8Qgr6W_6nanocl6models8resourceNtB5_19ResourceHistoryOptsNtNtCs2aLnEu25Pl6_4clap6derive14FromArgMatches27update_from_arg_matches_mut
FNDA:0,_RNCNvXsr_NtNtCs6wcrk8Qgr6W_6nanocl6models8resourceNtB7_17ResourceResetOptsNtNtCs2aLnEu25Pl6_4clap6derive14FromArgMatches27update_from_arg_matches_mut0Bb_
FNDA:0,_RNvXs0_NtNtCs6wcrk8Qgr6W_6nanocl6models8resourceNtB5_16ResourceCommandsNtNtCs2aLnEu25Pl6_4clap6derive14FromArgMatches27update_from_arg_matches_mut
FNDA:0,_RNvXs5_NtNtCs6wcrk8Qgr6W_6nanocl6models8resourceNtB5_12ResourceArgsNtNtCs2aLnEu25Pl6_4clap6derive14FromArgMatches23update_from_arg_matches
FNDA:0,_RNvXs4_NtNtCs6wcrk8Qgr6W_6nanocl6models8resourceNtB5_12ResourceArgsNtNtCs2aLnEu25Pl6_4clap6derive14CommandFactory18command_for_update
FNDA:0,_RNvXso_NtNtCs6wcrk8Qgr6W_6nanocl6models8resourceNtB5_17ResourceResetOptsNtNtCshYNBHIop811_4core3fmt5Debug3fmt
FNDA:0,_RNvXs7_NtNtCs6wcrk8Qgr6W_6nanocl6models8resourceNtB5_11ResourceRowNtNtCshYNBHIop811_4core3fmt5Debug3fmt
FNDA:0,_RNvXsb_NtNtCs6wcrk8Qgr6W_6nanocl6models8resourceNtB5_18ResourceRemoveOptsNtNtCs2aLnEu25Pl6_4clap6derive14CommandFactory7command
FNDA:0,_RNCNvXsm_NtNtCs6wcrk8Qgr6W_6nanocl6models8resourceNtB7_19ResourceHistoryOptsNtNtCs2aLnEu25Pl6_4clap6derive14FromArgMatches27update_from_arg_matches_mut0Bb_
FNDA:0,_RNvXs9_NtNtCs6wcrk8Qgr6W_6nanocl6models8resourceNtB5_18ResourceRemoveOptsNtNtCshYNBHIop811_4core3fmt5Debug3fmt
FNDA:0,_RNCNvXsc_NtNtCs6wcrk8Qgr6W_6nanocl6models8resourceNtB7_18ResourceRemoveOptsNtNtCs2aLnEu25Pl6_4clap6derive14FromArgMatches27update_from_arg_matches_mut0Bb_
FNDA:0,_RNCNvXsc_NtNtCs6wcrk8Qgr6W_6nanocl6models8resourceNtB7_18ResourceRemoveOptsNtNtCs2aLnEu25Pl6_4clap6derive14FromArgMatches27update_from_arg_matches_muts_0Bb_
FNDA:0,_RNvXse_NtNtCs6wcrk8Qgr6W_6nanocl6models8resourceNtB5_19ResourceInspectOptsNtNtCshYNBHIop811_4core3fmt5Debug3fmt
FNDA:0,_RNvXsi_NtNtCs6wcrk8Qgr6W_6nanocl6models8resourceNtB5_19ResourceInspectOptsNtNtCs2aLnEu25Pl6_4clap6derive4Args23augment_args_for_update
FNDA:0,_RNvXsr_NtNtCs6wcrk8Qgr6W_6nanocl6models8resourceNtB5_17ResourceResetOptsNtNtCs2aLnEu25Pl6_4clap6derive14FromArgMatches23update_from_arg_matches
FNDA:0,_RNvXsn_NtNtCs6wcrk8Qgr6W_6nanocl6models8resourceNtB5_19ResourceHistoryOptsNtNtCs2aLnEu25Pl6_4clap6derive4Args8group_id
FNDA:0,_RNvXsc_NtNtCs6wcrk8Qgr6W_6nanocl6models8resourceNtB5_18ResourceRemoveOptsNtNtCs2aLnEu25Pl6_4clap6derive14FromArgMatches23update_from_arg_matches
FNDA:0,_RNvXs5_NtNtCs6wcrk8Qgr6W_6nanocl6models8resourceNtB5_12ResourceArgsNtNtCs2aLnEu25Pl6_4clap6derive14FromArgMatches16from_arg_matches
FNDA:0,_RNvXsq_NtNtCs6wcrk8Qgr6W_6nanocl6models8resourceNtB5_17ResourceResetOptsNtNtCs2aLnEu25Pl6_4clap6derive14CommandFactory7command
FNDA:0,_RNvXs2_NtNtCs6wcrk8Qgr6W_6nanocl6models8resourceNtB5_12ResourceArgsNtNtCshYNBHIop811_4core3fmt5Debug3fmt
FNDA:0,_RNvXsh_NtNtCs6wcrk8Qgr6W_6nanocl6models8resourceNtB5_19ResourceInspectOptsNtNtCs2aLnEu25Pl6_4clap6derive14FromArgMatches27update_from_arg_matches_mut
FNDA:0,_RNvXss_NtNtCs6wcrk8Qgr6W_6nanocl6models8resourceNtB5_17ResourceResetOptsNtNtCs2aLnEu25Pl6_4clap6derive4Args23augment_args_for_update
FNDA:0,_RNvXsr_NtNtCs6wcrk8Qgr6W_6nanocl6models8resourceNtB5_17ResourceResetOptsNtNtCs2aLnEu25Pl6_4clap6derive14FromArgMatches16from_arg_matches
FNDA:0,_RNvXsd_NtNtCs6wcrk8Qgr6W_6nanocl6models8resourceNtB5_18ResourceRemoveOptsNtNtCs2aLnEu25Pl6_4clap6derive4Args23augment_args_for_update
FNDA:0,_RNvXsh_NtNtCs6wcrk8Qgr6W_6nanocl6models8resourceNtB5_19ResourceInspectOptsNtNtCs2aLnEu25Pl6_4clap6derive14FromArgMatches16from_arg_matches
FNDA:0,_RNCNvXsh_NtNtCs6wcrk8Qgr6W_6nanocl6models8resourceNtB7_19ResourceInspectOptsNtNtCs2aLnEu25Pl6_4clap6derive14FromArgMatches27update_from_arg_matches_mut0Bb_
FNDA:0,_RNvXsl_NtNtCs6wcrk8Qgr6W_6nanocl6models8resourceNtB5_19ResourceHistoryOptsNtNtCs2aLnEu25Pl6_4clap6derive14CommandFactory18command_for_update
FNDA:0,_RNCNvXsm_NtNtCs6wcrk8Qgr6W_6nanocl6models8resourceNtB7_19ResourceHistoryOptsNtNtCs2aLnEu25Pl6_4clap6derive14FromArgMatches20from_arg_matches_mut0Bb_
FNDA:37,_RNvXss_NtNtCs6wcrk8Qgr6W_6nanocl6models8resourceNtB5_17ResourceResetOptsNtNtCs2aLnEu25Pl6_4clap6derive4Args12augment_args
FNDA:0,_RNvXs0_NtNtCs6wcrk8Qgr6W_6nanocl6models8resourceNtB5_16ResourceCommandsNtNtCs2aLnEu25Pl6_4clap6derive14FromArgMatches20from_arg_matches_mut
FNDA:1,_RNvXsh_NtNtCs6wcrk8Qgr6W_6nanocl6models8resourceNtB5_19ResourceInspectOptsNtNtCs2aLnEu25Pl6_4clap6derive14FromArgMatches20from_arg_matches_mut
FNDA:2,_RNvXs8_NtNtCs6wcrk8Qgr6W_6nanocl6models8resourceNtB5_11ResourceRowNtNtCsjra9mVSv54w_6tabled6tabled6Tabled6fields
FNDA:1,_RNvXsr_NtNtCs6wcrk8Qgr6W_6nanocl6models8resourceNtB5_17ResourceResetOptsNtNtCs2aLnEu25Pl6_4clap6derive14FromArgMatches20from_arg_matches_mut
FNDA:1,_RNvXsm_NtNtCs6wcrk8Qgr6W_6nanocl6models8resourceNtB5_19ResourceHistoryOptsNtNtCs2aLnEu25Pl6_4clap6derive14FromArgMatches20from_arg_matches_mut
FNDA:1,_RNvXsc_NtNtCs6wcrk8Qgr6W_6nanocl6models8resourceNtB5_18ResourceRemoveOptsNtNtCs2aLnEu25Pl6_4clap6derive14FromArgMatches20from_arg_matches_mut
FNDA:1,_RNCNvXsc_NtNtCs6wcrk8Qgr6W_6nanocl6models8resourceNtB7_18ResourceRemoveOptsNtNtCs2aLnEu25Pl6_4clap6derive14FromArgMatches20from_arg_matches_muts_0Bb_
FNDA:2,_RNvXNtNtCs6wcrk8Qgr6W_6nanocl6models8resourceNtB2_11ResourceRowINtNtCshYNBHIop811_4core7convert4FromNtNtCsfutTBaew1Qf_12nanocl_stubs8resource8ResourceE4from
FNDA:0,_RNCNvXsc_NtNtCs6wcrk8Qgr6W_6nanocl6models8resourceNtB7_18ResourceRemoveOptsNtNtCs2aLnEu25Pl6_4clap6derive14FromArgMatches20from_arg_matches_mut0Bb_
FNDA:0,_RNCNvXsh_NtNtCs6wcrk8Qgr6W_6nanocl6models8resourceNtB7_19ResourceInspectOptsNtNtCs2aLnEu25Pl6_4clap6derive14FromArgMatches20from_arg_matches_mut0Bb_
FNDA:0,_RNCNvXsr_NtNtCs6wcrk8Qgr6W_6nanocl6models8resourceNtB7_17ResourceResetOptsNtNtCs2aLnEu25Pl6_4clap6derive14FromArgMatches20from_arg_matches_mut0Bb_
FNDA:37,_RNvXsd_NtNtCs6wcrk8Qgr6W_6nanocl6models8resourceNtB5_18ResourceRemoveOptsNtNtCs2aLnEu25Pl6_4clap6derive4Args12augment_args
FNDA:37,_RNvXsn_NtNtCs6wcrk8Qgr6W_6nanocl6models8resourceNtB5_19ResourceHistoryOptsNtNtCs2aLnEu25Pl6_4clap6derive4Args12augment_args
FNDA:37,_RNvXs6_NtNtCs6wcrk8Qgr6W_6nanocl6models8resourceNtB5_12ResourceArgsNtNtCs2aLnEu25Pl6_4clap6derive4Args12augment_args
FNDA:37,_RNvXs1_NtNtCs6wcrk8Qgr6W_6nanocl6models8resourceNtB5_16ResourceCommandsNtNtCs2aLnEu25Pl6_4clap6derive10Subcommand19augment_subcommands
FNDA:5,_RNvXs5_NtNtCs6wcrk8Qgr6W_6nanocl6models8resourceNtB5_12ResourceArgsNtNtCs2aLnEu25Pl6_4clap6derive14FromArgMatches20from_arg_matches_mut
FNDA:37,_RNvXsi_NtNtCs6wcrk8Qgr6W_6nanocl6models8resourceNtB5_19ResourceInspectOptsNtNtCs2aLnEu25Pl6_4clap6derive4Args12augment_args
FNDA:0,_RNCNvXsr_NtNtCs6wcrk8Qgr6W_6nanocl6models8resourceNtB7_17ResourceResetOptsNtNtCs2aLnEu25Pl6_4clap6derive14FromArgMatches20from_arg_matches_muts_0Bb_
FNDA:1,_RNvXs8_NtNtCs6wcrk8Qgr6W_6nanocl6models8resourceNtB5_11ResourceRowNtNtCsjra9mVSv54w_6tabled6tabled6Tabled7headers
FNF:21
FNH:9
DA:8,15
DA:25,5
DA:32,3
DA:42,2
DA:43,2
DA:44,2
DA:45,2
DA:46,2
DA:47,2
DA:48,2
DA:49,2
DA:50,2
DA:51,2
DA:52,2
DA:53,2
DA:54,2
DA:55,2
DA:56,2
DA:57,2
DA:58,2
DA:59,2
DA:60,2
DA:61,2
DA:62,2
DA:63,2
DA:66,38
DA:70,0
DA:71,0
DA:72,1
DA:75,38
DA:78,0
DA:81,38
DA:84,0
DA:87,38
DA:90,0
DA:92,0
BRF:0
BRH:0
LF:43
LH:30
end_of_record
SF:/home/leone/Documents/next-hat/nanocl/bin/nanocl/src/models/setup.rs
FN:3,_RNvXs2_NtNtCs6wcrk8Qgr6W_6nanocl6models5setupNtB5_9SetupOptsNtNtCs2aLnEu25Pl6_4clap6derive14FromArgMatches16from_arg_matches
FN:3,_RNvXs_NtNtCs6wcrk8Qgr6W_6nanocl6models5setupNtB4_9SetupOptsNtNtCshYNBHIop811_4core5clone5Clone5cloneB8_
FN:18,_RNCNvXs2_NtNtCs6wcrk8Qgr6W_6nanocl6models5setupNtB7_9SetupOptsNtNtCs2aLnEu25Pl6_4clap6derive14FromArgMatches27update_from_arg_matches_muts_0Bb_
FN:3,_RNvXs3_NtNtCs6wcrk8Qgr6W_6nanocl6models5setupNtB5_9SetupOptsNtNtCs2aLnEu25Pl6_4clap6derive4Args8group_id
FN:3,_RNvXs2_NtNtCs6wcrk8Qgr6W_6nanocl6models5setupNtB5_9SetupOptsNtNtCs2aLnEu25Pl6_4clap6derive14FromArgMatches23update_from_arg_matches
FN:3,_RNvXs2_NtNtCs6wcrk8Qgr6W_6nanocl6models5setupNtB5_9SetupOptsNtNtCs2aLnEu25Pl6_4clap6derive14FromArgMatches27update_from_arg_matches_mut
FN:3,_RNvXs1_NtNtCs6wcrk8Qgr6W_6nanocl6models5setupNtB5_9SetupOptsNtNtCs2aLnEu25Pl6_4clap6derive14CommandFactory18command_for_update
FN:14,_RNCNvXs2_NtNtCs6wcrk8Qgr6W_6nanocl6models5setupNtB7_9SetupOptsNtNtCs2aLnEu25Pl6_4clap6derive14FromArgMatches27update_from_arg_matches_mut0Bb_
FN:3,_RNvXNtNtCs6wcrk8Qgr6W_6nanocl6models5setupNtB2_9SetupOptsNtNtCshYNBHIop811_4core3fmt5Debug3fmt
FN:3,_RNvXs1_NtNtCs6wcrk8Qgr6W_6nanocl6models5setupNtB5_9SetupOptsNtNtCs2aLnEu25Pl6_4clap6derive14CommandFactory7command
FN:3,_RNvXs3_NtNtCs6wcrk8Qgr6W_6nanocl6models5setupNtB5_9SetupOptsNtNtCs2aLnEu25Pl6_4clap6derive4Args23augment_args_for_update
FN:18,_RNCNvXs2_NtNtCs6wcrk8Qgr6W_6nanocl6models5setupNtB7_9SetupOptsNtNtCs2aLnEu25Pl6_4clap6derive14FromArgMatches20from_arg_matches_muts_0Bb_
FN:3,_RNvXs2_NtNtCs6wcrk8Qgr6W_6nanocl6models5setupNtB5_9SetupOptsNtNtCs2aLnEu25Pl6_4clap6derive14FromArgMatches20from_arg_matches_mut
FN:14,_RNCNvXs2_NtNtCs6wcrk8Qgr6W_6nanocl6models5setupNtB7_9SetupOptsNtNtCs2aLnEu25Pl6_4clap6derive14FromArgMatches20from_arg_matches_mut0Bb_
FN:3,_RNvXs3_NtNtCs6wcrk8Qgr6W_6nanocl6models5setupNtB5_9SetupOptsNtNtCs2aLnEu25Pl6_4clap6derive4Args12augment_args
FNDA:0,_RNvXs2_NtNtCs6wcrk8Qgr6W_6nanocl6models5setupNtB5_9SetupOptsNtNtCs2aLnEu25Pl6_4clap6derive14FromArgMatches16from_arg_matches
FNDA:0,_RNvXs_NtNtCs6wcrk8Qgr6W_6nanocl6models5setupNtB4_9SetupOptsNtNtCshYNBHIop811_4core5clone5Clone5cloneB8_
FNDA:0,_RNCNvXs2_NtNtCs6wcrk8Qgr6W_6nanocl6models5setupNtB7_9SetupOptsNtNtCs2aLnEu25Pl6_4clap6derive14FromArgMatches27update_from_arg_matches_muts_0Bb_
FNDA:0,_RNvXs3_NtNtCs6wcrk8Qgr6W_6nanocl6models5setupNtB5_9SetupOptsNtNtCs2aLnEu25Pl6_4clap6derive4Args8group_id
FNDA:0,_RNvXs2_NtNtCs6wcrk8Qgr6W_6nanocl6models5setupNtB5_9SetupOptsNtNtCs2aLnEu25Pl6_4clap6derive14FromArgMatches23update_from_arg_matches
FNDA:0,_RNvXs2_NtNtCs6wcrk8Qgr6W_6nanocl6models5setupNtB5_9SetupOptsNtNtCs2aLnEu25Pl6_4clap6derive14FromArgMatches27update_from_arg_matches_mut
FNDA:0,_RNvXs1_NtNtCs6wcrk8Qgr6W_6nanocl6models5setupNtB5_9SetupOptsNtNtCs2aLnEu25Pl6_4clap6derive14CommandFactory18command_for_update
FNDA:0,_RNCNvXs2_NtNtCs6wcrk8Qgr6W_6nanocl6models5setupNtB7_9SetupOptsNtNtCs2aLnEu25Pl6_4clap6derive14FromArgMatches27update_from_arg_matches_mut0Bb_
FNDA:0,_RNvXNtNtCs6wcrk8Qgr6W_6nanocl6models5setupNtB2_9SetupOptsNtNtCshYNBHIop811_4core3fmt5Debug3fmt
FNDA:0,_RNvXs1_NtNtCs6wcrk8Qgr6W_6nanocl6models5setupNtB5_9SetupOptsNtNtCs2aLnEu25Pl6_4clap6derive14CommandFactory7command
FNDA:0,_RNvXs3_NtNtCs6wcrk8Qgr6W_6nanocl6models5setupNtB5_9SetupOptsNtNtCs2aLnEu25Pl6_4clap6derive4Args23augment_args_for_update
FNDA:0,_RNCNvXs2_NtNtCs6wcrk8Qgr6W_6nanocl6models5setupNtB7_9SetupOptsNtNtCs2aLnEu25Pl6_4clap6derive14FromArgMatches20from_arg_matches_muts_0Bb_
FNDA:0,_RNvXs2_NtNtCs6wcrk8Qgr6W_6nanocl6models5setupNtB5_9SetupOptsNtNtCs2aLnEu25Pl6_4clap6derive14FromArgMatches20from_arg_matches_mut
FNDA:0,_RNCNvXs2_NtNtCs6wcrk8Qgr6W_6nanocl6models5setupNtB7_9SetupOptsNtNtCs2aLnEu25Pl6_4clap6derive14FromArgMatches20from_arg_matches_mut0Bb_
FNDA:37,_RNvXs3_NtNtCs6wcrk8Qgr6W_6nanocl6models5setupNtB5_9SetupOptsNtNtCs2aLnEu25Pl6_4clap6derive4Args12augment_args
FNF:5
FNH:1
DA:3,37
DA:14,0
DA:18,0
BRF:0
BRH:0
LF:5
LH:1
end_of_record
SF:/home/leone/Documents/next-hat/nanocl/bin/nanocl/src/models/state.rs
FN:18,_RNvXs3_NtNtCs6wcrk8Qgr6W_6nanocl6models5stateNtB5_9StateOptsNtNtCs2aLnEu25Pl6_4clap6derive14CommandFactory18command_for_update
FN:4,_RINvXs0_NvXNvNtNtCs6wcrk8Qgr6W_6nanocl6models5states_1__NtBb_13StateBuildArgNtNtCse3fRS504XmB_5serde2de11Deserialize11deserializeNtB6_9___VisitorNtB1e_7Visitor9visit_seqpEBf_
FN:25,_RNCNvXs4_NtNtCs6wcrk8Qgr6W_6nanocl6models5stateNtB7_9StateOptsNtNtCs2aLnEu25Pl6_4clap6derive14FromArgMatches27update_from_arg_matches_muts_0Bb_
FN:18,_RNvXs4_NtNtCs6wcrk8Qgr6W_6nanocl6models5stateNtB5_9StateOptsNtNtCs2aLnEu25Pl6_4clap6derive14FromArgMatches27update_from_arg_matches_mut
FN:43,_RNvXsd_NtNtCs6wcrk8Qgr6W_6nanocl6models5stateNtB5_9StateArgsNtNtCs2aLnEu25Pl6_4clap6derive4Args23augment_args_for_update
FN:28,_RNCNvXs4_NtNtCs6wcrk8Qgr6W_6nanocl6models5stateNtB7_9StateOptsNtNtCs2aLnEu25Pl6_4clap6derive14FromArgMatches27update_from_arg_matches_muts0_0Bb_
FN:43,_RNvXs9_NtNtCs6wcrk8Qgr6W_6nanocl6models5stateNtB5_9StateArgsNtNtCshYNBHIop811_4core3fmt5Debug3fmt
FN:43,_RNvXsc_NtNtCs6wcrk8Qgr6W_6nanocl6models5stateNtB5_9StateArgsNtNtCs2aLnEu25Pl6_4clap6derive14FromArgMatches27update_from_arg_matches_mut
FN:31,_RNCNvXs4_NtNtCs6wcrk8Qgr6W_6nanocl6models5stateNtB7_9StateOptsNtNtCs2aLnEu25Pl6_4clap6derive14FromArgMatches27update_from_arg_matches_muts1_0Bb_
FN:18,_RNvXs4_NtNtCs6wcrk8Qgr6W_6nanocl6models5stateNtB5_9StateOptsNtNtCs2aLnEu25Pl6_4clap6derive14FromArgMatches16from_arg_matches
FN:43,_RNvXsc_NtNtCs6wcrk8Qgr6W_6nanocl6models5stateNtB5_9StateArgsNtNtCs2aLnEu25Pl6_4clap6derive14FromArgMatches23update_from_arg_matches
FN:18,_RNvXs3_NtNtCs6wcrk8Qgr6W_6nanocl6models5stateNtB5_9StateOptsNtNtCs2aLnEu25Pl6_4clap6derive14CommandFactory7command
FN:4,_RNvXNtNtCs6wcrk8Qgr6W_6nanocl6models5stateNtB2_13StateBuildArgNtNtCshYNBHIop811_4core3fmt5Debug3fmt
FN:34,_RNvXs6_NtNtCs6wcrk8Qgr6W_6nanocl6models5stateNtB5_13StateCommandsNtNtCshYNBHIop811_4core3fmt5Debug3fmt
FN:22,_RNCNvXs4_NtNtCs6wcrk8Qgr6W_6nanocl6models5stateNtB7_9StateOptsNtNtCs2aLnEu25Pl6_4clap6derive14FromArgMatches27update_from_arg_matches_mut0Bb_
FN:18,_RNvXs5_NtNtCs6wcrk8Qgr6W_6nanocl6models5stateNtB5_9StateOptsNtNtCs2aLnEu25Pl6_4clap6derive4Args8group_id
FN:34,_RNvXs7_NtNtCs6wcrk8Qgr6W_6nanocl6models5stateNtB5_13StateCommandsNtNtCs2aLnEu25Pl6_4clap6derive14FromArgMatches27update_from_arg_matches_mut
FN:34,_RNvXs7_NtNtCs6wcrk8Qgr6W_6nanocl6models5stateNtB5_13StateCommandsNtNtCs2aLnEu25Pl6_4clap6derive14FromArgMatches23update_from_arg_matches
FN:43,_RNvXsc_NtNtCs6wcrk8Qgr6W_6nanocl6models5stateNtB5_9StateArgsNtNtCs2aLnEu25Pl6_4clap6derive14FromArgMatches16from_arg_matches
FN:18,_RNvXs4_NtNtCs6wcrk8Qgr6W_6nanocl6models5stateNtB5_9StateOptsNtNtCs2aLnEu25Pl6_4clap6derive14FromArgMatches23update_from_arg_matches
FN:4,_RINvXNvNtNtCs6wcrk8Qgr6W_6nanocl6models5state1__NtB5_13StateBuildArgNtNtCse3fRS504XmB_5serde3ser9Serialize9serializepEB9_
FN:12,_RINvXNvNtNtCs6wcrk8Qgr6W_6nanocl6models5states0_1__NtB5_14StateBuildArgsNtNtCse3fRS504XmB_5serde3ser9Serialize9serializepEB9_
FN:18,_RNvXs5_NtNtCs6wcrk8Qgr6W_6nanocl6models5stateNtB5_9StateOptsNtNtCs2aLnEu25Pl6_4clap6derive4Args23augment_args_for_update
FN:43,_RNvXsb_NtNtCs6wcrk8Qgr6W_6nanocl6models5stateNtB5_9StateArgsNtNtCs2aLnEu25Pl6_4clap6derive14CommandFactory18command_for_update
FN:12,_RINvXNvXNvNtNtCs6wcrk8Qgr6W_6nanocl6models5states1_1__NtB8_14StateBuildArgsNtNtCse3fRS504XmB_5serde2de11Deserialize11deserializeNtB3_14___FieldVisitorNtB1d_7Visitor11visit_bytespEBc_
FN:18,_RNvXs1_NtNtCs6wcrk8Qgr6W_6nanocl6models5stateNtB5_9StateOptsNtNtCshYNBHIop811_4core3fmt5Debug3fmt
FN:12,_RINvXs0_NvXNvNtNtCs6wcrk8Qgr6W_6nanocl6models5states1_1__NtBb_14StateBuildArgsNtNtCse3fRS504XmB_5serde2de11Deserialize11deserializeNtB6_9___VisitorNtB1g_7Visitor9visit_seqpEBf_
FN:4,_RINvXNvXNvNtNtCs6wcrk8Qgr6W_6nanocl6models5states_1__NtB8_13StateBuildArgNtNtCse3fRS504XmB_5serde2de11Deserialize11deserializeNtB3_14___FieldVisitorNtB1b_7Visitor11visit_bytespEBc_
FN:34,_RNvXs8_NtNtCs6wcrk8Qgr6W_6nanocl6models5stateNtB5_13StateCommandsNtNtCs2aLnEu25Pl6_4clap6derive10Subcommand30augment_subcommands_for_update
FN:34,_RNvXs7_NtNtCs6wcrk8Qgr6W_6nanocl6models5stateNtB5_13StateCommandsNtNtCs2aLnEu25Pl6_4clap6derive14FromArgMatches16from_arg_matches
FN:34,_RNvXs8_NtNtCs6wcrk8Qgr6W_6nanocl6models5stateNtB5_13StateCommandsNtNtCs2aLnEu25Pl6_4clap6derive10Subcommand14has_subcommand
FN:12,_RNvXs0_NtNtCs6wcrk8Qgr6W_6nanocl6models5stateNtB5_14StateBuildArgsNtNtCshYNBHIop811_4core3fmt5Debug3fmt
FN:43,_RNvXsb_NtNtCs6wcrk8Qgr6W_6nanocl6models5stateNtB5_9StateArgsNtNtCs2aLnEu25Pl6_4clap6derive14CommandFactory7command
FN:12,_RINvXNvXNvNtNtCs6wcrk8Qgr6W_6nanocl6models5states1_1__NtB8_14StateBuildArgsNtNtCse3fRS504XmB_5serde2de11Deserialize11deserializeNtB3_14___FieldVisitorNtB1d_7Visitor9visit_u64pEBc_
FN:43,_RNvXsd_NtNtCs6wcrk8Qgr6W_6nanocl6models5stateNtB5_9StateArgsNtNtCs2aLnEu25Pl6_4clap6derive4Args8group_id
FN:4,_RINvXNvXNvNtNtCs6wcrk8Qgr6W_6nanocl6models5states_1__NtB8_13StateBuildArgNtNtCse3fRS504XmB_5serde2de11Deserialize11deserializeNtB3_14___FieldVisitorNtB1b_7Visitor9visit_u64pEBc_
FN:34,_RNvXs7_NtNtCs6wcrk8Qgr6W_6nanocl6models5stateNtB5_13StateCommandsNtNtCs2aLnEu25Pl6_4clap6derive14FromArgMatches20from_arg_matches_mut
FN:4,_RINvXs0_NvXNvNtNtCs6wcrk8Qgr6W_6nanocl6models5states_1__NtBb_13StateBuildArgNtNtCse3fRS504XmB_5serde2de11Deserialize11deserializeNtB6_9___VisitorNtB1e_7Visitor9visit_mapQNtNtNtCs4jMWN2zKWPr_10serde_yaml5value2de15MapDeserializerEBf_
FN:12,_RNvXs0_NvXNvNtNtCs6wcrk8Qgr6W_6nanocl6models5states1_1__NtBa_14StateBuildArgsNtNtCse3fRS504XmB_5serde2de11Deserialize11deserializeNtB5_9___VisitorNtB1f_7Visitor9expecting
FN:12,_RINvXs0_NvXNvNtNtCs6wcrk8Qgr6W_6nanocl6models5states1_1__NtBb_14StateBuildArgsNtNtCse3fRS504XmB_5serde2de11Deserialize11deserializeNtB6_9___VisitorNtB1g_7Visitor9visit_mapQNtNtNtCs4jMWN2zKWPr_10serde_yaml5value2de15MapDeserializerEBf_
FN:12,_RINvXs_NvXNvNtNtCs6wcrk8Qgr6W_6nanocl6models5states1_1__NtBa_14StateBuildArgsNtNtCse3fRS504XmB_5serde2de11Deserialize11deserializeNtB5_7___FieldB1d_11deserializeNtNtCs4jMWN2zKWPr_10serde_yaml5value5ValueEBe_
FN:28,_RNCNvXs4_NtNtCs6wcrk8Qgr6W_6nanocl6models5stateNtB7_9StateOptsNtNtCs2aLnEu25Pl6_4clap6derive14FromArgMatches20from_arg_matches_muts0_0Bb_
FN:12,_RINvXNvNtNtCs6wcrk8Qgr6W_6nanocl6models5states1_1__NtB5_14StateBuildArgsNtNtCse3fRS504XmB_5serde2de11Deserialize11deserializeNtNtCs4jMWN2zKWPr_10serde_yaml5value5ValueEB9_
FN:43,_RNvXsc_NtNtCs6wcrk8Qgr6W_6nanocl6models5stateNtB5_9StateArgsNtNtCs2aLnEu25Pl6_4clap6derive14FromArgMatches20from_arg_matches_mut
FN:4,_RNvXs_NtNtCs6wcrk8Qgr6W_6nanocl6models5stateNtB4_13StateBuildArgNtNtCshYNBHIop811_4core5clone5Clone5cloneB8_
FN:12,_RINvXNvXNvNtNtCs6wcrk8Qgr6W_6nanocl6models5states1_1__NtB8_14StateBuildArgsNtNtCse3fRS504XmB_5serde2de11Deserialize11deserializeNtB3_14___FieldVisitorNtB1d_7Visitor9visit_strNtNtCs4jMWN2zKWPr_10serde_yaml5error5ErrorEBc_
FN:4,_RINvXs_NvXNvNtNtCs6wcrk8Qgr6W_6nanocl6models5states_1__NtBa_13StateBuildArgNtNtCse3fRS504XmB_5serde2de11Deserialize11deserializeNtB5_7___FieldB1b_11deserializeNtNtCs4jMWN2zKWPr_10serde_yaml5value5ValueEBe_
FN:22,_RNCNvXs4_NtNtCs6wcrk8Qgr6W_6nanocl6models5stateNtB7_9StateOptsNtNtCs2aLnEu25Pl6_4clap6derive14FromArgMatches20from_arg_matches_mut0Bb_
FN:34,_RNvXs8_NtNtCs6wcrk8Qgr6W_6nanocl6models5stateNtB5_13StateCommandsNtNtCs2aLnEu25Pl6_4clap6derive10Subcommand19augment_subcommands
FN:18,_RNvXs4_NtNtCs6wcrk8Qgr6W_6nanocl6models5stateNtB5_9StateOptsNtNtCs2aLnEu25Pl6_4clap6derive14FromArgMatches20from_arg_matches_mut
FN:4,_RNvXs0_NvXNvNtNtCs6wcrk8Qgr6W_6nanocl6models5states_1__NtBa_13StateBuildArgNtNtCse3fRS504XmB_5serde2de11Deserialize11deserializeNtB5_9___VisitorNtB1d_7Visitor9expecting
FN:12,_RNvXNvXNvNtNtCs6wcrk8Qgr6W_6nanocl6models5states1_1__NtB7_14StateBuildArgsNtNtCse3fRS504XmB_5serde2de11Deserialize11deserializeNtB2_14___FieldVisitorNtB1c_7Visitor9expecting
FN:25,_RNCNvXs4_NtNtCs6wcrk8Qgr6W_6nanocl6models5stateNtB7_9StateOptsNtNtCs2aLnEu25Pl6_4clap6derive14FromArgMatches20from_arg_matches_muts_0Bb_
FN:31,_RNCNvXs4_NtNtCs6wcrk8Qgr6W_6nanocl6models5stateNtB7_9StateOptsNtNtCs2aLnEu25Pl6_4clap6derive14FromArgMatches20from_arg_matches_muts1_0Bb_
FN:18,_RNvXs5_NtNtCs6wcrk8Qgr6W_6nanocl6models5stateNtB5_9StateOptsNtNtCs2aLnEu25Pl6_4clap6derive4Args12augment_args
FN:4,_RINvXNvXNvNtNtCs6wcrk8Qgr6W_6nanocl6models5states_1__NtB8_13StateBuildArgNtNtCse3fRS504XmB_5serde2de11Deserialize11deserializeNtB3_14___FieldVisitorNtB1b_7Visitor9visit_strNtNtCs4jMWN2zKWPr_10serde_yaml5error5ErrorEBc_
FN:4,_RINvXNvNtNtCs6wcrk8Qgr6W_6nanocl6models5states_1__NtB5_13StateBuildArgNtNtCse3fRS504XmB_5serde2de11Deserialize11deserializeNtNtCs4jMWN2zKWPr_10serde_yaml5value5ValueEB9_
FN:4,_RNvXNvXNvNtNtCs6wcrk8Qgr6W_6nanocl6models5states_1__NtB7_13StateBuildArgNtNtCse3fRS504XmB_5serde2de11Deserialize11deserializeNtB2_14___FieldVisitorNtB1a_7Visitor9expecting
FN:43,_RNvXsd_NtNtCs6wcrk8Qgr6W_6nanocl6models5stateNtB5_9StateArgsNtNtCs2aLnEu25Pl6_4clap6derive4Args12augment_args
FNDA:0,_RNvXs3_NtNtCs6wcrk8Qgr6W_6nanocl6models5stateNtB5_9StateOptsNtNtCs2aLnEu25Pl6_4clap6derive14CommandFactory18command_for_update
FNDA:0,_RINvXs0_NvXNvNtNtCs6wcrk8Qgr6W_6nanocl6models5states_1__NtBb_13StateBuildArgNtNtCse3fRS504XmB_5serde2de11Deserialize11deserializeNtB6_9___VisitorNtB1e_7Visitor9visit_seqpEBf_
FNDA:0,_RNCNvXs4_NtNtCs6wcrk8Qgr6W_6nanocl6models5stateNtB7_9StateOptsNtNtCs2aLnEu25Pl6_4clap6derive14FromArgMatches27update_from_arg_matches_muts_0Bb_
FNDA:0,_RNvXs4_NtNtCs6wcrk8Qgr6W_6nanocl6models5stateNtB5_9StateOptsNtNtCs2aLnEu25Pl6_4clap6derive14FromArgMatches27update_from_arg_matches_mut
FNDA:0,_RNvXsd_NtNtCs6wcrk8Qgr6W_6nanocl6models5stateNtB5_9StateArgsNtNtCs2aLnEu25Pl6_4clap6derive4Args23augment_args_for_update
FNDA:0,_RNCNvXs4_NtNtCs6wcrk8Qgr6W_6nanocl6models5stateNtB7_9StateOptsNtNtCs2aLnEu25Pl6_4clap6derive14FromArgMatches27update_from_arg_matches_muts0_0Bb_
FNDA:0,_RNvXs9_NtNtCs6wcrk8Qgr6W_6nanocl6models5stateNtB5_9StateArgsNtNtCshYNBHIop811_4core3fmt5Debug3fmt
FNDA:0,_RNvXsc_NtNtCs6wcrk8Qgr6W_6nanocl6models5stateNtB5_9StateArgsNtNtCs2aLnEu25Pl6_4clap6derive14FromArgMatches27update_from_arg_matches_mut
FNDA:0,_RNCNvXs4_NtNtCs6wcrk8Qgr6W_6nanocl6models5stateNtB7_9StateOptsNtNtCs2aLnEu25Pl6_4clap6derive14FromArgMatches27update_from_arg_matches_muts1_0Bb_
FNDA:0,_RNvXs4_NtNtCs6wcrk8Qgr6W_6nanocl6models5stateNtB5_9StateOptsNtNtCs2aLnEu25Pl6_4clap6derive14FromArgMatches16from_arg_matches
FNDA:0,_RNvXsc_NtNtCs6wcrk8Qgr6W_6nanocl6models5stateNtB5_9StateArgsNtNtCs2aLnEu25Pl6_4clap6derive14FromArgMatches23update_from_arg_matches
FNDA:0,_RNvXs3_NtNtCs6wcrk8Qgr6W_6nanocl6models5stateNtB5_9StateOptsNtNtCs2aLnEu25Pl6_4clap6derive14CommandFactory7command
FNDA:0,_RNvXNtNtCs6wcrk8Qgr6W_6nanocl6models5stateNtB2_13StateBuildArgNtNtCshYNBHIop811_4core3fmt5Debug3fmt
FNDA:0,_RNvXs6_NtNtCs6wcrk8Qgr6W_6nanocl6models5stateNtB5_13StateCommandsNtNtCshYNBHIop811_4core3fmt5Debug3fmt
FNDA:0,_RNCNvXs4_NtNtCs6wcrk8Qgr6W_6nanocl6models5stateNtB7_9StateOptsNtNtCs2aLnEu25Pl6_4clap6derive14FromArgMatches27update_from_arg_matches_mut0Bb_
FNDA:0,_RNvXs5_NtNtCs6wcrk8Qgr6W_6nanocl6models5stateNtB5_9StateOptsNtNtCs2aLnEu25Pl6_4clap6derive4Args8group_id
FNDA:0,_RNvXs7_NtNtCs6wcrk8Qgr6W_6nanocl6models5stateNtB5_13StateCommandsNtNtCs2aLnEu25Pl6_4clap6derive14FromArgMatches27update_from_arg_matches_mut
FNDA:0,_RNvXs7_NtNtCs6wcrk8Qgr6W_6nanocl6models5stateNtB5_13StateCommandsNtNtCs2aLnEu25Pl6_4clap6derive14FromArgMatches23update_from_arg_matches
FNDA:0,_RNvXsc_NtNtCs6wcrk8Qgr6W_6nanocl6models5stateNtB5_9StateArgsNtNtCs2aLnEu25Pl6_4clap6derive14FromArgMatches16from_arg_matches
FNDA:0,_RNvXs4_NtNtCs6wcrk8Qgr6W_6nanocl6models5stateNtB5_9StateOptsNtNtCs2aLnEu25Pl6_4clap6derive14FromArgMatches23update_from_arg_matches
FNDA:0,_RINvXNvNtNtCs6wcrk8Qgr6W_6nanocl6models5state1__NtB5_13StateBuildArgNtNtCse3fRS504XmB_5serde3ser9Serialize9serializepEB9_
FNDA:0,_RINvXNvNtNtCs6wcrk8Qgr6W_6nanocl6models5states0_1__NtB5_14StateBuildArgsNtNtCse3fRS504XmB_5serde3ser9Serialize9serializepEB9_
FNDA:0,_RNvXs5_NtNtCs6wcrk8Qgr6W_6nanocl6models5stateNtB5_9StateOptsNtNtCs2aLnEu25Pl6_4clap6derive4Args23augment_args_for_update
FNDA:0,_RNvXsb_NtNtCs6wcrk8Qgr6W_6nanocl6models5stateNtB5_9StateArgsNtNtCs2aLnEu25Pl6_4clap6derive14CommandFactory18command_for_update
FNDA:0,_RINvXNvXNvNtNtCs6wcrk8Qgr6W_6nanocl6models5states1_1__NtB8_14StateBuildArgsNtNtCse3fRS504XmB_5serde2de11Deserialize11deserializeNtB3_14___FieldVisitorNtB1d_7Visitor11visit_bytespEBc_
FNDA:0,_RNvXs1_NtNtCs6wcrk8Qgr6W_6nanocl6models5stateNtB5_9StateOptsNtNtCshYNBHIop811_4core3fmt5Debug3fmt
FNDA:0,_RINvXs0_NvXNvNtNtCs6wcrk8Qgr6W_6nanocl6models5states1_1__NtBb_14StateBuildArgsNtNtCse3fRS504XmB_5serde2de11Deserialize11deserializeNtB6_9___VisitorNtB1g_7Visitor9visit_seqpEBf_
FNDA:0,_RINvXNvXNvNtNtCs6wcrk8Qgr6W_6nanocl6models5states_1__NtB8_13StateBuildArgNtNtCse3fRS504XmB_5serde2de11Deserialize11deserializeNtB3_14___FieldVisitorNtB1b_7Visitor11visit_bytespEBc_
FNDA:0,_RNvXs8_NtNtCs6wcrk8Qgr6W_6nanocl6models5stateNtB5_13StateCommandsNtNtCs2aLnEu25Pl6_4clap6derive10Subcommand30augment_subcommands_for_update
FNDA:0,_RNvXs7_NtNtCs6wcrk8Qgr6W_6nanocl6models5stateNtB5_13StateCommandsNtNtCs2aLnEu25Pl6_4clap6derive14FromArgMatches16from_arg_matches
FNDA:0,_RNvXs8_NtNtCs6wcrk8Qgr6W_6nanocl6models5stateNtB5_13StateCommandsNtNtCs2aLnEu25Pl6_4clap6derive10Subcommand14has_subcommand
FNDA:0,_RNvXs0_NtNtCs6wcrk8Qgr6W_6nanocl6models5stateNtB5_14StateBuildArgsNtNtCshYNBHIop811_4core3fmt5Debug3fmt
FNDA:0,_RNvXsb_NtNtCs6wcrk8Qgr6W_6nanocl6models5stateNtB5_9StateArgsNtNtCs2aLnEu25Pl6_4clap6derive14CommandFactory7command
FNDA:0,_RINvXNvXNvNtNtCs6wcrk8Qgr6W_6nanocl6models5states1_1__NtB8_14StateBuildArgsNtNtCse3fRS504XmB_5serde2de11Deserialize11deserializeNtB3_14___FieldVisitorNtB1d_7Visitor9visit_u64pEBc_
FNDA:0,_RNvXsd_NtNtCs6wcrk8Qgr6W_6nanocl6models5stateNtB5_9StateArgsNtNtCs2aLnEu25Pl6_4clap6derive4Args8group_id
FNDA:0,_RINvXNvXNvNtNtCs6wcrk8Qgr6W_6nanocl6models5states_1__NtB8_13StateBuildArgNtNtCse3fRS504XmB_5serde2de11Deserialize11deserializeNtB3_14___FieldVisitorNtB1b_7Visitor9visit_u64pEBc_
FNDA:0,_RNvXs7_NtNtCs6wcrk8Qgr6W_6nanocl6models5stateNtB5_13StateCommandsNtNtCs2aLnEu25Pl6_4clap6derive14FromArgMatches20from_arg_matches_mut
FNDA:0,_RINvXs0_NvXNvNtNtCs6wcrk8Qgr6W_6nanocl6models5states_1__NtBb_13StateBuildArgNtNtCse3fRS504XmB_5serde2de11Deserialize11deserializeNtB6_9___VisitorNtB1e_7Visitor9visit_mapQNtNtNtCs4jMWN2zKWPr_10serde_yaml5value2de15MapDeserializerEBf_
FNDA:0,_RNvXs0_NvXNvNtNtCs6wcrk8Qgr6W_6nanocl6models5states1_1__NtBa_14StateBuildArgsNtNtCse3fRS504XmB_5serde2de11Deserialize11deserializeNtB5_9___VisitorNtB1f_7Visitor9expecting
FNDA:8,_RINvXs0_NvXNvNtNtCs6wcrk8Qgr6W_6nanocl6models5states1_1__NtBb_14StateBuildArgsNtNtCse3fRS504XmB_5serde2de11Deserialize11deserializeNtB6_9___VisitorNtB1g_7Visitor9visit_mapQNtNtNtCs4jMWN2zKWPr_10serde_yaml5value2de15MapDeserializerEBf_
FNDA:35,_RINvXs_NvXNvNtNtCs6wcrk8Qgr6W_6nanocl6models5states1_1__NtBa_14StateBuildArgsNtNtCse3fRS504XmB_5serde2de11Deserialize11deserializeNtB5_7___FieldB1d_11deserializeNtNtCs4jMWN2zKWPr_10serde_yaml5value5ValueEBe_
FNDA:0,_RNCNvXs4_NtNtCs6wcrk8Qgr6W_6nanocl6models5stateNtB7_9StateOptsNtNtCs2aLnEu25Pl6_4clap6derive14FromArgMatches20from_arg_matches_muts0_0Bb_
FNDA:8,_RINvXNvNtNtCs6wcrk8Qgr6W_6nanocl6models5states1_1__NtB5_14StateBuildArgsNtNtCse3fRS504XmB_5serde2de11Deserialize11deserializeNtNtCs4jMWN2zKWPr_10serde_yaml5value5ValueEB9_
FNDA:8,_RNvXsc_NtNtCs6wcrk8Qgr6W_6nanocl6models5stateNtB5_9StateArgsNtNtCs2aLnEu25Pl6_4clap6derive14FromArgMatches20from_arg_matches_mut
FNDA:0,_RNvXs_NtNtCs6wcrk8Qgr6W_6nanocl6models5stateNtB4_13StateBuildArgNtNtCshYNBHIop811_4core5clone5Clone5cloneB8_
FNDA:35,_RINvXNvXNvNtNtCs6wcrk8Qgr6W_6nanocl6models5states1_1__NtB8_14StateBuildArgsNtNtCse3fRS504XmB_5serde2de11Deserialize11deserializeNtB3_14___FieldVisitorNtB1d_7Visitor9visit_strNtNtCs4jMWN2zKWPr_10serde_yaml5error5ErrorEBc_
FNDA:0,_RINvXs_NvXNvNtNtCs6wcrk8Qgr6W_6nanocl6models5states_1__NtBa_13StateBuildArgNtNtCse3fRS504XmB_5serde2de11Deserialize11deserializeNtB5_7___FieldB1b_11deserializeNtNtCs4jMWN2zKWPr_10serde_yaml5value5ValueEBe_
FNDA:0,_RNCNvXs4_NtNtCs6wcrk8Qgr6W_6nanocl6models5stateNtB7_9StateOptsNtNtCs2aLnEu25Pl6_4clap6derive14FromArgMatches20from_arg_matches_mut0Bb_
FNDA:37,_RNvXs8_NtNtCs6wcrk8Qgr6W_6nanocl6models5stateNtB5_13StateCommandsNtNtCs2aLnEu25Pl6_4clap6derive10Subcommand19augment_subcommands
FNDA:8,_RNvXs4_NtNtCs6wcrk8Qgr6W_6nanocl6models5stateNtB5_9StateOptsNtNtCs2aLnEu25Pl6_4clap6derive14FromArgMatches20from_arg_matches_mut
FNDA:0,_RNvXs0_NvXNvNtNtCs6wcrk8Qgr6W_6nanocl6models5states_1__NtBa_13StateBuildArgNtNtCse3fRS504XmB_5serde2de11Deserialize11deserializeNtB5_9___VisitorNtB1d_7Visitor9expecting
FNDA:0,_RNvXNvXNvNtNtCs6wcrk8Qgr6W_6nanocl6models5states1_1__NtB7_14StateBuildArgsNtNtCse3fRS504XmB_5serde2de11Deserialize11deserializeNtB2_14___FieldVisitorNtB1c_7Visitor9expecting
FNDA:0,_RNCNvXs4_NtNtCs6wcrk8Qgr6W_6nanocl6models5stateNtB7_9StateOptsNtNtCs2aLnEu25Pl6_4clap6derive14FromArgMatches20from_arg_matches_muts_0Bb_
FNDA:0,_RNCNvXs4_NtNtCs6wcrk8Qgr6W_6nanocl6models5stateNtB7_9StateOptsNtNtCs2aLnEu25Pl6_4clap6derive14FromArgMatches20from_arg_matches_muts1_0Bb_
FNDA:74,_RNvXs5_NtNtCs6wcrk8Qgr6W_6nanocl6models5stateNtB5_9StateOptsNtNtCs2aLnEu25Pl6_4clap6derive4Args12augment_args
FNDA:0,_RINvXNvXNvNtNtCs6wcrk8Qgr6W_6nanocl6models5states_1__NtB8_13StateBuildArgNtNtCse3fRS504XmB_5serde2de11Deserialize11deserializeNtB3_14___FieldVisitorNtB1b_7Visitor9visit_strNtNtCs4jMWN2zKWPr_10serde_yaml5error5ErrorEBc_
FNDA:0,_RINvXNvNtNtCs6wcrk8Qgr6W_6nanocl6models5states_1__NtB5_13StateBuildArgNtNtCse3fRS504XmB_5serde2de11Deserialize11deserializeNtNtCs4jMWN2zKWPr_10serde_yaml5value5ValueEB9_
FNDA:0,_RNvXNvXNvNtNtCs6wcrk8Qgr6W_6nanocl6models5states_1__NtB7_13StateBuildArgNtNtCse3fRS504XmB_5serde2de11Deserialize11deserializeNtB2_14___FieldVisitorNtB1a_7Visitor9expecting
FNDA:37,_RNvXsd_NtNtCs6wcrk8Qgr6W_6nanocl6models5stateNtB5_9StateArgsNtNtCs2aLnEu25Pl6_4clap6derive4Args12augment_args
FNF:17
FNH:4
DA:4,0
DA:12,43
DA:18,82
DA:22,0
DA:25,0
DA:26,0
DA:28,0
DA:29,0
DA:31,0
DA:34,11
DA:43,8
BRF:0
BRH:0
LF:19
LH:4
end_of_record
SF:/home/leone/Documents/next-hat/nanocl/bin/nanocl/src/models/system.rs
FN:8,_RNvXs5_NtNtCs6wcrk8Qgr6W_6nanocl6models6systemNtB5_11ProcessOptsNtNtCs2aLnEu25Pl6_4clap6derive4Args23augment_args_for_update
FN:8,_RNvXs4_NtNtCs6wcrk8Qgr6W_6nanocl6models6systemNtB5_11ProcessOptsNtNtCs2aLnEu25Pl6_4clap6derive14FromArgMatches27update_from_arg_matches_mut
FN:8,_RNvXs5_NtNtCs6wcrk8Qgr6W_6nanocl6models6systemNtB5_11ProcessOptsNtNtCs2aLnEu25Pl6_4clap6derive4Args8group_id
FN:8,_RNvXs3_NtNtCs6wcrk8Qgr6W_6nanocl6models6systemNtB5_11ProcessOptsNtNtCs2aLnEu25Pl6_4clap6derive14CommandFactory7command
FN:8,_RNvXs3_NtNtCs6wcrk8Qgr6W_6nanocl6models6systemNtB5_11ProcessOptsNtNtCs2aLnEu25Pl6_4clap6derive14CommandFactory18command_for_update
FN:12,_RNCNvXs4_NtNtCs6wcrk8Qgr6W_6nanocl6models6systemNtB7_11ProcessOptsNtNtCs2aLnEu25Pl6_4clap6derive14FromArgMatches27update_from_arg_matches_mut0Bb_
FN:18,_RNCNvXs4_NtNtCs6wcrk8Qgr6W_6nanocl6models6systemNtB7_11ProcessOptsNtNtCs2aLnEu25Pl6_4clap6derive14FromArgMatches27update_from_arg_matches_muts_0Bb_
FN:8,_RNvXs4_NtNtCs6wcrk8Qgr6W_6nanocl6models6systemNtB5_11ProcessOptsNtNtCs2aLnEu25Pl6_4clap6derive14FromArgMatches16from_arg_matches
FN:8,_RNvXs1_NtNtCs6wcrk8Qgr6W_6nanocl6models6systemNtB5_11ProcessOptsNtNtCshYNBHIop811_4core3fmt5Debug3fmt
FN:8,_RNvXs4_NtNtCs6wcrk8Qgr6W_6nanocl6models6systemNtB5_11ProcessOptsNtNtCs2aLnEu25Pl6_4clap6derive14FromArgMatches23update_from_arg_matches
FN:8,_RNvXs0_NtNtCs6wcrk8Qgr6W_6nanocl6models6systemNtB5_11ProcessOptsNtNtCshYNBHIop811_4core5clone5Clone5cloneB9_
FN:35,_RNvXs6_NtNtCs6wcrk8Qgr6W_6nanocl6models6systemNtB5_10ProcessRowNtNtCsjra9mVSv54w_6tabled6tabled6Tabled6fields
FN:48,_RNvXs_NtNtCs6wcrk8Qgr6W_6nanocl6models6systemNtB4_10ProcessRowINtNtCshYNBHIop811_4core7convert4FromNtNtCsfutTBaew1Qf_12nanocl_stubs4node20NodeContainerSummaryE4from
FN:18,_RNCNvXs4_NtNtCs6wcrk8Qgr6W_6nanocl6models6systemNtB7_11ProcessOptsNtNtCs2aLnEu25Pl6_4clap6derive14FromArgMatches20from_arg_matches_muts_0Bb_
FN:8,_RNvXs4_NtNtCs6wcrk8Qgr6W_6nanocl6models6systemNtB5_11ProcessOptsNtNtCs2aLnEu25Pl6_4clap6derive14FromArgMatches20from_arg_matches_mut
FN:12,_RNCNvXs4_NtNtCs6wcrk8Qgr6W_6nanocl6models6systemNtB7_11ProcessOptsNtNtCs2aLnEu25Pl6_4clap6derive14FromArgMatches20from_arg_matches_mut0Bb_
FN:8,_RNvXs5_NtNtCs6wcrk8Qgr6W_6nanocl6models6systemNtB5_11ProcessOptsNtNtCs2aLnEu25Pl6_4clap6derive4Args12augment_args
FN:35,_RNvXs6_NtNtCs6wcrk8Qgr6W_6nanocl6models6systemNtB5_10ProcessRowNtNtCsjra9mVSv54w_6tabled6tabled6Tabled7headers
FN:25,_RNvXNtNtCs6wcrk8Qgr6W_6nanocl6models6systemNtNtCsfutTBaew1Qf_12nanocl_stubs6system13ProccessQueryINtNtCshYNBHIop811_4core7convert4FromNtB2_11ProcessOptsE4from
FNDA:0,_RNvXs5_NtNtCs6wcrk8Qgr6W_6nanocl6models6systemNtB5_11ProcessOptsNtNtCs2aLnEu25Pl6_4clap6derive4Args23augment_args_for_update
FNDA:0,_RNvXs4_NtNtCs6wcrk8Qgr6W_6nanocl6models6systemNtB5_11ProcessOptsNtNtCs2aLnEu25Pl6_4clap6derive14FromArgMatches27update_from_arg_matches_mut
FNDA:0,_RNvXs5_NtNtCs6wcrk8Qgr6W_6nanocl6models6systemNtB5_11ProcessOptsNtNtCs2aLnEu25Pl6_4clap6derive4Args8group_id
FNDA:0,_RNvXs3_NtNtCs6wcrk8Qgr6W_6nanocl6models6systemNtB5_11ProcessOptsNtNtCs2aLnEu25Pl6_4clap6derive14CommandFactory7command
FNDA:0,_RNvXs3_NtNtCs6wcrk8Qgr6W_6nanocl6models6systemNtB5_11ProcessOptsNtNtCs2aLnEu25Pl6_4clap6derive14CommandFactory18command_for_update
FNDA:0,_RNCNvXs4_NtNtCs6wcrk8Qgr6W_6nanocl6models6systemNtB7_11ProcessOptsNtNtCs2aLnEu25Pl6_4clap6derive14FromArgMatches27update_from_arg_matches_mut0Bb_
FNDA:0,_RNCNvXs4_NtNtCs6wcrk8Qgr6W_6nanocl6models6systemNtB7_11ProcessOptsNtNtCs2aLnEu25Pl6_4clap6derive14FromArgMatches27update_from_arg_matches_muts_0Bb_
FNDA:0,_RNvXs4_NtNtCs6wcrk8Qgr6W_6nanocl6models6systemNtB5_11ProcessOptsNtNtCs2aLnEu25Pl6_4clap6derive14FromArgMatches16from_arg_matches
FNDA:0,_RNvXs1_NtNtCs6wcrk8Qgr6W_6nanocl6models6systemNtB5_11ProcessOptsNtNtCshYNBHIop811_4core3fmt5Debug3fmt
FNDA:0,_RNvXs4_NtNtCs6wcrk8Qgr6W_6nanocl6models6systemNtB5_11ProcessOptsNtNtCs2aLnEu25Pl6_4clap6derive14FromArgMatches23update_from_arg_matches
FNDA:0,_RNvXs0_NtNtCs6wcrk8Qgr6W_6nanocl6models6systemNtB5_11ProcessOptsNtNtCshYNBHIop811_4core5clone5Clone5cloneB9_
FNDA:0,_RNvXs6_NtNtCs6wcrk8Qgr6W_6nanocl6models6systemNtB5_10ProcessRowNtNtCsjra9mVSv54w_6tabled6tabled6Tabled6fields
FNDA:0,_RNvXs_NtNtCs6wcrk8Qgr6W_6nanocl6models6systemNtB4_10ProcessRowINtNtCshYNBHIop811_4core7convert4FromNtNtCsfutTBaew1Qf_12nanocl_stubs4node20NodeContainerSummaryE4from
FNDA:0,_RNCNvXs4_NtNtCs6wcrk8Qgr6W_6nanocl6models6systemNtB7_11ProcessOptsNtNtCs2aLnEu25Pl6_4clap6derive14FromArgMatches20from_arg_matches_muts_0Bb_
FNDA:0,_RNvXs4_NtNtCs6wcrk8Qgr6W_6nanocl6models6systemNtB5_11ProcessOptsNtNtCs2aLnEu25Pl6_4clap6derive14FromArgMatches20from_arg_matches_mut
FNDA:0,_RNCNvXs4_NtNtCs6wcrk8Qgr6W_6nanocl6models6systemNtB7_11ProcessOptsNtNtCs2aLnEu25Pl6_4clap6derive14FromArgMatches20from_arg_matches_mut0Bb_
FNDA:37,_RNvXs5_NtNtCs6wcrk8Qgr6W_6nanocl6models6systemNtB5_11ProcessOptsNtNtCs2aLnEu25Pl6_4clap6derive4Args12augment_args
FNDA:0,_RNvXs6_NtNtCs6wcrk8Qgr6W_6nanocl6models6systemNtB5_10ProcessRowNtNtCsjra9mVSv54w_6tabled6tabled6Tabled7headers
FNDA:0,_RNvXNtNtCs6wcrk8Qgr6W_6nanocl6models6systemNtNtCsfutTBaew1Qf_12nanocl_stubs6system13ProccessQueryINtNtCshYNBHIop811_4core7convert4FromNtB2_11ProcessOptsE4from
FNF:8
FNH:1
DA:8,37
DA:12,0
DA:13,0
DA:18,0
DA:19,0
DA:25,0
DA:26,0
DA:27,0
DA:28,0
DA:29,0
DA:30,0
DA:31,0
DA:32,0
DA:35,0
DA:48,0
DA:49,0
DA:50,0
DA:51,0
DA:52,0
DA:53,0
DA:54,0
DA:55,0
DA:56,0
DA:57,0
DA:58,0
DA:59,0
DA:60,0
DA:62,0
DA:65,0
DA:66,0
DA:67,0
DA:68,0
DA:69,0
DA:71,0
DA:72,0
DA:73,0
DA:75,0
DA:76,0
DA:77,0
DA:78,0
DA:79,0
DA:80,0
DA:81,0
DA:82,0
DA:83,0
DA:84,0
DA:85,0
DA:86,0
DA:87,0
DA:88,0
DA:89,0
DA:90,0
DA:91,0
DA:92,0
DA:93,0
BRF:0
BRH:0
LF:57
LH:1
end_of_record
SF:/home/leone/Documents/next-hat/nanocl/bin/nanocl/src/models/version.rs
FN:4,_RNvXs2_NtNtCs6wcrk8Qgr6W_6nanocl6models7versionNtB5_11VersionArgsNtNtCs2aLnEu25Pl6_4clap6derive4Args12augment_args
FN:4,_RNvXs1_NtNtCs6wcrk8Qgr6W_6nanocl6models7versionNtB5_11VersionArgsNtNtCs2aLnEu25Pl6_4clap6derive14FromArgMatches16from_arg_matches
FN:4,_RNvXNtNtCs6wcrk8Qgr6W_6nanocl6models7versionNtB2_11VersionArgsNtNtCshYNBHIop811_4core3fmt5Debug3fmt
FN:4,_RNvXs1_NtNtCs6wcrk8Qgr6W_6nanocl6models7versionNtB5_11VersionArgsNtNtCs2aLnEu25Pl6_4clap6derive14FromArgMatches23update_from_arg_matches
FN:4,_RNvXs1_NtNtCs6wcrk8Qgr6W_6nanocl6models7versionNtB5_11VersionArgsNtNtCs2aLnEu25Pl6_4clap6derive14FromArgMatches20from_arg_matches_mut
FN:4,_RNvXs1_NtNtCs6wcrk8Qgr6W_6nanocl6models7versionNtB5_11VersionArgsNtNtCs2aLnEu25Pl6_4clap6derive14FromArgMatches27update_from_arg_matches_mut
FN:4,_RNvXs0_NtNtCs6wcrk8Qgr6W_6nanocl6models7versionNtB5_11VersionArgsNtNtCs2aLnEu25Pl6_4clap6derive14CommandFactory7command
FN:4,_RNvXs0_NtNtCs6wcrk8Qgr6W_6nanocl6models7versionNtB5_11VersionArgsNtNtCs2aLnEu25Pl6_4clap6derive14CommandFactory18command_for_update
FN:4,_RNvXs2_NtNtCs6wcrk8Qgr6W_6nanocl6models7versionNtB5_11VersionArgsNtNtCs2aLnEu25Pl6_4clap6derive4Args8group_id
FN:4,_RNvXs2_NtNtCs6wcrk8Qgr6W_6nanocl6models7versionNtB5_11VersionArgsNtNtCs2aLnEu25Pl6_4clap6derive4Args23augment_args_for_update
FNDA:0,_RNvXs2_NtNtCs6wcrk8Qgr6W_6nanocl6models7versionNtB5_11VersionArgsNtNtCs2aLnEu25Pl6_4clap6derive4Args12augment_args
FNDA:0,_RNvXs1_NtNtCs6wcrk8Qgr6W_6nanocl6models7versionNtB5_11VersionArgsNtNtCs2aLnEu25Pl6_4clap6derive14FromArgMatches16from_arg_matches
FNDA:0,_RNvXNtNtCs6wcrk8Qgr6W_6nanocl6models7versionNtB2_11VersionArgsNtNtCshYNBHIop811_4core3fmt5Debug3fmt
FNDA:0,_RNvXs1_NtNtCs6wcrk8Qgr6W_6nanocl6models7versionNtB5_11VersionArgsNtNtCs2aLnEu25Pl6_4clap6derive14FromArgMatches23update_from_arg_matches
FNDA:0,_RNvXs1_NtNtCs6wcrk8Qgr6W_6nanocl6models7versionNtB5_11VersionArgsNtNtCs2aLnEu25Pl6_4clap6derive14FromArgMatches20from_arg_matches_mut
FNDA:0,_RNvXs1_NtNtCs6wcrk8Qgr6W_6nanocl6models7versionNtB5_11VersionArgsNtNtCs2aLnEu25Pl6_4clap6derive14FromArgMatches27update_from_arg_matches_mut
FNDA:0,_RNvXs0_NtNtCs6wcrk8Qgr6W_6nanocl6models7versionNtB5_11VersionArgsNtNtCs2aLnEu25Pl6_4clap6derive14CommandFactory7command
FNDA:0,_RNvXs0_NtNtCs6wcrk8Qgr6W_6nanocl6models7versionNtB5_11VersionArgsNtNtCs2aLnEu25Pl6_4clap6derive14CommandFactory18command_for_update
FNDA:0,_RNvXs2_NtNtCs6wcrk8Qgr6W_6nanocl6models7versionNtB5_11VersionArgsNtNtCs2aLnEu25Pl6_4clap6derive4Args8group_id
FNDA:0,_RNvXs2_NtNtCs6wcrk8Qgr6W_6nanocl6models7versionNtB5_11VersionArgsNtNtCs2aLnEu25Pl6_4clap6derive4Args23augment_args_for_update
FNF:2
FNH:0
DA:4,0
BRF:0
BRH:0
LF:2
LH:0
end_of_record
SF:/home/leone/Documents/next-hat/nanocl/bin/nanocl/src/models/vm.rs
FN:36,_RNCNvXs3_NtNtCs6wcrk8Qgr6W_6nanocl6models2vmNtB7_10VmCommandsNtNtCs2aLnEu25Pl6_4clap6derive14FromArgMatches27update_from_arg_matches_muts0_0Bb_
FN:153,_RNvXsk_NtNtCs6wcrk8Qgr6W_6nanocl6models2vmNtB5_12VmCreateOptsNtNtCs2aLnEu25Pl6_4clap6derive14CommandFactory18command_for_update
FN:243,_RNvXss_NtNtCs6wcrk8Qgr6W_6nanocl6models2vmNtB5_6VmArgsNtNtCs2aLnEu25Pl6_4clap6derive4Args8group_id
FN:52,_RNvXs9_NtNtCs6wcrk8Qgr6W_6nanocl6models2vmNtB5_11VmPatchOptsNtNtCs2aLnEu25Pl6_4clap6derive14FromArgMatches23update_from_arg_matches
FN:52,_RNvXs8_NtNtCs6wcrk8Qgr6W_6nanocl6models2vmNtB5_11VmPatchOptsNtNtCs2aLnEu25Pl6_4clap6derive14CommandFactory7command
FN:98,_RNvXsg_NtNtCs6wcrk8Qgr6W_6nanocl6models2vmNtB5_9VmRunOptsNtNtCs2aLnEu25Pl6_4clap6derive4Args8group_id
FN:153,_RNvXsm_NtNtCs6wcrk8Qgr6W_6nanocl6models2vmNtB5_12VmCreateOptsNtNtCs2aLnEu25Pl6_4clap6derive4Args23augment_args_for_update
FN:12,_RNvXs2_NtNtCs6wcrk8Qgr6W_6nanocl6models2vmNtB5_10VmCommandsNtNtCshYNBHIop811_4core3fmt5Debug3fmt
FN:177,_RNCNvXsl_NtNtCs6wcrk8Qgr6W_6nanocl6models2vmNtB7_12VmCreateOptsNtNtCs2aLnEu25Pl6_4clap6derive14FromArgMatches27update_from_arg_matches_mut0Bb_
FN:98,_RNvXsc_NtNtCs6wcrk8Qgr6W_6nanocl6models2vmNtB5_9VmRunOptsNtNtCshYNBHIop811_4core3fmt5Debug3fmt
FN:98,_RNvXse_NtNtCs6wcrk8Qgr6W_6nanocl6models2vmNtB5_9VmRunOptsNtNtCs2aLnEu25Pl6_4clap6derive14CommandFactory7command
FN:98,_RNvXsf_NtNtCs6wcrk8Qgr6W_6nanocl6models2vmNtB5_9VmRunOptsNtNtCs2aLnEu25Pl6_4clap6derive14FromArgMatches27update_from_arg_matches_mut
FN:55,_RNCNvXs9_NtNtCs6wcrk8Qgr6W_6nanocl6models2vmNtB7_11VmPatchOptsNtNtCs2aLnEu25Pl6_4clap6derive14FromArgMatches27update_from_arg_matches_mut0Bb_
FN:31,_RNCNvXs3_NtNtCs6wcrk8Qgr6W_6nanocl6models2vmNtB7_10VmCommandsNtNtCs2aLnEu25Pl6_4clap6derive14FromArgMatches27update_from_arg_matches_muts_0Bb_
FN:243,_RNvXss_NtNtCs6wcrk8Qgr6W_6nanocl6models2vmNtB5_6VmArgsNtNtCs2aLnEu25Pl6_4clap6derive4Args23augment_args_for_update
FN:52,_RNvXsa_NtNtCs6wcrk8Qgr6W_6nanocl6models2vmNtB5_11VmPatchOptsNtNtCs2aLnEu25Pl6_4clap6derive4Args8group_id
FN:12,_RNvXs3_NtNtCs6wcrk8Qgr6W_6nanocl6models2vmNtB5_10VmCommandsNtNtCs2aLnEu25Pl6_4clap6derive14FromArgMatches27update_from_arg_matches_mut
FN:243,_RNvXsq_NtNtCs6wcrk8Qgr6W_6nanocl6models2vmNtB5_6VmArgsNtNtCs2aLnEu25Pl6_4clap6derive14CommandFactory18command_for_update
FN:153,_RNvXsk_NtNtCs6wcrk8Qgr6W_6nanocl6models2vmNtB5_12VmCreateOptsNtNtCs2aLnEu25Pl6_4clap6derive14CommandFactory7command
FN:98,_RNvXsf_NtNtCs6wcrk8Qgr6W_6nanocl6models2vmNtB5_9VmRunOptsNtNtCs2aLnEu25Pl6_4clap6derive14FromArgMatches23update_from_arg_matches
FN:26,_RNCNvXs3_NtNtCs6wcrk8Qgr6W_6nanocl6models2vmNtB7_10VmCommandsNtNtCs2aLnEu25Pl6_4clap6derive14FromArgMatches27update_from_arg_matches_mut0Bb_
FN:179,_RNCNvXsl_NtNtCs6wcrk8Qgr6W_6nanocl6models2vmNtB7_12VmCreateOptsNtNtCs2aLnEu25Pl6_4clap6derive14FromArgMatches27update_from_arg_matches_muts_0Bb_
FN:243,_RNvXsr_NtNtCs6wcrk8Qgr6W_6nanocl6models2vmNtB5_6VmArgsNtNtCs2aLnEu25Pl6_4clap6derive14FromArgMatches23update_from_arg_matches
FN:52,_RNvXsa_NtNtCs6wcrk8Qgr6W_6nanocl6models2vmNtB5_11VmPatchOptsNtNtCs2aLnEu25Pl6_4clap6derive4Args23augment_args_for_update
FN:153,_RNvXsl_NtNtCs6wcrk8Qgr6W_6nanocl6models2vmNtB5_12VmCreateOptsNtNtCs2aLnEu25Pl6_4clap6derive14FromArgMatches27update_from_arg_matches_mut
FN:52,_RNvXs8_NtNtCs6wcrk8Qgr6W_6nanocl6models2vmNtB5_11VmPatchOptsNtNtCs2aLnEu25Pl6_4clap6derive14CommandFactory18command_for_update
FN:98,_RNvXsf_NtNtCs6wcrk8Qgr6W_6nanocl6models2vmNtB5_9VmRunOptsNtNtCs2aLnEu25Pl6_4clap6derive14FromArgMatches16from_arg_matches
FN:12,_RNvXs4_NtNtCs6wcrk8Qgr6W_6nanocl6models2vmNtB5_10VmCommandsNtNtCs2aLnEu25Pl6_4clap6derive10Subcommand14has_subcommand
FN:243,_RNvXsr_NtNtCs6wcrk8Qgr6W_6nanocl6models2vmNtB5_6VmArgsNtNtCs2aLnEu25Pl6_4clap6derive14FromArgMatches16from_arg_matches
FN:41,_RNCNvXs3_NtNtCs6wcrk8Qgr6W_6nanocl6models2vmNtB7_10VmCommandsNtNtCs2aLnEu25Pl6_4clap6derive14FromArgMatches27update_from_arg_matches_muts1_0Bb_
FN:52,_RNvXs9_NtNtCs6wcrk8Qgr6W_6nanocl6models2vmNtB5_11VmPatchOptsNtNtCs2aLnEu25Pl6_4clap6derive14FromArgMatches27update_from_arg_matches_mut
FN:12,_RNvXs3_NtNtCs6wcrk8Qgr6W_6nanocl6models2vmNtB5_10VmCommandsNtNtCs2aLnEu25Pl6_4clap6derive14FromArgMatches16from_arg_matches
FN:243,_RNvXso_NtNtCs6wcrk8Qgr6W_6nanocl6models2vmNtB5_6VmArgsNtNtCshYNBHIop811_4core3fmt5Debug3fmt
FN:46,_RNCNvXs3_NtNtCs6wcrk8Qgr6W_6nanocl6models2vmNtB7_10VmCommandsNtNtCs2aLnEu25Pl6_4clap6derive14FromArgMatches27update_from_arg_matches_muts2_0Bb_
FN:12,_RNvXs3_NtNtCs6wcrk8Qgr6W_6nanocl6models2vmNtB5_10VmCommandsNtNtCs2aLnEu25Pl6_4clap6derive14FromArgMatches23update_from_arg_matches
FN:153,_RNvXsm_NtNtCs6wcrk8Qgr6W_6nanocl6models2vmNtB5_12VmCreateOptsNtNtCs2aLnEu25Pl6_4clap6derive4Args8group_id
FN:153,_RNvXsl_NtNtCs6wcrk8Qgr6W_6nanocl6models2vmNtB5_12VmCreateOptsNtNtCs2aLnEu25Pl6_4clap6derive14FromArgMatches16from_arg_matches
FN:153,_RNvXsi_NtNtCs6wcrk8Qgr6W_6nanocl6models2vmNtB5_12VmCreateOptsNtNtCshYNBHIop811_4core3fmt5Debug3fmt
FN:12,_RNvXs4_NtNtCs6wcrk8Qgr6W_6nanocl6models2vmNtB5_10VmCommandsNtNtCs2aLnEu25Pl6_4clap6derive10Subcommand30augment_subcommands_for_update
FN:52,_RNvXs9_NtNtCs6wcrk8Qgr6W_6nanocl6models2vmNtB5_11VmPatchOptsNtNtCs2aLnEu25Pl6_4clap6derive14FromArgMatches16from_arg_matches
FN:52,_RNvXs6_NtNtCs6wcrk8Qgr6W_6nanocl6models2vmNtB5_11VmPatchOptsNtNtCshYNBHIop811_4core3fmt5Debug3fmt
FN:125,_RNCNvXsf_NtNtCs6wcrk8Qgr6W_6nanocl6models2vmNtB7_9VmRunOptsNtNtCs2aLnEu25Pl6_4clap6derive14FromArgMatches27update_from_arg_matches_mut0Bb_
FN:98,_RNvXse_NtNtCs6wcrk8Qgr6W_6nanocl6models2vmNtB5_9VmRunOptsNtNtCs2aLnEu25Pl6_4clap6derive14CommandFactory18command_for_update
FN:127,_RNCNvXsf_NtNtCs6wcrk8Qgr6W_6nanocl6models2vmNtB7_9VmRunOptsNtNtCs2aLnEu25Pl6_4clap6derive14FromArgMatches27update_from_arg_matches_muts_0Bb_
FN:153,_RNvXsl_NtNtCs6wcrk8Qgr6W_6nanocl6models2vmNtB5_12VmCreateOptsNtNtCs2aLnEu25Pl6_4clap6derive14FromArgMatches23update_from_arg_matches
FN:243,_RNvXsr_NtNtCs6wcrk8Qgr6W_6nanocl6models2vmNtB5_6VmArgsNtNtCs2aLnEu25Pl6_4clap6derive14FromArgMatches27update_from_arg_matches_mut
FN:243,_RNvXsq_NtNtCs6wcrk8Qgr6W_6nanocl6models2vmNtB5_6VmArgsNtNtCs2aLnEu25Pl6_4clap6derive14CommandFactory7command
FN:98,_RNvXsg_NtNtCs6wcrk8Qgr6W_6nanocl6models2vmNtB5_9VmRunOptsNtNtCs2aLnEu25Pl6_4clap6derive4Args23augment_args_for_update
FN:205,_RNvXsn_NtNtCs6wcrk8Qgr6W_6nanocl6models2vmNtB5_5VmRowNtNtCsjra9mVSv54w_6tabled6tabled6Tabled6fields
FN:205,_RNvXsn_NtNtCs6wcrk8Qgr6W_6nanocl6models2vmNtB5_5VmRowNtNtCsjra9mVSv54w_6tabled6tabled6Tabled7headers
FN:243,_RNvXsr_NtNtCs6wcrk8Qgr6W_6nanocl6models2vmNtB5_6VmArgsNtNtCs2aLnEu25Pl6_4clap6derive14FromArgMatches20from_arg_matches_mut
FN:41,_RNCNvXs3_NtNtCs6wcrk8Qgr6W_6nanocl6models2vmNtB7_10VmCommandsNtNtCs2aLnEu25Pl6_4clap6derive14FromArgMatches20from_arg_matches_muts1_0Bb_
FN:46,_RNCNvXs3_NtNtCs6wcrk8Qgr6W_6nanocl6models2vmNtB7_10VmCommandsNtNtCs2aLnEu25Pl6_4clap6derive14FromArgMatches20from_arg_matches_muts2_0Bb_
FN:36,_RNCNvXs3_NtNtCs6wcrk8Qgr6W_6nanocl6models2vmNtB7_10VmCommandsNtNtCs2aLnEu25Pl6_4clap6derive14FromArgMatches20from_arg_matches_muts0_0Bb_
FN:243,_RNvXss_NtNtCs6wcrk8Qgr6W_6nanocl6models2vmNtB5_6VmArgsNtNtCs2aLnEu25Pl6_4clap6derive4Args12augment_args
FN:153,_RNvXsh_NtNtCs6wcrk8Qgr6W_6nanocl6models2vmNtB5_12VmCreateOptsNtNtCshYNBHIop811_4core5clone5Clone5cloneB9_
FN:98,_RNvXsg_NtNtCs6wcrk8Qgr6W_6nanocl6models2vmNtB5_9VmRunOptsNtNtCs2aLnEu25Pl6_4clap6derive4Args12augment_args
FN:179,_RNCNvXsl_NtNtCs6wcrk8Qgr6W_6nanocl6models2vmNtB7_12VmCreateOptsNtNtCs2aLnEu25Pl6_4clap6derive14FromArgMatches20from_arg_matches_muts_0Bb_
FN:52,_RNvXs5_NtNtCs6wcrk8Qgr6W_6nanocl6models2vmNtB5_11VmPatchOptsNtNtCshYNBHIop811_4core5clone5Clone5cloneB9_
FN:31,_RNCNvXs3_NtNtCs6wcrk8Qgr6W_6nanocl6models2vmNtB7_10VmCommandsNtNtCs2aLnEu25Pl6_4clap6derive14FromArgMatches20from_arg_matches_muts_0Bb_
FN:55,_RNCNvXs9_NtNtCs6wcrk8Qgr6W_6nanocl6models2vmNtB7_11VmPatchOptsNtNtCs2aLnEu25Pl6_4clap6derive14FromArgMatches20from_arg_matches_mut0Bb_
FN:52,_RNvXsa_NtNtCs6wcrk8Qgr6W_6nanocl6models2vmNtB5_11VmPatchOptsNtNtCs2aLnEu25Pl6_4clap6derive4Args12augment_args
FN:153,_RNvXsl_NtNtCs6wcrk8Qgr6W_6nanocl6models2vmNtB5_12VmCreateOptsNtNtCs2aLnEu25Pl6_4clap6derive14FromArgMatches20from_arg_matches_mut
FN:12,_RNvXs3_NtNtCs6wcrk8Qgr6W_6nanocl6models2vmNtB5_10VmCommandsNtNtCs2aLnEu25Pl6_4clap6derive14FromArgMatches20from_arg_matches_mut
FN:177,_RNCNvXsl_NtNtCs6wcrk8Qgr6W_6nanocl6models2vmNtB7_12VmCreateOptsNtNtCs2aLnEu25Pl6_4clap6derive14FromArgMatches20from_arg_matches_mut0Bb_
FN:153,_RNvXsm_NtNtCs6wcrk8Qgr6W_6nanocl6models2vmNtB5_12VmCreateOptsNtNtCs2aLnEu25Pl6_4clap6derive4Args12augment_args
FN:125,_RNCNvXsf_NtNtCs6wcrk8Qgr6W_6nanocl6models2vmNtB7_9VmRunOptsNtNtCs2aLnEu25Pl6_4clap6derive14FromArgMatches20from_arg_matches_mut0Bb_
FN:12,_RNvXs4_NtNtCs6wcrk8Qgr6W_6nanocl6models2vmNtB5_10VmCommandsNtNtCs2aLnEu25Pl6_4clap6derive10Subcommand19augment_subcommands
FN:217,_RNvXs1_NtNtCs6wcrk8Qgr6W_6nanocl6models2vmNtB5_5VmRowINtNtCshYNBHIop811_4core7convert4FromNtNtCsfutTBaew1Qf_12nanocl_stubs2vm9VmSummaryE4from
FN:52,_RNvXs9_NtNtCs6wcrk8Qgr6W_6nanocl6models2vmNtB5_11VmPatchOptsNtNtCs2aLnEu25Pl6_4clap6derive14FromArgMatches20from_arg_matches_mut
FN:26,_RNCNvXs3_NtNtCs6wcrk8Qgr6W_6nanocl6models2vmNtB7_10VmCommandsNtNtCs2aLnEu25Pl6_4clap6derive14FromArgMatches20from_arg_matches_mut0Bb_
FN:98,_RNvXsb_NtNtCs6wcrk8Qgr6W_6nanocl6models2vmNtB5_9VmRunOptsNtNtCshYNBHIop811_4core5clone5Clone5cloneB9_
FN:127,_RNCNvXsf_NtNtCs6wcrk8Qgr6W_6nanocl6models2vmNtB7_9VmRunOptsNtNtCs2aLnEu25Pl6_4clap6derive14FromArgMatches20from_arg_matches_muts_0Bb_
FN:98,_RNvXsf_NtNtCs6wcrk8Qgr6W_6nanocl6models2vmNtB5_9VmRunOptsNtNtCs2aLnEu25Pl6_4clap6derive14FromArgMatches20from_arg_matches_mut
FN:131,_RNvXs_NtNtCs6wcrk8Qgr6W_6nanocl6models2vmNtNtCsfutTBaew1Qf_12nanocl_stubs9vm_config15VmConfigPartialINtNtCshYNBHIop811_4core7convert4FromNtB4_9VmRunOptsE4from
FN:80,_RNvXNtNtCs6wcrk8Qgr6W_6nanocl6models2vmNtNtCsfutTBaew1Qf_12nanocl_stubs9vm_config14VmConfigUpdateINtNtCshYNBHIop811_4core7convert4FromNtB2_11VmPatchOptsE4from
FN:183,_RNvXs0_NtNtCs6wcrk8Qgr6W_6nanocl6models2vmNtNtCsfutTBaew1Qf_12nanocl_stubs9vm_config15VmConfigPartialINtNtCshYNBHIop811_4core7convert4FromNtB5_12VmCreateOptsE4from
FNDA:0,_RNCNvXs3_NtNtCs6wcrk8Qgr6W_6nanocl6models2vmNtB7_10VmCommandsNtNtCs2aLnEu25Pl6_4clap6derive14FromArgMatches27update_from_arg_matches_muts0_0Bb_
FNDA:0,_RNvXsk_NtNtCs6wcrk8Qgr6W_6nanocl6models2vmNtB5_12VmCreateOptsNtNtCs2aLnEu25Pl6_4clap6derive14CommandFactory18command_for_update
FNDA:0,_RNvXss_NtNtCs6wcrk8Qgr6W_6nanocl6models2vmNtB5_6VmArgsNtNtCs2aLnEu25Pl6_4clap6derive4Args8group_id
FNDA:0,_RNvXs9_NtNtCs6wcrk8Qgr6W_6nanocl6models2vmNtB5_11VmPatchOptsNtNtCs2aLnEu25Pl6_4clap6derive14FromArgMatches23update_from_arg_matches
FNDA:0,_RNvXs8_NtNtCs6wcrk8Qgr6W_6nanocl6models2vmNtB5_11VmPatchOptsNtNtCs2aLnEu25Pl6_4clap6derive14CommandFactory7command
FNDA:0,_RNvXsg_NtNtCs6wcrk8Qgr6W_6nanocl6models2vmNtB5_9VmRunOptsNtNtCs2aLnEu25Pl6_4clap6derive4Args8group_id
FNDA:0,_RNvXsm_NtNtCs6wcrk8Qgr6W_6nanocl6models2vmNtB5_12VmCreateOptsNtNtCs2aLnEu25Pl6_4clap6derive4Args23augment_args_for_update
FNDA:0,_RNvXs2_NtNtCs6wcrk8Qgr6W_6nanocl6models2vmNtB5_10VmCommandsNtNtCshYNBHIop811_4core3fmt5Debug3fmt
FNDA:0,_RNCNvXsl_NtNtCs6wcrk8Qgr6W_6nanocl6models2vmNtB7_12VmCreateOptsNtNtCs2aLnEu25Pl6_4clap6derive14FromArgMatches27update_from_arg_matches_mut0Bb_
FNDA:0,_RNvXsc_NtNtCs6wcrk8Qgr6W_6nanocl6models2vmNtB5_9VmRunOptsNtNtCshYNBHIop811_4core3fmt5Debug3fmt
FNDA:0,_RNvXse_NtNtCs6wcrk8Qgr6W_6nanocl6models2vmNtB5_9VmRunOptsNtNtCs2aLnEu25Pl6_4clap6derive14CommandFactory7command
FNDA:0,_RNvXsf_NtNtCs6wcrk8Qgr6W_6nanocl6models2vmNtB5_9VmRunOptsNtNtCs2aLnEu25Pl6_4clap6derive14FromArgMatches27update_from_arg_matches_mut
FNDA:0,_RNCNvXs9_NtNtCs6wcrk8Qgr6W_6nanocl6models2vmNtB7_11VmPatchOptsNtNtCs2aLnEu25Pl6_4clap6derive14FromArgMatches27update_from_arg_matches_mut0Bb_
FNDA:0,_RNCNvXs3_NtNtCs6wcrk8Qgr6W_6nanocl6models2vmNtB7_10VmCommandsNtNtCs2aLnEu25Pl6_4clap6derive14FromArgMatches27update_from_arg_matches_muts_0Bb_
FNDA:0,_RNvXss_NtNtCs6wcrk8Qgr6W_6nanocl6models2vmNtB5_6VmArgsNtNtCs2aLnEu25Pl6_4clap6derive4Args23augment_args_for_update
FNDA:0,_RNvXsa_NtNtCs6wcrk8Qgr6W_6nanocl6models2vmNtB5_11VmPatchOptsNtNtCs2aLnEu25Pl6_4clap6derive4Args8group_id
FNDA:0,_RNvXs3_NtNtCs6wcrk8Qgr6W_6nanocl6models2vmNtB5_10VmCommandsNtNtCs2aLnEu25Pl6_4clap6derive14FromArgMatches27update_from_arg_matches_mut
FNDA:0,_RNvXsq_NtNtCs6wcrk8Qgr6W_6nanocl6models2vmNtB5_6VmArgsNtNtCs2aLnEu25Pl6_4clap6derive14CommandFactory18command_for_update
FNDA:0,_RNvXsk_NtNtCs6wcrk8Qgr6W_6nanocl6models2vmNtB5_12VmCreateOptsNtNtCs2aLnEu25Pl6_4clap6derive14CommandFactory7command
FNDA:0,_RNvXsf_NtNtCs6wcrk8Qgr6W_6nanocl6models2vmNtB5_9VmRunOptsNtNtCs2aLnEu25Pl6_4clap6derive14FromArgMatches23update_from_arg_matches
FNDA:0,_RNCNvXs3_NtNtCs6wcrk8Qgr6W_6nanocl6models2vmNtB7_10VmCommandsNtNtCs2aLnEu25Pl6_4clap6derive14FromArgMatches27update_from_arg_matches_mut0Bb_
FNDA:0,_RNCNvXsl_NtNtCs6wcrk8Qgr6W_6nanocl6models2vmNtB7_12VmCreateOptsNtNtCs2aLnEu25Pl6_4clap6derive14FromArgMatches27update_from_arg_matches_muts_0Bb_
FNDA:0,_RNvXsr_NtNtCs6wcrk8Qgr6W_6nanocl6models2vmNtB5_6VmArgsNtNtCs2aLnEu25Pl6_4clap6derive14FromArgMatches23update_from_arg_matches
FNDA:0,_RNvXsa_NtNtCs6wcrk8Qgr6W_6nanocl6models2vmNtB5_11VmPatchOptsNtNtCs2aLnEu25Pl6_4clap6derive4Args23augment_args_for_update
FNDA:0,_RNvXsl_NtNtCs6wcrk8Qgr6W_6nanocl6models2vmNtB5_12VmCreateOptsNtNtCs2aLnEu25Pl6_4clap6derive14FromArgMatches27update_from_arg_matches_mut
FNDA:0,_RNvXs8_NtNtCs6wcrk8Qgr6W_6nanocl6models2vmNtB5_11VmPatchOptsNtNtCs2aLnEu25Pl6_4clap6derive14CommandFactory18command_for_update
FNDA:0,_RNvXsf_NtNtCs6wcrk8Qgr6W_6nanocl6models2vmNtB5_9VmRunOptsNtNtCs2aLnEu25Pl6_4clap6derive14FromArgMatches16from_arg_matches
FNDA:0,_RNvXs4_NtNtCs6wcrk8Qgr6W_6nanocl6models2vmNtB5_10VmCommandsNtNtCs2aLnEu25Pl6_4clap6derive10Subcommand14has_subcommand
FNDA:0,_RNvXsr_NtNtCs6wcrk8Qgr6W_6nanocl6models2vmNtB5_6VmArgsNtNtCs2aLnEu25Pl6_4clap6derive14FromArgMatches16from_arg_matches
FNDA:0,_RNCNvXs3_NtNtCs6wcrk8Qgr6W_6nanocl6models2vmNtB7_10VmCommandsNtNtCs2aLnEu25Pl6_4clap6derive14FromArgMatches27update_from_arg_matches_muts1_0Bb_
FNDA:0,_RNvXs9_NtNtCs6wcrk8Qgr6W_6nanocl6models2vmNtB5_11VmPatchOptsNtNtCs2aLnEu25Pl6_4clap6derive14FromArgMatches27update_from_arg_matches_mut
FNDA:0,_RNvXs3_NtNtCs6wcrk8Qgr6W_6nanocl6models2vmNtB5_10VmCommandsNtNtCs2aLnEu25Pl6_4clap6derive14FromArgMatches16from_arg_matches
FNDA:0,_RNvXso_NtNtCs6wcrk8Qgr6W_6nanocl6models2vmNtB5_6VmArgsNtNtCshYNBHIop811_4core3fmt5Debug3fmt
FNDA:0,_RNCNvXs3_NtNtCs6wcrk8Qgr6W_6nanocl6models2vmNtB7_10VmCommandsNtNtCs2aLnEu25Pl6_4clap6derive14FromArgMatches27update_from_arg_matches_muts2_0Bb_
FNDA:0,_RNvXs3_NtNtCs6wcrk8Qgr6W_6nanocl6models2vmNtB5_10VmCommandsNtNtCs2aLnEu25Pl6_4clap6derive14FromArgMatches23update_from_arg_matches
FNDA:0,_RNvXsm_NtNtCs6wcrk8Qgr6W_6nanocl6models2vmNtB5_12VmCreateOptsNtNtCs2aLnEu25Pl6_4clap6derive4Args8group_id
FNDA:0,_RNvXsl_NtNtCs6wcrk8Qgr6W_6nanocl6models2vmNtB5_12VmCreateOptsNtNtCs2aLnEu25Pl6_4clap6derive14FromArgMatches16from_arg_matches
FNDA:0,_RNvXsi_NtNtCs6wcrk8Qgr6W_6nanocl6models2vmNtB5_12VmCreateOptsNtNtCshYNBHIop811_4core3fmt5Debug3fmt
FNDA:0,_RNvXs4_NtNtCs6wcrk8Qgr6W_6nanocl6models2vmNtB5_10VmCommandsNtNtCs2aLnEu25Pl6_4clap6derive10Subcommand30augment_subcommands_for_update
FNDA:0,_RNvXs9_NtNtCs6wcrk8Qgr6W_6nanocl6models2vmNtB5_11VmPatchOptsNtNtCs2aLnEu25Pl6_4clap6derive14FromArgMatches16from_arg_matches
FNDA:0,_RNvXs6_NtNtCs6wcrk8Qgr6W_6nanocl6models2vmNtB5_11VmPatchOptsNtNtCshYNBHIop811_4core3fmt5Debug3fmt
FNDA:0,_RNCNvXsf_NtNtCs6wcrk8Qgr6W_6nanocl6models2vmNtB7_9VmRunOptsNtNtCs2aLnEu25Pl6_4clap6derive14FromArgMatches27update_from_arg_matches_mut0Bb_
FNDA:0,_RNvXse_NtNtCs6wcrk8Qgr6W_6nanocl6models2vmNtB5_9VmRunOptsNtNtCs2aLnEu25Pl6_4clap6derive14CommandFactory18command_for_update
FNDA:0,_RNCNvXsf_NtNtCs6wcrk8Qgr6W_6nanocl6models2vmNtB7_9VmRunOptsNtNtCs2aLnEu25Pl6_4clap6derive14FromArgMatches27update_from_arg_matches_muts_0Bb_
FNDA:0,_RNvXsl_NtNtCs6wcrk8Qgr6W_6nanocl6models2vmNtB5_12VmCreateOptsNtNtCs2aLnEu25Pl6_4clap6derive14FromArgMatches23update_from_arg_matches
FNDA:0,_RNvXsr_NtNtCs6wcrk8Qgr6W_6nanocl6models2vmNtB5_6VmArgsNtNtCs2aLnEu25Pl6_4clap6derive14FromArgMatches27update_from_arg_matches_mut
FNDA:0,_RNvXsq_NtNtCs6wcrk8Qgr6W_6nanocl6models2vmNtB5_6VmArgsNtNtCs2aLnEu25Pl6_4clap6derive14CommandFactory7command
FNDA:0,_RNvXsg_NtNtCs6wcrk8Qgr6W_6nanocl6models2vmNtB5_9VmRunOptsNtNtCs2aLnEu25Pl6_4clap6derive4Args23augment_args_for_update
FNDA:0,_RNvXsn_NtNtCs6wcrk8Qgr6W_6nanocl6models2vmNtB5_5VmRowNtNtCsjra9mVSv54w_6tabled6tabled6Tabled6fields
FNDA:0,_RNvXsn_NtNtCs6wcrk8Qgr6W_6nanocl6models2vmNtB5_5VmRowNtNtCsjra9mVSv54w_6tabled6tabled6Tabled7headers
FNDA:0,_RNvXsr_NtNtCs6wcrk8Qgr6W_6nanocl6models2vmNtB5_6VmArgsNtNtCs2aLnEu25Pl6_4clap6derive14FromArgMatches20from_arg_matches_mut
FNDA:0,_RNCNvXs3_NtNtCs6wcrk8Qgr6W_6nanocl6models2vmNtB7_10VmCommandsNtNtCs2aLnEu25Pl6_4clap6derive14FromArgMatches20from_arg_matches_muts1_0Bb_
FNDA:0,_RNCNvXs3_NtNtCs6wcrk8Qgr6W_6nanocl6models2vmNtB7_10VmCommandsNtNtCs2aLnEu25Pl6_4clap6derive14FromArgMatches20from_arg_matches_muts2_0Bb_
FNDA:0,_RNCNvXs3_NtNtCs6wcrk8Qgr6W_6nanocl6models2vmNtB7_10VmCommandsNtNtCs2aLnEu25Pl6_4clap6derive14FromArgMatches20from_arg_matches_muts0_0Bb_
FNDA:37,_RNvXss_NtNtCs6wcrk8Qgr6W_6nanocl6models2vmNtB5_6VmArgsNtNtCs2aLnEu25Pl6_4clap6derive4Args12augment_args
FNDA:0,_RNvXsh_NtNtCs6wcrk8Qgr6W_6nanocl6models2vmNtB5_12VmCreateOptsNtNtCshYNBHIop811_4core5clone5Clone5cloneB9_
FNDA:37,_RNvXsg_NtNtCs6wcrk8Qgr6W_6nanocl6models2vmNtB5_9VmRunOptsNtNtCs2aLnEu25Pl6_4clap6derive4Args12augment_args
FNDA:0,_RNCNvXsl_NtNtCs6wcrk8Qgr6W_6nanocl6models2vmNtB7_12VmCreateOptsNtNtCs2aLnEu25Pl6_4clap6derive14FromArgMatches20from_arg_matches_muts_0Bb_
FNDA:0,_RNvXs5_NtNtCs6wcrk8Qgr6W_6nanocl6models2vmNtB5_11VmPatchOptsNtNtCshYNBHIop811_4core5clone5Clone5cloneB9_
FNDA:0,_RNCNvXs3_NtNtCs6wcrk8Qgr6W_6nanocl6models2vmNtB7_10VmCommandsNtNtCs2aLnEu25Pl6_4clap6derive14FromArgMatches20from_arg_matches_muts_0Bb_
FNDA:0,_RNCNvXs9_NtNtCs6wcrk8Qgr6W_6nanocl6models2vmNtB7_11VmPatchOptsNtNtCs2aLnEu25Pl6_4clap6derive14FromArgMatches20from_arg_matches_mut0Bb_
FNDA:37,_RNvXsa_NtNtCs6wcrk8Qgr6W_6nanocl6models2vmNtB5_11VmPatchOptsNtNtCs2aLnEu25Pl6_4clap6derive4Args12augment_args
FNDA:0,_RNvXsl_NtNtCs6wcrk8Qgr6W_6nanocl6models2vmNtB5_12VmCreateOptsNtNtCs2aLnEu25Pl6_4clap6derive14FromArgMatches20from_arg_matches_mut
FNDA:0,_RNvXs3_NtNtCs6wcrk8Qgr6W_6nanocl6models2vmNtB5_10VmCommandsNtNtCs2aLnEu25Pl6_4clap6derive14FromArgMatches20from_arg_matches_mut
FNDA:0,_RNCNvXsl_NtNtCs6wcrk8Qgr6W_6nanocl6models2vmNtB7_12VmCreateOptsNtNtCs2aLnEu25Pl6_4clap6derive14FromArgMatches20from_arg_matches_mut0Bb_
FNDA:37,_RNvXsm_NtNtCs6wcrk8Qgr6W_6nanocl6models2vmNtB5_12VmCreateOptsNtNtCs2aLnEu25Pl6_4clap6derive4Args12augment_args
FNDA:0,_RNCNvXsf_NtNtCs6wcrk8Qgr6W_6nanocl6models2vmNtB7_9VmRunOptsNtNtCs2aLnEu25Pl6_4clap6derive14FromArgMatches20from_arg_matches_mut0Bb_
FNDA:37,_RNvXs4_NtNtCs6wcrk8Qgr6W_6nanocl6models2vmNtB5_10VmCommandsNtNtCs2aLnEu25Pl6_4clap6derive10Subcommand19augment_subcommands
FNDA:0,_RNvXs1_NtNtCs6wcrk8Qgr6W_6nanocl6models2vmNtB5_5VmRowINtNtCshYNBHIop811_4core7convert4FromNtNtCsfutTBaew1Qf_12nanocl_stubs2vm9VmSummaryE4from
FNDA:0,_RNvXs9_NtNtCs6wcrk8Qgr6W_6nanocl6models2vmNtB5_11VmPatchOptsNtNtCs2aLnEu25Pl6_4clap6derive14FromArgMatches20from_arg_matches_mut
FNDA:0,_RNCNvXs3_NtNtCs6wcrk8Qgr6W_6nanocl6models2vmNtB7_10VmCommandsNtNtCs2aLnEu25Pl6_4clap6derive14FromArgMatches20from_arg_matches_mut0Bb_
FNDA:0,_RNvXsb_NtNtCs6wcrk8Qgr6W_6nanocl6models2vmNtB5_9VmRunOptsNtNtCshYNBHIop811_4core5clone5Clone5cloneB9_
FNDA:0,_RNCNvXsf_NtNtCs6wcrk8Qgr6W_6nanocl6models2vmNtB7_9VmRunOptsNtNtCs2aLnEu25Pl6_4clap6derive14FromArgMatches20from_arg_matches_muts_0Bb_
FNDA:0,_RNvXsf_NtNtCs6wcrk8Qgr6W_6nanocl6models2vmNtB5_9VmRunOptsNtNtCs2aLnEu25Pl6_4clap6derive14FromArgMatches20from_arg_matches_mut
FNDA:0,_RNvXs_NtNtCs6wcrk8Qgr6W_6nanocl6models2vmNtNtCsfutTBaew1Qf_12nanocl_stubs9vm_config15VmConfigPartialINtNtCshYNBHIop811_4core7convert4FromNtB4_9VmRunOptsE4from
FNDA:0,_RNvXNtNtCs6wcrk8Qgr6W_6nanocl6models2vmNtNtCsfutTBaew1Qf_12nanocl_stubs9vm_config14VmConfigUpdateINtNtCshYNBHIop811_4core7convert4FromNtB2_11VmPatchOptsE4from
FNDA:0,_RNvXs0_NtNtCs6wcrk8Qgr6W_6nanocl6models2vmNtNtCsfutTBaew1Qf_12nanocl_stubs9vm_config15VmConfigPartialINtNtCshYNBHIop811_4core7convert4FromNtB5_12VmCreateOptsE4from
FNF:28
FNH:5
DA:12,37
DA:26,0
DA:31,0
DA:36,0
DA:41,0
DA:46,0
DA:52,37
DA:55,0
DA:80,0
DA:81,0
DA:82,0
DA:83,0
DA:84,0
DA:85,0
DA:86,0
DA:87,0
DA:88,0
DA:89,0
DA:90,0
DA:91,0
DA:92,0
DA:93,0
DA:94,0
DA:95,0
DA:98,37
DA:125,0
DA:127,0
DA:131,0
DA:132,0
DA:133,0
DA:134,0
DA:135,0
DA:136,0
DA:137,0
DA:138,0
DA:139,0
DA:140,0
DA:141,0
DA:142,0
DA:143,0
DA:144,0
DA:145,0
DA:146,0
DA:147,0
DA:148,0
DA:149,0
DA:150,0
DA:153,37
DA:177,0
DA:179,0
DA:183,0
DA:184,0
DA:185,0
DA:186,0
DA:187,0
DA:188,0
DA:189,0
DA:190,0
DA:191,0
DA:192,0
DA:193,0
DA:194,0
DA:195,0
DA:196,0
DA:197,0
DA:198,0
DA:199,0
DA:200,0
DA:201,0
DA:202,0
DA:205,0
DA:217,0
DA:218,0
DA:219,0
DA:220,0
DA:221,0
DA:222,0
DA:223,0
DA:224,0
DA:225,0
DA:226,0
DA:227,0
DA:228,0
DA:229,0
DA:230,0
DA:231,0
DA:232,0
DA:233,0
DA:234,0
DA:235,0
DA:236,0
DA:237,0
DA:238,0
DA:239,0
DA:243,0
BRF:0
BRH:0
LF:103
LH:5
end_of_record
SF:/home/leone/Documents/next-hat/nanocl/bin/nanocl/src/models/vm_image.rs
FN:57,_RNvXse_NtNtCs6wcrk8Qgr6W_6nanocl6models8vm_imageNtB5_11VmImageArgsNtNtCshYNBHIop811_4core3fmt5Debug3fmt
FN:39,_RNvXsc_NtNtCs6wcrk8Qgr6W_6nanocl6models8vm_imageNtB5_17VmImageResizeOptsNtNtCs2aLnEu25Pl6_4clap6derive14FromArgMatches23update_from_arg_matches
FN:57,_RNvXsh_NtNtCs6wcrk8Qgr6W_6nanocl6models8vm_imageNtB5_11VmImageArgsNtNtCs2aLnEu25Pl6_4clap6derive14FromArgMatches16from_arg_matches
FN:8,_RNvXs3_NtNtCs6wcrk8Qgr6W_6nanocl6models8vm_imageNtB5_17VmImageCreateOptsNtNtCs2aLnEu25Pl6_4clap6derive14FromArgMatches23update_from_arg_matches
FN:8,_RNvXs2_NtNtCs6wcrk8Qgr6W_6nanocl6models8vm_imageNtB5_17VmImageCreateOptsNtNtCs2aLnEu25Pl6_4clap6derive14CommandFactory7command
FN:8,_RNvXs2_NtNtCs6wcrk8Qgr6W_6nanocl6models8vm_imageNtB5_17VmImageCreateOptsNtNtCs2aLnEu25Pl6_4clap6derive14CommandFactory18command_for_update
FN:39,_RNvXsc_NtNtCs6wcrk8Qgr6W_6nanocl6models8vm_imageNtB5_17VmImageResizeOptsNtNtCs2aLnEu25Pl6_4clap6derive14FromArgMatches27update_from_arg_matches_mut
FN:39,_RNvXs9_NtNtCs6wcrk8Qgr6W_6nanocl6models8vm_imageNtB5_17VmImageResizeOptsNtNtCshYNBHIop811_4core3fmt5Debug3fmt
FN:8,_RNvXs3_NtNtCs6wcrk8Qgr6W_6nanocl6models8vm_imageNtB5_17VmImageCreateOptsNtNtCs2aLnEu25Pl6_4clap6derive14FromArgMatches27update_from_arg_matches_mut
FN:39,_RNvXsc_NtNtCs6wcrk8Qgr6W_6nanocl6models8vm_imageNtB5_17VmImageResizeOptsNtNtCs2aLnEu25Pl6_4clap6derive14FromArgMatches16from_arg_matches
FN:35,_RNCNvXs6_NtNtCs6wcrk8Qgr6W_6nanocl6models8vm_imageNtB7_15VmImageCommandsNtNtCs2aLnEu25Pl6_4clap6derive14FromArgMatches27update_from_arg_matches_muts0_0Bb_
FN:15,_RNvXs7_NtNtCs6wcrk8Qgr6W_6nanocl6models8vm_imageNtB5_15VmImageCommandsNtNtCs2aLnEu25Pl6_4clap6derive10Subcommand14has_subcommand
FN:57,_RNvXsi_NtNtCs6wcrk8Qgr6W_6nanocl6models8vm_imageNtB5_11VmImageArgsNtNtCs2aLnEu25Pl6_4clap6derive4Args8group_id
FN:12,_RNCNvXs3_NtNtCs6wcrk8Qgr6W_6nanocl6models8vm_imageNtB7_17VmImageCreateOptsNtNtCs2aLnEu25Pl6_4clap6derive14FromArgMatches27update_from_arg_matches_muts_0Bb_
FN:8,_RNvXs4_NtNtCs6wcrk8Qgr6W_6nanocl6models8vm_imageNtB5_17VmImageCreateOptsNtNtCs2aLnEu25Pl6_4clap6derive4Args8group_id
FN:15,_RNvXs6_NtNtCs6wcrk8Qgr6W_6nanocl6models8vm_imageNtB5_15VmImageCommandsNtNtCs2aLnEu25Pl6_4clap6derive14FromArgMatches16from_arg_matches
FN:15,_RNvXs7_NtNtCs6wcrk8Qgr6W_6nanocl6models8vm_imageNtB5_15VmImageCommandsNtNtCs2aLnEu25Pl6_4clap6derive10Subcommand30augment_subcommands_for_update
FN:39,_RNvXsb_NtNtCs6wcrk8Qgr6W_6nanocl6models8vm_imageNtB5_17VmImageResizeOptsNtNtCs2aLnEu25Pl6_4clap6derive14CommandFactory7command
FN:42,_RNCNvXsc_NtNtCs6wcrk8Qgr6W_6nanocl6models8vm_imageNtB7_17VmImageResizeOptsNtNtCs2aLnEu25Pl6_4clap6derive14FromArgMatches27update_from_arg_matches_mut0Bb_
FN:43,_RNCNvXsc_NtNtCs6wcrk8Qgr6W_6nanocl6models8vm_imageNtB7_17VmImageResizeOptsNtNtCs2aLnEu25Pl6_4clap6derive14FromArgMatches27update_from_arg_matches_muts_0Bb_
FN:22,_RNCNvXs6_NtNtCs6wcrk8Qgr6W_6nanocl6models8vm_imageNtB7_15VmImageCommandsNtNtCs2aLnEu25Pl6_4clap6derive14FromArgMatches27update_from_arg_matches_mut0Bb_
FN:57,_RNvXsi_NtNtCs6wcrk8Qgr6W_6nanocl6models8vm_imageNtB5_11VmImageArgsNtNtCs2aLnEu25Pl6_4clap6derive4Args23augment_args_for_update
FN:8,_RNvXs4_NtNtCs6wcrk8Qgr6W_6nanocl6models8vm_imageNtB5_17VmImageCreateOptsNtNtCs2aLnEu25Pl6_4clap6derive4Args23augment_args_for_update
FN:57,_RNvXsg_NtNtCs6wcrk8Qgr6W_6nanocl6models8vm_imageNtB5_11VmImageArgsNtNtCs2aLnEu25Pl6_4clap6derive14CommandFactory7command
FN:24,_RNCNvXs6_NtNtCs6wcrk8Qgr6W_6nanocl6models8vm_imageNtB7_15VmImageCommandsNtNtCs2aLnEu25Pl6_4clap6derive14FromArgMatches27update_from_arg_matches_muts_0Bb_
FN:57,_RNvXsg_NtNtCs6wcrk8Qgr6W_6nanocl6models8vm_imageNtB5_11VmImageArgsNtNtCs2aLnEu25Pl6_4clap6derive14CommandFactory18command_for_update
FN:57,_RNvXsh_NtNtCs6wcrk8Qgr6W_6nanocl6models8vm_imageNtB5_11VmImageArgsNtNtCs2aLnEu25Pl6_4clap6derive14FromArgMatches27update_from_arg_matches_mut
FN:39,_RNvXsb_NtNtCs6wcrk8Qgr6W_6nanocl6models8vm_imageNtB5_17VmImageResizeOptsNtNtCs2aLnEu25Pl6_4clap6derive14CommandFactory18command_for_update
FN:44,_RNCNvXsc_NtNtCs6wcrk8Qgr6W_6nanocl6models8vm_imageNtB7_17VmImageResizeOptsNtNtCs2aLnEu25Pl6_4clap6derive14FromArgMatches27update_from_arg_matches_muts0_0Bb_
FN:15,_RNvXs6_NtNtCs6wcrk8Qgr6W_6nanocl6models8vm_imageNtB5_15VmImageCommandsNtNtCs2aLnEu25Pl6_4clap6derive14FromArgMatches27update_from_arg_matches_mut
FN:57,_RNvXsh_NtNtCs6wcrk8Qgr6W_6nanocl6models8vm_imageNtB5_11VmImageArgsNtNtCs2aLnEu25Pl6_4clap6derive14FromArgMatches23update_from_arg_matches
FN:15,_RNvXs5_NtNtCs6wcrk8Qgr6W_6nanocl6models8vm_imageNtB5_15VmImageCommandsNtNtCshYNBHIop811_4core3fmt5Debug3fmt
FN:39,_RNvXsd_NtNtCs6wcrk8Qgr6W_6nanocl6models8vm_imageNtB5_17VmImageResizeOptsNtNtCs2aLnEu25Pl6_4clap6derive4Args23augment_args_for_update
FN:15,_RNvXs6_NtNtCs6wcrk8Qgr6W_6nanocl6models8vm_imageNtB5_15VmImageCommandsNtNtCs2aLnEu25Pl6_4clap6derive14FromArgMatches23update_from_arg_matches
FN:10,_RNCNvXs3_NtNtCs6wcrk8Qgr6W_6nanocl6models8vm_imageNtB7_17VmImageCreateOptsNtNtCs2aLnEu25Pl6_4clap6derive14FromArgMatches27update_from_arg_matches_mut0Bb_
FN:8,_RNvXs3_NtNtCs6wcrk8Qgr6W_6nanocl6models8vm_imageNtB5_17VmImageCreateOptsNtNtCs2aLnEu25Pl6_4clap6derive14FromArgMatches16from_arg_matches
FN:8,_RNvXs0_NtNtCs6wcrk8Qgr6W_6nanocl6models8vm_imageNtB5_17VmImageCreateOptsNtNtCshYNBHIop811_4core3fmt5Debug3fmt
FN:39,_RNvXsd_NtNtCs6wcrk8Qgr6W_6nanocl6models8vm_imageNtB5_17VmImageResizeOptsNtNtCs2aLnEu25Pl6_4clap6derive4Args8group_id
FN:35,_RNCNvXs6_NtNtCs6wcrk8Qgr6W_6nanocl6models8vm_imageNtB7_15VmImageCommandsNtNtCs2aLnEu25Pl6_4clap6derive14FromArgMatches20from_arg_matches_muts0_0Bb_
FN:57,_RNvXsh_NtNtCs6wcrk8Qgr6W_6nanocl6models8vm_imageNtB5_11VmImageArgsNtNtCs2aLnEu25Pl6_4clap6derive14FromArgMatches20from_arg_matches_mut
FN:72,_RNvNtNtCs6wcrk8Qgr6W_6nanocl6models8vm_image12convert_size
FN:39,_RNvXs8_NtNtCs6wcrk8Qgr6W_6nanocl6models8vm_imageNtB5_17VmImageResizeOptsNtNtCshYNBHIop811_4core5clone5Clone5cloneB9_
FN:15,_RNvXs6_NtNtCs6wcrk8Qgr6W_6nanocl6models8vm_imageNtB5_15VmImageCommandsNtNtCs2aLnEu25Pl6_4clap6derive14FromArgMatches20from_arg_matches_mut
FN:81,_RNvXs_NtNtCs6wcrk8Qgr6W_6nanocl6models8vm_imageNtB4_10VmImageRowINtNtCshYNBHIop811_4core7convert4FromNtNtCsfutTBaew1Qf_12nanocl_stubs8vm_image7VmImageE4from
FN:42,_RNCNvXsc_NtNtCs6wcrk8Qgr6W_6nanocl6models8vm_imageNtB7_17VmImageResizeOptsNtNtCs2aLnEu25Pl6_4clap6derive14FromArgMatches20from_arg_matches_mut0Bb_
FN:12,_RNCNvXs3_NtNtCs6wcrk8Qgr6W_6nanocl6models8vm_imageNtB7_17VmImageCreateOptsNtNtCs2aLnEu25Pl6_4clap6derive14FromArgMatches20from_arg_matches_muts_0Bb_
FN:44,_RNCNvXsc_NtNtCs6wcrk8Qgr6W_6nanocl6models8vm_imageNtB7_17VmImageResizeOptsNtNtCs2aLnEu25Pl6_4clap6derive14FromArgMatches20from_arg_matches_muts0_0Bb_
FN:15,_RNvXs7_NtNtCs6wcrk8Qgr6W_6nanocl6models8vm_imageNtB5_15VmImageCommandsNtNtCs2aLnEu25Pl6_4clap6derive10Subcommand19augment_subcommands
FN:24,_RNCNvXs6_NtNtCs6wcrk8Qgr6W_6nanocl6models8vm_imageNtB7_15VmImageCommandsNtNtCs2aLnEu25Pl6_4clap6derive14FromArgMatches20from_arg_matches_muts_0Bb_
FN:22,_RNCNvXs6_NtNtCs6wcrk8Qgr6W_6nanocl6models8vm_imageNtB7_15VmImageCommandsNtNtCs2aLnEu25Pl6_4clap6derive14FromArgMatches20from_arg_matches_mut0Bb_
FN:63,_RNvXsj_NtNtCs6wcrk8Qgr6W_6nanocl6models8vm_imageNtB5_10VmImageRowNtNtCsjra9mVSv54w_6tabled6tabled6Tabled6fields
FN:39,_RNvXsc_NtNtCs6wcrk8Qgr6W_6nanocl6models8vm_imageNtB5_17VmImageResizeOptsNtNtCs2aLnEu25Pl6_4clap6derive14FromArgMatches20from_arg_matches_mut
FN:57,_RNvXsi_NtNtCs6wcrk8Qgr6W_6nanocl6models8vm_imageNtB5_11VmImageArgsNtNtCs2aLnEu25Pl6_4clap6derive4Args12augment_args
FN:63,_RNvXsj_NtNtCs6wcrk8Qgr6W_6nanocl6models8vm_imageNtB5_10VmImageRowNtNtCsjra9mVSv54w_6tabled6tabled6Tabled7headers
FN:39,_RNvXsd_NtNtCs6wcrk8Qgr6W_6nanocl6models8vm_imageNtB5_17VmImageResizeOptsNtNtCs2aLnEu25Pl6_4clap6derive4Args12augment_args
FN:43,_RNCNvXsc_NtNtCs6wcrk8Qgr6W_6nanocl6models8vm_imageNtB7_17VmImageResizeOptsNtNtCs2aLnEu25Pl6_4clap6derive14FromArgMatches20from_arg_matches_muts_0Bb_
FN:8,_RNvXs3_NtNtCs6wcrk8Qgr6W_6nanocl6models8vm_imageNtB5_17VmImageCreateOptsNtNtCs2aLnEu25Pl6_4clap6derive14FromArgMatches20from_arg_matches_mut
FN:10,_RNCNvXs3_NtNtCs6wcrk8Qgr6W_6nanocl6models8vm_imageNtB7_17VmImageCreateOptsNtNtCs2aLnEu25Pl6_4clap6derive14FromArgMatches20from_arg_matches_mut0Bb_
FN:8,_RNvXs4_NtNtCs6wcrk8Qgr6W_6nanocl6models8vm_imageNtB5_17VmImageCreateOptsNtNtCs2aLnEu25Pl6_4clap6derive4Args12augment_args
FN:48,_RNvXNtNtCs6wcrk8Qgr6W_6nanocl6models8vm_imageNtNtCsfutTBaew1Qf_12nanocl_stubs8vm_image20VmImageResizePayloadINtNtCshYNBHIop811_4core7convert4FromNtB2_17VmImageResizeOptsE4from
FNDA:0,_RNvXse_NtNtCs6wcrk8Qgr6W_6nanocl6models8vm_imageNtB5_11VmImageArgsNtNtCshYNBHIop811_4core3fmt5Debug3fmt
FNDA:0,_RNvXsc_NtNtCs6wcrk8Qgr6W_6nanocl6models8vm_imageNtB5_17VmImageResizeOptsNtNtCs2aLnEu25Pl6_4clap6derive14FromArgMatches23update_from_arg_matches
FNDA:0,_RNvXsh_NtNtCs6wcrk8Qgr6W_6nanocl6models8vm_imageNtB5_11VmImageArgsNtNtCs2aLnEu25Pl6_4clap6derive14FromArgMatches16from_arg_matches
FNDA:0,_RNvXs3_NtNtCs6wcrk8Qgr6W_6nanocl6models8vm_imageNtB5_17VmImageCreateOptsNtNtCs2aLnEu25Pl6_4clap6derive14FromArgMatches23update_from_arg_matches
FNDA:0,_RNvXs2_NtNtCs6wcrk8Qgr6W_6nanocl6models8vm_imageNtB5_17VmImageCreateOptsNtNtCs2aLnEu25Pl6_4clap6derive14CommandFactory7command
FNDA:0,_RNvXs2_NtNtCs6wcrk8Qgr6W_6nanocl6models8vm_imageNtB5_17VmImageCreateOptsNtNtCs2aLnEu25Pl6_4clap6derive14CommandFactory18command_for_update
FNDA:0,_RNvXsc_NtNtCs6wcrk8Qgr6W_6nanocl6models8vm_imageNtB5_17VmImageResizeOptsNtNtCs2aLnEu25Pl6_4clap6derive14FromArgMatches27update_from_arg_matches_mut
FNDA:0,_RNvXs9_NtNtCs6wcrk8Qgr6W_6nanocl6models8vm_imageNtB5_17VmImageResizeOptsNtNtCshYNBHIop811_4core3fmt5Debug3fmt
FNDA:0,_RNvXs3_NtNtCs6wcrk8Qgr6W_6nanocl6models8vm_imageNtB5_17VmImageCreateOptsNtNtCs2aLnEu25Pl6_4clap6derive14FromArgMatches27update_from_arg_matches_mut
FNDA:0,_RNvXsc_NtNtCs6wcrk8Qgr6W_6nanocl6models8vm_imageNtB5_17VmImageResizeOptsNtNtCs2aLnEu25Pl6_4clap6derive14FromArgMatches16from_arg_matches
FNDA:0,_RNCNvXs6_NtNtCs6wcrk8Qgr6W_6nanocl6models8vm_imageNtB7_15VmImageCommandsNtNtCs2aLnEu25Pl6_4clap6derive14FromArgMatches27update_from_arg_matches_muts0_0Bb_
FNDA:0,_RNvXs7_NtNtCs6wcrk8Qgr6W_6nanocl6models8vm_imageNtB5_15VmImageCommandsNtNtCs2aLnEu25Pl6_4clap6derive10Subcommand14has_subcommand
FNDA:0,_RNvXsi_NtNtCs6wcrk8Qgr6W_6nanocl6models8vm_imageNtB5_11VmImageArgsNtNtCs2aLnEu25Pl6_4clap6derive4Args8group_id
FNDA:0,_RNCNvXs3_NtNtCs6wcrk8Qgr6W_6nanocl6models8vm_imageNtB7_17VmImageCreateOptsNtNtCs2aLnEu25Pl6_4clap6derive14FromArgMatches27update_from_arg_matches_muts_0Bb_
FNDA:0,_RNvXs4_NtNtCs6wcrk8Qgr6W_6nanocl6models8vm_imageNtB5_17VmImageCreateOptsNtNtCs2aLnEu25Pl6_4clap6derive4Args8group_id
FNDA:0,_RNvXs6_NtNtCs6wcrk8Qgr6W_6nanocl6models8vm_imageNtB5_15VmImageCommandsNtNtCs2aLnEu25Pl6_4clap6derive14FromArgMatches16from_arg_matches
FNDA:0,_RNvXs7_NtNtCs6wcrk8Qgr6W_6nanocl6models8vm_imageNtB5_15VmImageCommandsNtNtCs2aLnEu25Pl6_4clap6derive10Subcommand30augment_subcommands_for_update
FNDA:0,_RNvXsb_NtNtCs6wcrk8Qgr6W_6nanocl6models8vm_imageNtB5_17VmImageResizeOptsNtNtCs2aLnEu25Pl6_4clap6derive14CommandFactory7command
FNDA:0,_RNCNvXsc_NtNtCs6wcrk8Qgr6W_6nanocl6models8vm_imageNtB7_17VmImageResizeOptsNtNtCs2aLnEu25Pl6_4clap6derive14FromArgMatches27update_from_arg_matches_mut0Bb_
FNDA:0,_RNCNvXsc_NtNtCs6wcrk8Qgr6W_6nanocl6models8vm_imageNtB7_17VmImageResizeOptsNtNtCs2aLnEu25Pl6_4clap6derive14FromArgMatches27update_from_arg_matches_muts_0Bb_
FNDA:0,_RNCNvXs6_NtNtCs6wcrk8Qgr6W_6nanocl6models8vm_imageNtB7_15VmImageCommandsNtNtCs2aLnEu25Pl6_4clap6derive14FromArgMatches27update_from_arg_matches_mut0Bb_
FNDA:0,_RNvXsi_NtNtCs6wcrk8Qgr6W_6nanocl6models8vm_imageNtB5_11VmImageArgsNtNtCs2aLnEu25Pl6_4clap6derive4Args23augment_args_for_update
FNDA:0,_RNvXs4_NtNtCs6wcrk8Qgr6W_6nanocl6models8vm_imageNtB5_17VmImageCreateOptsNtNtCs2aLnEu25Pl6_4clap6derive4Args23augment_args_for_update
FNDA:0,_RNvXsg_NtNtCs6wcrk8Qgr6W_6nanocl6models8vm_imageNtB5_11VmImageArgsNtNtCs2aLnEu25Pl6_4clap6derive14CommandFactory7command
FNDA:0,_RNCNvXs6_NtNtCs6wcrk8Qgr6W_6nanocl6models8vm_imageNtB7_15VmImageCommandsNtNtCs2aLnEu25Pl6_4clap6derive14FromArgMatches27update_from_arg_matches_muts_0Bb_
FNDA:0,_RNvXsg_NtNtCs6wcrk8Qgr6W_6nanocl6models8vm_imageNtB5_11VmImageArgsNtNtCs2aLnEu25Pl6_4clap6derive14CommandFactory18command_for_update
FNDA:0,_RNvXsh_NtNtCs6wcrk8Qgr6W_6nanocl6models8vm_imageNtB5_11VmImageArgsNtNtCs2aLnEu25Pl6_4clap6derive14FromArgMatches27update_from_arg_matches_mut
FNDA:0,_RNvXsb_NtNtCs6wcrk8Qgr6W_6nanocl6models8vm_imageNtB5_17VmImageResizeOptsNtNtCs2aLnEu25Pl6_4clap6derive14CommandFactory18command_for_update
FNDA:0,_RNCNvXsc_NtNtCs6wcrk8Qgr6W_6nanocl6models8vm_imageNtB7_17VmImageResizeOptsNtNtCs2aLnEu25Pl6_4clap6derive14FromArgMatches27update_from_arg_matches_muts0_0Bb_
FNDA:0,_RNvXs6_NtNtCs6wcrk8Qgr6W_6nanocl6models8vm_imageNtB5_15VmImageCommandsNtNtCs2aLnEu25Pl6_4clap6derive14FromArgMatches27update_from_arg_matches_mut
FNDA:0,_RNvXsh_NtNtCs6wcrk8Qgr6W_6nanocl6models8vm_imageNtB5_11VmImageArgsNtNtCs2aLnEu25Pl6_4clap6derive14FromArgMatches23update_from_arg_matches
FNDA:0,_RNvXs5_NtNtCs6wcrk8Qgr6W_6nanocl6models8vm_imageNtB5_15VmImageCommandsNtNtCshYNBHIop811_4core3fmt5Debug3fmt
FNDA:0,_RNvXsd_NtNtCs6wcrk8Qgr6W_6nanocl6models8vm_imageNtB5_17VmImageResizeOptsNtNtCs2aLnEu25Pl6_4clap6derive4Args23augment_args_for_update
FNDA:0,_RNvXs6_NtNtCs6wcrk8Qgr6W_6nanocl6models8vm_imageNtB5_15VmImageCommandsNtNtCs2aLnEu25Pl6_4clap6derive14FromArgMatches23update_from_arg_matches
FNDA:0,_RNCNvXs3_NtNtCs6wcrk8Qgr6W_6nanocl6models8vm_imageNtB7_17VmImageCreateOptsNtNtCs2aLnEu25Pl6_4clap6derive14FromArgMatches27update_from_arg_matches_mut0Bb_
FNDA:0,_RNvXs3_NtNtCs6wcrk8Qgr6W_6nanocl6models8vm_imageNtB5_17VmImageCreateOptsNtNtCs2aLnEu25Pl6_4clap6derive14FromArgMatches16from_arg_matches
FNDA:0,_RNvXs0_NtNtCs6wcrk8Qgr6W_6nanocl6models8vm_imageNtB5_17VmImageCreateOptsNtNtCshYNBHIop811_4core3fmt5Debug3fmt
FNDA:0,_RNvXsd_NtNtCs6wcrk8Qgr6W_6nanocl6models8vm_imageNtB5_17VmImageResizeOptsNtNtCs2aLnEu25Pl6_4clap6derive4Args8group_id
FNDA:0,_RNCNvXs6_NtNtCs6wcrk8Qgr6W_6nanocl6models8vm_imageNtB7_15VmImageCommandsNtNtCs2aLnEu25Pl6_4clap6derive14FromArgMatches20from_arg_matches_muts0_0Bb_
FNDA:0,_RNvXsh_NtNtCs6wcrk8Qgr6W_6nanocl6models8vm_imageNtB5_11VmImageArgsNtNtCs2aLnEu25Pl6_4clap6derive14FromArgMatches20from_arg_matches_mut
FNDA:0,_RNvNtNtCs6wcrk8Qgr6W_6nanocl6models8vm_image12convert_size
FNDA:0,_RNvXs8_NtNtCs6wcrk8Qgr6W_6nanocl6models8vm_imageNtB5_17VmImageResizeOptsNtNtCshYNBHIop811_4core5clone5Clone5cloneB9_
FNDA:0,_RNvXs6_NtNtCs6wcrk8Qgr6W_6nanocl6models8vm_imageNtB5_15VmImageCommandsNtNtCs2aLnEu25Pl6_4clap6derive14FromArgMatches20from_arg_matches_mut
FNDA:0,_RNvXs_NtNtCs6wcrk8Qgr6W_6nanocl6models8vm_imageNtB4_10VmImageRowINtNtCshYNBHIop811_4core7convert4FromNtNtCsfutTBaew1Qf_12nanocl_stubs8vm_image7VmImageE4from
FNDA:0,_RNCNvXsc_NtNtCs6wcrk8Qgr6W_6nanocl6models8vm_imageNtB7_17VmImageResizeOptsNtNtCs2aLnEu25Pl6_4clap6derive14FromArgMatches20from_arg_matches_mut0Bb_
FNDA:0,_RNCNvXs3_NtNtCs6wcrk8Qgr6W_6nanocl6models8vm_imageNtB7_17VmImageCreateOptsNtNtCs2aLnEu25Pl6_4clap6derive14FromArgMatches20from_arg_matches_muts_0Bb_
FNDA:0,_RNCNvXsc_NtNtCs6wcrk8Qgr6W_6nanocl6models8vm_imageNtB7_17VmImageResizeOptsNtNtCs2aLnEu25Pl6_4clap6derive14FromArgMatches20from_arg_matches_muts0_0Bb_
FNDA:37,_RNvXs7_NtNtCs6wcrk8Qgr6W_6nanocl6models8vm_imageNtB5_15VmImageCommandsNtNtCs2aLnEu25Pl6_4clap6derive10Subcommand19augment_subcommands
FNDA:0,_RNCNvXs6_NtNtCs6wcrk8Qgr6W_6nanocl6models8vm_imageNtB7_15VmImageCommandsNtNtCs2aLnEu25Pl6_4clap6derive14FromArgMatches20from_arg_matches_muts_0Bb_
FNDA:0,_RNCNvXs6_NtNtCs6wcrk8Qgr6W_6nanocl6models8vm_imageNtB7_15VmImageCommandsNtNtCs2aLnEu25Pl6_4clap6derive14FromArgMatches20from_arg_matches_mut0Bb_
FNDA:0,_RNvXsj_NtNtCs6wcrk8Qgr6W_6nanocl6models8vm_imageNtB5_10VmImageRowNtNtCsjra9mVSv54w_6tabled6tabled6Tabled6fields
FNDA:0,_RNvXsc_NtNtCs6wcrk8Qgr6W_6nanocl6models8vm_imageNtB5_17VmImageResizeOptsNtNtCs2aLnEu25Pl6_4clap6derive14FromArgMatches20from_arg_matches_mut
FNDA:37,_RNvXsi_NtNtCs6wcrk8Qgr6W_6nanocl6models8vm_imageNtB5_11VmImageArgsNtNtCs2aLnEu25Pl6_4clap6derive4Args12augment_args
FNDA:0,_RNvXsj_NtNtCs6wcrk8Qgr6W_6nanocl6models8vm_imageNtB5_10VmImageRowNtNtCsjra9mVSv54w_6tabled6tabled6Tabled7headers
FNDA:37,_RNvXsd_NtNtCs6wcrk8Qgr6W_6nanocl6models8vm_imageNtB5_17VmImageResizeOptsNtNtCs2aLnEu25Pl6_4clap6derive4Args12augment_args
FNDA:0,_RNCNvXsc_NtNtCs6wcrk8Qgr6W_6nanocl6models8vm_imageNtB7_17VmImageResizeOptsNtNtCs2aLnEu25Pl6_4clap6derive14FromArgMatches20from_arg_matches_muts_0Bb_
FNDA:0,_RNvXs3_NtNtCs6wcrk8Qgr6W_6nanocl6models8vm_imageNtB5_17VmImageCreateOptsNtNtCs2aLnEu25Pl6_4clap6derive14FromArgMatches20from_arg_matches_mut
FNDA:0,_RNCNvXs3_NtNtCs6wcrk8Qgr6W_6nanocl6models8vm_imageNtB7_17VmImageCreateOptsNtNtCs2aLnEu25Pl6_4clap6derive14FromArgMatches20from_arg_matches_mut0Bb_
FNDA:37,_RNvXs4_NtNtCs6wcrk8Qgr6W_6nanocl6models8vm_imageNtB5_17VmImageCreateOptsNtNtCs2aLnEu25Pl6_4clap6derive4Args12augment_args
FNDA:0,_RNvXNtNtCs6wcrk8Qgr6W_6nanocl6models8vm_imageNtNtCsfutTBaew1Qf_12nanocl_stubs8vm_image20VmImageResizePayloadINtNtCshYNBHIop811_4core7convert4FromNtB2_17VmImageResizeOptsE4from
FNF:21
FNH:4
DA:8,37
DA:10,0
DA:12,0
DA:15,37
DA:22,0
DA:24,0
DA:35,0
DA:39,37
DA:42,0
DA:43,0
DA:44,0
DA:45,0
DA:46,0
DA:48,0
DA:49,0
DA:50,0
DA:51,0
DA:52,0
DA:53,0
DA:57,0
DA:63,0
DA:72,0
DA:73,0
DA:74,0
DA:76,0
DA:78,0
DA:81,0
DA:82,0
DA:83,0
DA:84,0
DA:85,0
DA:86,0
DA:87,0
DA:88,0
DA:89,0
DA:90,0
DA:91,0
DA:92,0
DA:93,0
DA:94,0
DA:95,0
DA:96,0
DA:97,0
DA:98,0
DA:99,0
DA:100,0
BRF:0
BRH:0
LF:52
LH:4
end_of_record
SF:/home/leone/Documents/next-hat/nanocl/bin/nanocl/src/utils/math.rs
FN:1,_RNvNtNtCs6wcrk8Qgr6W_6nanocl5utils4math20calculate_percentage
FNDA:7,_RNvNtNtCs6wcrk8Qgr6W_6nanocl5utils4math20calculate_percentage
FNF:1
FNH:1
DA:1,7
DA:2,7
DA:3,7
BRF:0
BRH:0
LF:3
LH:3
end_of_record
SF:/home/leone/Documents/next-hat/nanocl/bin/nanocl/src/utils/network.rs
FN:73,_RNCNvNtNtCs6wcrk8Qgr6W_6nanocl5utils7network12get_hostname0B7_
FN:11,_RNvNtNtCs6wcrk8Qgr6W_6nanocl5utils7network14get_default_ip
FN:64,_RNvNtNtCs6wcrk8Qgr6W_6nanocl5utils7network12get_hostname
FN:43,_RNCNvNtNtCs6wcrk8Qgr6W_6nanocl5utils7network14get_default_ip0B7_
FNDA:0,_RNCNvNtNtCs6wcrk8Qgr6W_6nanocl5utils7network12get_hostname0B7_
FNDA:0,_RNvNtNtCs6wcrk8Qgr6W_6nanocl5utils7network14get_default_ip
FNDA:0,_RNvNtNtCs6wcrk8Qgr6W_6nanocl5utils7network12get_hostname
FNDA:0,_RNCNvNtNtCs6wcrk8Qgr6W_6nanocl5utils7network14get_default_ip0B7_
FNF:4
FNH:0
DA:11,0
DA:13,0
DA:14,0
DA:15,0
DA:16,0
DA:17,0
DA:18,0
DA:19,0
DA:20,0
DA:21,0
DA:22,0
DA:24,0
DA:25,0
DA:26,0
DA:27,0
DA:31,0
DA:32,0
DA:33,0
DA:34,0
DA:35,0
DA:36,0
DA:37,0
DA:38,0
DA:39,0
DA:40,0
DA:41,0
DA:42,0
DA:43,0
DA:44,0
DA:46,0
DA:47,0
DA:48,0
DA:49,0
DA:50,0
DA:51,0
DA:52,0
DA:53,0
DA:55,0
DA:56,0
DA:57,0
DA:58,0
DA:59,0
DA:61,0
DA:62,0
DA:64,0
DA:65,0
DA:66,0
DA:67,0
DA:68,0
DA:69,0
DA:70,0
DA:71,0
DA:72,0
DA:73,0
DA:74,0
DA:75,0
BRF:0
BRH:0
LF:58
LH:0
end_of_record
SF:/home/leone/Documents/next-hat/nanocl/bin/nanocl/src/utils/print.rs
FN:24,_RINvNtNtCs6wcrk8Qgr6W_6nanocl5utils5print9print_ymlNtNtCsfutTBaew1Qf_12nanocl_stubs5cargo12CargoInspectEB6_
FN:24,_RINvNtNtCs6wcrk8Qgr6W_6nanocl5utils5print9print_ymlNtNtCsie9iFrSfWVE_18bollard_next_stubs6models12ImageInspectEB6_
FN:24,_RINvNtNtCs6wcrk8Qgr6W_6nanocl5utils5print9print_ymlNtNtCsfutTBaew1Qf_12nanocl_stubs9namespace16NamespaceInspectEB6_
FN:8,_RINvNtNtCs6wcrk8Qgr6W_6nanocl5utils5print11print_tableNtNtNtB6_6models8vm_image10VmImageRowINtNtCs7OvAONlnxZo_5alloc3vec3VecBQ_EEB6_
FN:24,_RINvNtNtCs6wcrk8Qgr6W_6nanocl5utils5print9print_ymlNtNtCsfutTBaew1Qf_12nanocl_stubs8resource8ResourceEB6_
FN:24,_RINvNtNtCs6wcrk8Qgr6W_6nanocl5utils5print9print_ymlNtNtCsfutTBaew1Qf_12nanocl_stubs2vm9VmInspectEB6_
FN:8,_RINvNtNtCs6wcrk8Qgr6W_6nanocl5utils5print11print_tableNtNtNtB6_6models6system10ProcessRowINtNtCs7OvAONlnxZo_5alloc3vec3VecBQ_EEB6_
FN:8,_RINvNtNtCs6wcrk8Qgr6W_6nanocl5utils5print11print_tableNtNtNtB6_6models9namespace12NamespaceRowINtNtCs7OvAONlnxZo_5alloc3vec3VecBQ_EEB6_
FN:8,_RINvNtNtCs6wcrk8Qgr6W_6nanocl5utils5print11print_tableNtNtNtB6_6models11cargo_image13CargoImageRowINtNtCs7OvAONlnxZo_5alloc3vec3VecBQ_EEB6_
FN:8,_RINvNtNtCs6wcrk8Qgr6W_6nanocl5utils5print11print_tableNtNtNtB6_6models2vm5VmRowINtNtCs7OvAONlnxZo_5alloc3vec3VecBQ_EEB6_
FN:8,_RINvNtNtCs6wcrk8Qgr6W_6nanocl5utils5print11print_tableNtNtNtB6_6models8resource11ResourceRowINtNtCs7OvAONlnxZo_5alloc3vec3VecBQ_EEB6_
FN:24,_RINvNtNtCs6wcrk8Qgr6W_6nanocl5utils5print9print_ymlRNtNtCs4jMWN2zKWPr_10serde_yaml5value5ValueEB6_
FN:24,_RINvNtNtCs6wcrk8Qgr6W_6nanocl5utils5print9print_ymlINtNtCs7OvAONlnxZo_5alloc3vec3VecNtNtCsfutTBaew1Qf_12nanocl_stubs8resource14ResourceConfigEEB6_
FN:24,_RINvNtNtCs6wcrk8Qgr6W_6nanocl5utils5print9print_ymlNtNtCsfutTBaew1Qf_12nanocl_stubs6system5EventEB6_
FN:8,_RINvNtNtCs6wcrk8Qgr6W_6nanocl5utils5print11print_tableNtNtNtB6_6models5cargo8CargoRowINtNtCs7OvAONlnxZo_5alloc3vec3VecBQ_EEB6_
FNDA:1,_RINvNtNtCs6wcrk8Qgr6W_6nanocl5utils5print9print_ymlNtNtCsfutTBaew1Qf_12nanocl_stubs5cargo12CargoInspectEB6_
FNDA:1,_RINvNtNtCs6wcrk8Qgr6W_6nanocl5utils5print9print_ymlNtNtCsie9iFrSfWVE_18bollard_next_stubs6models12ImageInspectEB6_
FNDA:1,_RINvNtNtCs6wcrk8Qgr6W_6nanocl5utils5print9print_ymlNtNtCsfutTBaew1Qf_12nanocl_stubs9namespace16NamespaceInspectEB6_
FNDA:0,_RINvNtNtCs6wcrk8Qgr6W_6nanocl5utils5print11print_tableNtNtNtB6_6models8vm_image10VmImageRowINtNtCs7OvAONlnxZo_5alloc3vec3VecBQ_EEB6_
FNDA:2,_RINvNtNtCs6wcrk8Qgr6W_6nanocl5utils5print9print_ymlNtNtCsfutTBaew1Qf_12nanocl_stubs8resource8ResourceEB6_
FNDA:0,_RINvNtNtCs6wcrk8Qgr6W_6nanocl5utils5print9print_ymlNtNtCsfutTBaew1Qf_12nanocl_stubs2vm9VmInspectEB6_
FNDA:0,_RINvNtNtCs6wcrk8Qgr6W_6nanocl5utils5print11print_tableNtNtNtB6_6models6system10ProcessRowINtNtCs7OvAONlnxZo_5alloc3vec3VecBQ_EEB6_
FNDA:1,_RINvNtNtCs6wcrk8Qgr6W_6nanocl5utils5print11print_tableNtNtNtB6_6models9namespace12NamespaceRowINtNtCs7OvAONlnxZo_5alloc3vec3VecBQ_EEB6_
FNDA:1,_RINvNtNtCs6wcrk8Qgr6W_6nanocl5utils5print11print_tableNtNtNtB6_6models11cargo_image13CargoImageRowINtNtCs7OvAONlnxZo_5alloc3vec3VecBQ_EEB6_
FNDA:0,_RINvNtNtCs6wcrk8Qgr6W_6nanocl5utils5print11print_tableNtNtNtB6_6models2vm5VmRowINtNtCs7OvAONlnxZo_5alloc3vec3VecBQ_EEB6_
FNDA:1,_RINvNtNtCs6wcrk8Qgr6W_6nanocl5utils5print11print_tableNtNtNtB6_6models8resource11ResourceRowINtNtCs7OvAONlnxZo_5alloc3vec3VecBQ_EEB6_
FNDA:8,_RINvNtNtCs6wcrk8Qgr6W_6nanocl5utils5print9print_ymlRNtNtCs4jMWN2zKWPr_10serde_yaml5value5ValueEB6_
FNDA:1,_RINvNtNtCs6wcrk8Qgr6W_6nanocl5utils5print9print_ymlINtNtCs7OvAONlnxZo_5alloc3vec3VecNtNtCsfutTBaew1Qf_12nanocl_stubs8resource14ResourceConfigEEB6_
FNDA:0,_RINvNtNtCs6wcrk8Qgr6W_6nanocl5utils5print9print_ymlNtNtCsfutTBaew1Qf_12nanocl_stubs6system5EventEB6_
FNDA:1,_RINvNtNtCs6wcrk8Qgr6W_6nanocl5utils5print11print_tableNtNtNtB6_6models5cargo8CargoRowINtNtCs7OvAONlnxZo_5alloc3vec3VecBQ_EEB6_
FNF:2
FNH:2
DA:8,4
DA:9,4
DA:10,4
DA:11,4
DA:12,4
DA:13,4
DA:14,4
DA:15,4
DA:16,4
DA:17,4
DA:18,4
DA:19,4
DA:20,4
DA:21,4
DA:22,4
DA:24,14
DA:25,14
DA:26,14
DA:27,14
DA:28,14
DA:29,14
DA:30,14
DA:31,14
BRF:0
BRH:0
LF:23
LH:23
end_of_record
SF:/home/leone/Documents/next-hat/nanocl/bin/nanocl/src/utils/state.rs
FN:4,_RNvNtNtCs6wcrk8Qgr6W_6nanocl5utils5state13get_file_meta
FNDA:8,_RNvNtNtCs6wcrk8Qgr6W_6nanocl5utils5state13get_file_meta
FNF:1
FNH:1
DA:4,8
DA:5,8
DA:7,8
DA:8,8
BRF:0
BRH:0
LF:4
LH:4
end_of_record
SF:/home/leone/Documents/next-hat/nanocl/bin/nanocl/src/version.rs
FN:1,_RNvNtCs6wcrk8Qgr6W_6nanocl7version13print_version
FNDA:1,_RNvNtCs6wcrk8Qgr6W_6nanocl7version13print_version
FNF:1
FNH:1
DA:1,1
DA:2,1
DA:3,1
DA:4,1
DA:5,1
DA:6,1
DA:7,1
DA:8,1
DA:9,1
DA:10,1
DA:11,1
BRF:0
BRH:0
LF:11
LH:11
end_of_record
SF:/home/leone/Documents/next-hat/nanocl/bin/nanocld/src/boot/init.rs
FN:30,_RNCNCNvNtNtCsaS3fY9lrCeZ_7nanocld4boot4init4init00B9_
FN:11,_RNCNvNtNtCsaS3fY9lrCeZ_7nanocld4boot4init16ensure_state_dir0B7_
FN:11,_RNvNtNtCsaS3fY9lrCeZ_7nanocld4boot4init16ensure_state_dir
FN:24,_RNvNtNtCsaS3fY9lrCeZ_7nanocld4boot4init4init
FN:13,_RNCNCNvNtNtCsaS3fY9lrCeZ_7nanocld4boot4init16ensure_state_dir00B9_
FN:25,_RNCNvNtNtCsaS3fY9lrCeZ_7nanocld4boot4init4init0B7_
FN:76,_RNvNtNtNtCsaS3fY9lrCeZ_7nanocld4boot4init5testss_10basic_init
FN:76,_RNCNvNtNtNtCsaS3fY9lrCeZ_7nanocld4boot4init5tests10basic_init0B9_
FN:76,_RNCNvNtNtNtCsaS3fY9lrCeZ_7nanocld4boot4init5testss_10basic_init0B9_
FNDA:0,_RNCNCNvNtNtCsaS3fY9lrCeZ_7nanocld4boot4init4init00B9_
FNDA:7,_RNCNvNtNtCsaS3fY9lrCeZ_7nanocld4boot4init16ensure_state_dir0B7_
FNDA:7,_RNvNtNtCsaS3fY9lrCeZ_7nanocld4boot4init16ensure_state_dir
FNDA:7,_RNvNtNtCsaS3fY9lrCeZ_7nanocld4boot4init4init
FNDA:0,_RNCNCNvNtNtCsaS3fY9lrCeZ_7nanocld4boot4init16ensure_state_dir00B9_
FNDA:7,_RNCNvNtNtCsaS3fY9lrCeZ_7nanocld4boot4init4init0B7_
FNDA:1,_RNvNtNtNtCsaS3fY9lrCeZ_7nanocld4boot4init5testss_10basic_init
FNDA:1,_RNCNvNtNtNtCsaS3fY9lrCeZ_7nanocld4boot4init5tests10basic_init0B9_
FNDA:1,_RNCNvNtNtNtCsaS3fY9lrCeZ_7nanocld4boot4init5testss_10basic_init0B9_
FNF:7
FNH:5
DA:11,7
DA:12,7
DA:13,7
DA:14,0
DA:15,0
DA:16,0
DA:17,0
DA:18,7
DA:19,7
DA:20,7
DA:24,7
DA:25,7
DA:26,7
DA:27,7
DA:28,7
DA:29,7
DA:30,7
DA:31,0
DA:32,0
DA:33,0
DA:34,0
DA:35,0
DA:36,0
DA:37,0
DA:38,7
DA:39,7
DA:40,21
DA:42,56
DA:44,63
DA:45,7
DA:46,7
DA:47,7
DA:48,7
DA:49,7
DA:50,7
DA:51,7
DA:52,7
DA:53,7
DA:54,7
DA:55,7
DA:56,7
DA:57,7
DA:58,7
DA:59,7
DA:60,175
DA:61,35
DA:63,7
DA:64,7
DA:76,2
BRF:0
BRH:0
LF:54
LH:39
end_of_record
SF:/home/leone/Documents/next-hat/nanocl/bin/nanocld/src/boot/metrics.rs
FN:27,_RNvNtNtCsaS3fY9lrCeZ_7nanocld4boot7metrics19start_metrics_cargo
FN:8,_RNvNtNtCsaS3fY9lrCeZ_7nanocld4boot7metrics17gen_metrics_cargo
FN:27,_RNCNvNtNtCsaS3fY9lrCeZ_7nanocld4boot7metrics19start_metrics_cargo0B7_
FNDA:7,_RNvNtNtCsaS3fY9lrCeZ_7nanocld4boot7metrics19start_metrics_cargo
FNDA:7,_RNvNtNtCsaS3fY9lrCeZ_7nanocld4boot7metrics17gen_metrics_cargo
FNDA:7,_RNCNvNtNtCsaS3fY9lrCeZ_7nanocld4boot7metrics19start_metrics_cargo0B7_
FNF:3
FNH:3
DA:8,7
DA:9,7
DA:10,7
DA:11,7
DA:12,7
DA:13,7
DA:14,7
DA:15,7
DA:16,7
DA:17,7
DA:18,7
DA:19,7
DA:20,7
DA:21,7
DA:22,7
DA:23,7
DA:24,7
DA:25,7
DA:27,7
DA:28,7
DA:29,7
DA:30,35
DA:31,7
DA:33,0
DA:34,0
DA:35,0
DA:36,0
DA:37,0
DA:38,0
DA:39,0
DA:40,0
DA:41,7
DA:42,7
DA:43,7
BRF:0
BRH:0
LF:35
LH:27
end_of_record
SF:/home/leone/Documents/next-hat/nanocl/bin/nanocld/src/boot/node.rs
FN:7,_RNvNtNtCsaS3fY9lrCeZ_7nanocld4boot4node13register_node
FN:11,_RNCNvNtNtCsaS3fY9lrCeZ_7nanocld4boot4node13register_node0B7_
FNDA:7,_RNvNtNtCsaS3fY9lrCeZ_7nanocld4boot4node13register_node
FNDA:7,_RNCNvNtNtCsaS3fY9lrCeZ_7nanocld4boot4node13register_node0B7_
FNF:2
FNH:2
DA:7,7
DA:8,7
DA:9,7
DA:10,7
DA:11,7
DA:12,7
DA:13,7
DA:14,7
DA:15,7
DA:16,7
DA:17,7
DA:19,7
DA:20,7
BRF:0
BRH:0
LF:14
LH:14
end_of_record
SF:/home/leone/Documents/next-hat/nanocl/bin/nanocld/src/boot/proxy.rs
FN:21,_RNCNCNvNtNtCsaS3fY9lrCeZ_7nanocld4boot5proxy4init00B9_
FN:20,_RNCNvNtNtCsaS3fY9lrCeZ_7nanocld4boot5proxy4init0B7_
FN:19,_RNvNtNtCsaS3fY9lrCeZ_7nanocld4boot5proxy4init
FNDA:0,_RNCNCNvNtNtCsaS3fY9lrCeZ_7nanocld4boot5proxy4init00B9_
FNDA:7,_RNCNvNtNtCsaS3fY9lrCeZ_7nanocld4boot5proxy4init0B7_
FNDA:7,_RNvNtNtCsaS3fY9lrCeZ_7nanocld4boot5proxy4init
FNF:3
FNH:2
DA:19,7
DA:20,7
DA:21,7
DA:22,0
DA:23,0
DA:24,7
DA:26,7
DA:27,14
DA:28,14
DA:29,14
DA:30,14
DA:31,14
DA:32,14
DA:33,14
DA:34,56
DA:35,14
DA:37,14
DA:38,0
DA:39,0
DA:40,0
DA:41,0
DA:42,0
DA:43,0
DA:44,0
DA:45,0
DA:46,0
DA:47,0
DA:48,0
DA:49,0
DA:50,0
DA:51,0
DA:52,0
DA:55,7
DA:56,7
BRF:0
BRH:0
LF:36
LH:17
end_of_record
SF:/home/leone/Documents/next-hat/nanocl/bin/nanocld/src/boot/store.rs
FN:82,_RNCNvNtNtCsaS3fY9lrCeZ_7nanocld4boot5store4boot0B7_
FN:41,_RNvNtNtCsaS3fY9lrCeZ_7nanocld4boot5store20gen_store_cargo_conf
FN:129,_RNCNCNvNtNtCsaS3fY9lrCeZ_7nanocld4boot5store6ensure00B9_
FN:114,_RNCNvNtNtCsaS3fY9lrCeZ_7nanocld4boot5store6ensure0B7_
FN:79,_RNvNtNtCsaS3fY9lrCeZ_7nanocld4boot5store4boot
FN:22,_RNvNtNtCsaS3fY9lrCeZ_7nanocld4boot5store19gen_store_host_conf
FN:110,_RNvNtNtCsaS3fY9lrCeZ_7nanocld4boot5store6ensure
FNDA:7,_RNCNvNtNtCsaS3fY9lrCeZ_7nanocld4boot5store4boot0B7_
FNDA:0,_RNvNtNtCsaS3fY9lrCeZ_7nanocld4boot5store20gen_store_cargo_conf
FNDA:0,_RNCNCNvNtNtCsaS3fY9lrCeZ_7nanocld4boot5store6ensure00B9_
FNDA:6,_RNCNvNtNtCsaS3fY9lrCeZ_7nanocld4boot5store6ensure0B7_
FNDA:7,_RNvNtNtCsaS3fY9lrCeZ_7nanocld4boot5store4boot
FNDA:0,_RNvNtNtCsaS3fY9lrCeZ_7nanocld4boot5store19gen_store_host_conf
FNDA:7,_RNvNtNtCsaS3fY9lrCeZ_7nanocld4boot5store6ensure
FNF:7
FNH:4
DA:22,0
DA:23,0
DA:24,0
DA:25,0
DA:26,0
DA:27,0
DA:28,0
DA:29,0
DA:30,0
DA:31,0
DA:32,0
DA:33,0
DA:34,0
DA:35,0
DA:36,0
DA:41,0
DA:42,0
DA:43,0
DA:44,0
DA:45,0
DA:46,0
DA:47,0
DA:48,0
DA:49,0
DA:50,0
DA:51,0
DA:52,0
DA:54,0
DA:56,0
DA:57,0
DA:58,0
DA:60,0
DA:61,0
DA:62,0
DA:63,0
DA:64,0
DA:65,0
DA:66,0
DA:67,0
DA:68,0
DA:69,0
DA:70,0
DA:71,0
DA:72,0
DA:73,0
DA:74,0
DA:75,0
DA:79,7
DA:80,7
DA:81,7
DA:82,7
DA:83,7
DA:84,7
DA:85,7
DA:86,7
DA:87,28
DA:88,7
DA:90,7
DA:91,0
DA:92,0
DA:93,0
DA:94,0
DA:95,0
DA:96,0
DA:97,0
DA:98,0
DA:99,0
DA:100,0
DA:101,0
DA:102,0
DA:103,0
DA:104,7
DA:110,7
DA:111,7
DA:112,7
DA:113,7
DA:114,6
DA:115,28
DA:118,7
DA:119,28
DA:120,6
DA:122,7
DA:123,7
DA:124,6
DA:128,6
DA:129,7
DA:130,0
DA:131,7
DA:132,7
DA:133,7
BRF:0
BRH:0
LF:93
LH:30
end_of_record
SF:/home/leone/Documents/next-hat/nanocl/bin/nanocld/src/boot/system.rs
FN:71,_RNvNtNtCsaS3fY9lrCeZ_7nanocld4boot6system15sync_containers
FN:75,_RNCNvNtNtCsaS3fY9lrCeZ_7nanocld4boot6system15sync_containers0B7_
FN:23,_RNCNvNtNtCsaS3fY9lrCeZ_7nanocld4boot6system14ensure_network0B7_
FN:50,_RNvNtNtCsaS3fY9lrCeZ_7nanocld4boot6system18register_namespace
FN:18,_RNvNtNtCsaS3fY9lrCeZ_7nanocld4boot6system14ensure_network
FN:55,_RNCNvNtNtCsaS3fY9lrCeZ_7nanocld4boot6system18register_namespace0B7_
FNDA:7,_RNvNtNtCsaS3fY9lrCeZ_7nanocld4boot6system15sync_containers
FNDA:6,_RNCNvNtNtCsaS3fY9lrCeZ_7nanocld4boot6system15sync_containers0B7_
FNDA:7,_RNCNvNtNtCsaS3fY9lrCeZ_7nanocld4boot6system14ensure_network0B7_
FNDA:14,_RNvNtNtCsaS3fY9lrCeZ_7nanocld4boot6system18register_namespace
FNDA:7,_RNvNtNtCsaS3fY9lrCeZ_7nanocld4boot6system14ensure_network
FNDA:14,_RNCNvNtNtCsaS3fY9lrCeZ_7nanocld4boot6system18register_namespace0B7_
FNF:6
FNH:6
DA:18,7
DA:19,7
DA:20,7
DA:21,7
DA:23,7
DA:24,7
DA:25,21
DA:26,7
DA:28,7
DA:29,0
DA:30,0
DA:31,0
DA:32,0
DA:33,0
DA:34,0
DA:35,0
DA:36,0
DA:37,0
DA:38,0
DA:39,0
DA:40,0
DA:41,0
DA:42,0
DA:43,7
DA:50,14
DA:51,14
DA:52,14
DA:53,14
DA:54,14
DA:55,14
DA:56,14
DA:57,0
DA:58,0
DA:59,0
DA:60,0
DA:61,0
DA:62,0
DA:64,0
DA:66,0
DA:67,14
DA:71,7
DA:72,7
DA:73,7
DA:74,7
DA:75,6
DA:76,7
DA:77,7
DA:78,7
DA:79,7
DA:80,28
DA:81,7
DA:82,35
DA:84,28
DA:85,28
DA:87,0
DA:89,28
DA:90,28
DA:92,0
DA:93,28
DA:94,28
DA:95,28
DA:96,0
DA:97,28
DA:100,28
DA:101,28
DA:102,28
DA:103,28
DA:104,28
DA:105,112
DA:106,28
DA:107,28
DA:108,28
DA:109,28
DA:110,28
DA:111,28
DA:112,28
DA:113,28
DA:114,28
DA:115,28
DA:116,28
DA:117,28
DA:118,28
DA:119,28
DA:120,28
DA:121,28
DA:122,28
DA:123,28
DA:124,28
DA:125,28
DA:126,28
DA:127,28
DA:128,28
DA:129,35
DA:131,28
DA:132,28
DA:134,0
DA:135,0
DA:136,0
DA:138,0
DA:139,0
DA:140,0
DA:141,0
DA:142,0
DA:143,0
DA:144,0
DA:145,28
DA:146,28
DA:149,0
DA:151,0
DA:152,0
DA:153,0
DA:155,0
DA:156,0
DA:157,0
DA:158,0
DA:159,0
DA:160,0
DA:161,0
DA:166,6
DA:167,7
DA:168,7
BRF:0
BRH:0
LF:121
LH:75
end_of_record
SF:/home/leone/Documents/next-hat/nanocl/bin/nanocld/src/cli.rs
FN:5,_RNvXs2_NtCsaS3fY9lrCeZ_7nanocld3cliNtB5_3CliNtNtCs2aLnEu25Pl6_4clap6derive14FromArgMatches16from_arg_matches
FN:5,_RNvXs1_NtCsaS3fY9lrCeZ_7nanocld3cliNtB5_3CliNtNtCs2aLnEu25Pl6_4clap6derive14CommandFactory18command_for_update
FN:5,_RNvXs_NtCsaS3fY9lrCeZ_7nanocld3cliNtB4_3CliNtNtCshYNBHIop811_4core5clone5Clone5cloneB6_
FN:15,_RNCNvXs2_NtCsaS3fY9lrCeZ_7nanocld3cliNtB7_3CliNtNtCs2aLnEu25Pl6_4clap6derive14FromArgMatches27update_from_arg_matches_muts_0B9_
FN:25,_RNCNvXs2_NtCsaS3fY9lrCeZ_7nanocld3cliNtB7_3CliNtNtCs2aLnEu25Pl6_4clap6derive14FromArgMatches27update_from_arg_matches_muts0_0B9_
FN:5,_RNvXs2_NtCsaS3fY9lrCeZ_7nanocld3cliNtB5_3CliNtNtCs2aLnEu25Pl6_4clap6derive14FromArgMatches23update_from_arg_matches
FN:5,_RNvXs3_NtCsaS3fY9lrCeZ_7nanocld3cliNtB5_3CliNtNtCs2aLnEu25Pl6_4clap6derive4Args23augment_args_for_update
FN:34,_RNCNvXs2_NtCsaS3fY9lrCeZ_7nanocld3cliNtB7_3CliNtNtCs2aLnEu25Pl6_4clap6derive14FromArgMatches27update_from_arg_matches_muts1_0B9_
FN:12,_RNCNvXs2_NtCsaS3fY9lrCeZ_7nanocld3cliNtB7_3CliNtNtCs2aLnEu25Pl6_4clap6derive14FromArgMatches27update_from_arg_matches_mut0B9_
FN:5,_RNvXs2_NtCsaS3fY9lrCeZ_7nanocld3cliNtB5_3CliNtNtCs2aLnEu25Pl6_4clap6derive14FromArgMatches27update_from_arg_matches_mut
FN:5,_RNvXNtCsaS3fY9lrCeZ_7nanocld3cliNtB2_3CliNtNtCshYNBHIop811_4core3fmt5Debug3fmt
FN:5,_RNvXs3_NtCsaS3fY9lrCeZ_7nanocld3cliNtB5_3CliNtNtCs2aLnEu25Pl6_4clap6derive4Args8group_id
FN:5,_RNvXs2_NtCsaS3fY9lrCeZ_7nanocld3cliNtB5_3CliNtNtCs2aLnEu25Pl6_4clap6derive14FromArgMatches20from_arg_matches_mut
FN:5,_RNvXs3_NtCsaS3fY9lrCeZ_7nanocld3cliNtB5_3CliNtNtCs2aLnEu25Pl6_4clap6derive4Args12augment_args
FN:12,_RNCNvXs2_NtCsaS3fY9lrCeZ_7nanocld3cliNtB7_3CliNtNtCs2aLnEu25Pl6_4clap6derive14FromArgMatches20from_arg_matches_mut0B9_
FN:25,_RNCNvXs2_NtCsaS3fY9lrCeZ_7nanocld3cliNtB7_3CliNtNtCs2aLnEu25Pl6_4clap6derive14FromArgMatches20from_arg_matches_muts0_0B9_
FN:15,_RNCNvXs2_NtCsaS3fY9lrCeZ_7nanocld3cliNtB7_3CliNtNtCs2aLnEu25Pl6_4clap6derive14FromArgMatches20from_arg_matches_muts_0B9_
FN:5,_RNvXs1_NtCsaS3fY9lrCeZ_7nanocld3cliNtB5_3CliNtNtCs2aLnEu25Pl6_4clap6derive14CommandFactory7command
FN:34,_RNCNvXs2_NtCsaS3fY9lrCeZ_7nanocld3cliNtB7_3CliNtNtCs2aLnEu25Pl6_4clap6derive14FromArgMatches20from_arg_matches_muts1_0B9_
FN:46,_RNCNvNtNtCsaS3fY9lrCeZ_7nanocld3cli5tests16cli_with_default0B7_
FN:47,_RNvNtNtCsaS3fY9lrCeZ_7nanocld3cli5testss_16cli_with_default
FN:57,_RNCNvNtNtCsaS3fY9lrCeZ_7nanocld3cli5tests15cli_with_custom0B7_
FN:58,_RNvNtNtCsaS3fY9lrCeZ_7nanocld3cli5testss_15cli_with_custom
FNDA:0,_RNvXs2_NtCsaS3fY9lrCeZ_7nanocld3cliNtB5_3CliNtNtCs2aLnEu25Pl6_4clap6derive14FromArgMatches16from_arg_matches
FNDA:0,_RNvXs1_NtCsaS3fY9lrCeZ_7nanocld3cliNtB5_3CliNtNtCs2aLnEu25Pl6_4clap6derive14CommandFactory18command_for_update
FNDA:0,_RNvXs_NtCsaS3fY9lrCeZ_7nanocld3cliNtB4_3CliNtNtCshYNBHIop811_4core5clone5Clone5cloneB6_
FNDA:0,_RNCNvXs2_NtCsaS3fY9lrCeZ_7nanocld3cliNtB7_3CliNtNtCs2aLnEu25Pl6_4clap6derive14FromArgMatches27update_from_arg_matches_muts_0B9_
FNDA:0,_RNCNvXs2_NtCsaS3fY9lrCeZ_7nanocld3cliNtB7_3CliNtNtCs2aLnEu25Pl6_4clap6derive14FromArgMatches27update_from_arg_matches_muts0_0B9_
FNDA:0,_RNvXs2_NtCsaS3fY9lrCeZ_7nanocld3cliNtB5_3CliNtNtCs2aLnEu25Pl6_4clap6derive14FromArgMatches23update_from_arg_matches
FNDA:0,_RNvXs3_NtCsaS3fY9lrCeZ_7nanocld3cliNtB5_3CliNtNtCs2aLnEu25Pl6_4clap6derive4Args23augment_args_for_update
FNDA:0,_RNCNvXs2_NtCsaS3fY9lrCeZ_7nanocld3cliNtB7_3CliNtNtCs2aLnEu25Pl6_4clap6derive14FromArgMatches27update_from_arg_matches_muts1_0B9_
FNDA:0,_RNCNvXs2_NtCsaS3fY9lrCeZ_7nanocld3cliNtB7_3CliNtNtCs2aLnEu25Pl6_4clap6derive14FromArgMatches27update_from_arg_matches_mut0B9_
FNDA:0,_RNvXs2_NtCsaS3fY9lrCeZ_7nanocld3cliNtB5_3CliNtNtCs2aLnEu25Pl6_4clap6derive14FromArgMatches27update_from_arg_matches_mut
FNDA:0,_RNvXNtCsaS3fY9lrCeZ_7nanocld3cliNtB2_3CliNtNtCshYNBHIop811_4core3fmt5Debug3fmt
FNDA:0,_RNvXs3_NtCsaS3fY9lrCeZ_7nanocld3cliNtB5_3CliNtNtCs2aLnEu25Pl6_4clap6derive4Args8group_id
FNDA:7,_RNvXs2_NtCsaS3fY9lrCeZ_7nanocld3cliNtB5_3CliNtNtCs2aLnEu25Pl6_4clap6derive14FromArgMatches20from_arg_matches_mut
FNDA:7,_RNvXs3_NtCsaS3fY9lrCeZ_7nanocld3cliNtB5_3CliNtNtCs2aLnEu25Pl6_4clap6derive4Args12augment_args
FNDA:0,_RNCNvXs2_NtCsaS3fY9lrCeZ_7nanocld3cliNtB7_3CliNtNtCs2aLnEu25Pl6_4clap6derive14FromArgMatches20from_arg_matches_mut0B9_
FNDA:0,_RNCNvXs2_NtCsaS3fY9lrCeZ_7nanocld3cliNtB7_3CliNtNtCs2aLnEu25Pl6_4clap6derive14FromArgMatches20from_arg_matches_muts0_0B9_
FNDA:6,_RNCNvXs2_NtCsaS3fY9lrCeZ_7nanocld3cliNtB7_3CliNtNtCs2aLnEu25Pl6_4clap6derive14FromArgMatches20from_arg_matches_muts_0B9_
FNDA:7,_RNvXs1_NtCsaS3fY9lrCeZ_7nanocld3cliNtB5_3CliNtNtCs2aLnEu25Pl6_4clap6derive14CommandFactory7command
FNDA:0,_RNCNvXs2_NtCsaS3fY9lrCeZ_7nanocld3cliNtB7_3CliNtNtCs2aLnEu25Pl6_4clap6derive14FromArgMatches20from_arg_matches_muts1_0B9_
FNDA:1,_RNCNvNtNtCsaS3fY9lrCeZ_7nanocld3cli5tests16cli_with_default0B7_
FNDA:1,_RNvNtNtCsaS3fY9lrCeZ_7nanocld3cli5testss_16cli_with_default
FNDA:1,_RNCNvNtNtCsaS3fY9lrCeZ_7nanocld3cli5tests15cli_with_custom0B7_
FNDA:1,_RNvNtNtCsaS3fY9lrCeZ_7nanocld3cli5testss_15cli_with_custom
FNF:11
FNH:6
DA:5,14
DA:12,0
DA:13,0
DA:15,6
DA:25,0
DA:34,0
DA:46,1
DA:47,1
DA:48,1
DA:49,1
DA:50,1
DA:51,1
DA:52,1
DA:53,1
DA:54,1
DA:57,1
DA:58,1
DA:59,1
DA:60,1
DA:61,1
DA:62,1
DA:63,1
DA:64,1
DA:65,1
DA:66,1
DA:67,1
DA:68,1
DA:69,1
DA:70,1
DA:71,1
DA:72,1
DA:73,1
DA:74,1
DA:75,1
DA:76,1
DA:77,1
DA:78,1
BRF:0
BRH:0
LF:39
LH:33
end_of_record
SF:/home/leone/Documents/next-hat/nanocl/bin/nanocld/src/config.rs
FN:150,_RNvNtNtCsaS3fY9lrCeZ_7nanocld6config5testss_12merge_config
FN:184,_RNCNvNtNtCsaS3fY9lrCeZ_7nanocld6config5tests14read_from_file0B7_
FN:185,_RNvNtNtCsaS3fY9lrCeZ_7nanocld6config5testss_14read_from_file
FN:149,_RNCNvNtNtCsaS3fY9lrCeZ_7nanocld6config5tests12merge_config0B7_
FN:236,_RNvNtNtCsaS3fY9lrCeZ_7nanocld6config5testss_11init_config
FN:235,_RNCNvNtNtCsaS3fY9lrCeZ_7nanocld6config5tests11init_config0B7_
FN:7,_RNvNtCsaS3fY9lrCeZ_7nanocld6config15gen_daemon_conf
FN:81,_RNCNvNtCsaS3fY9lrCeZ_7nanocld6config16read_config_file0B5_
FN:52,_RNCNvNtCsaS3fY9lrCeZ_7nanocld6config15gen_daemon_confs_0B5_
FN:41,_RNCNvNtCsaS3fY9lrCeZ_7nanocld6config15gen_daemon_conf0B5_
FN:91,_RNCNvNtCsaS3fY9lrCeZ_7nanocld6config16read_config_files_0B5_
FN:74,_RNvNtCsaS3fY9lrCeZ_7nanocld6config16read_config_file
FN:135,_RNvNtCsaS3fY9lrCeZ_7nanocld6config4init
FNDA:1,_RNvNtNtCsaS3fY9lrCeZ_7nanocld6config5testss_12merge_config
FNDA:1,_RNCNvNtNtCsaS3fY9lrCeZ_7nanocld6config5tests14read_from_file0B7_
FNDA:1,_RNvNtNtCsaS3fY9lrCeZ_7nanocld6config5testss_14read_from_file
FNDA:1,_RNCNvNtNtCsaS3fY9lrCeZ_7nanocld6config5tests12merge_config0B7_
FNDA:1,_RNvNtNtCsaS3fY9lrCeZ_7nanocld6config5testss_11init_config
FNDA:1,_RNCNvNtNtCsaS3fY9lrCeZ_7nanocld6config5tests11init_config0B7_
FNDA:9,_RNvNtCsaS3fY9lrCeZ_7nanocld6config15gen_daemon_conf
FNDA:2,_RNCNvNtCsaS3fY9lrCeZ_7nanocld6config16read_config_file0B5_
FNDA:0,_RNCNvNtCsaS3fY9lrCeZ_7nanocld6config15gen_daemon_confs_0B5_
FNDA:0,_RNCNvNtCsaS3fY9lrCeZ_7nanocld6config15gen_daemon_conf0B5_
FNDA:1,_RNCNvNtCsaS3fY9lrCeZ_7nanocld6config16read_config_files_0B5_
FNDA:13,_RNvNtCsaS3fY9lrCeZ_7nanocld6config16read_config_file
FNDA:8,_RNvNtCsaS3fY9lrCeZ_7nanocld6config4init
FNF:13
FNH:11
DA:7,9
DA:8,9
DA:9,9
DA:10,9
DA:11,9
DA:12,8
DA:13,1
DA:14,0
DA:16,1
DA:19,9
DA:20,2
DA:21,7
DA:22,0
DA:24,7
DA:27,9
DA:28,2
DA:29,7
DA:30,0
DA:32,7
DA:35,9
DA:36,0
DA:37,9
DA:38,0
DA:40,9
DA:41,9
DA:42,0
DA:43,9
DA:44,9
DA:47,9
DA:48,0
DA:49,9
DA:50,0
DA:52,9
DA:53,0
DA:54,9
DA:57,9
DA:58,0
DA:60,9
DA:63,9
DA:64,9
DA:65,9
DA:66,9
DA:67,9
DA:68,9
DA:69,9
DA:70,9
DA:71,9
DA:72,9
DA:74,13
DA:75,13
DA:76,13
DA:77,13
DA:78,9
DA:79,4
DA:81,4
DA:82,2
DA:83,2
DA:84,2
DA:85,2
DA:86,2
DA:87,2
DA:88,2
DA:89,4
DA:90,1
DA:91,2
DA:92,1
DA:93,1
DA:94,1
DA:95,1
DA:96,1
DA:97,1
DA:98,1
DA:99,2
DA:101,1
DA:102,13
DA:135,8
DA:136,8
DA:138,8
DA:139,8
DA:149,1
DA:150,1
DA:151,1
DA:152,1
DA:153,1
DA:154,1
DA:155,1
DA:156,1
DA:157,1
DA:158,1
DA:159,1
DA:160,1
DA:161,1
DA:162,1
DA:163,1
DA:164,1
DA:165,1
DA:166,1
DA:167,1
DA:168,1
DA:169,1
DA:170,1
DA:171,1
DA:172,1
DA:173,1
DA:174,1
DA:175,1
DA:176,1
DA:184,1
DA:185,1
DA:186,1
DA:187,1
DA:188,1
DA:189,1
DA:190,1
DA:191,0
DA:192,1
DA:195,1
DA:196,1
DA:197,1
DA:200,1
DA:201,1
DA:202,1
DA:203,1
DA:204,1
DA:205,1
DA:206,1
DA:207,1
DA:208,1
DA:209,1
DA:210,1
DA:212,1
DA:213,1
DA:214,1
DA:215,1
DA:218,1
DA:219,1
DA:220,1
DA:221,1
DA:222,1
DA:223,1
DA:224,1
DA:227,1
DA:228,1
DA:229,1
DA:230,1
DA:231,1
DA:232,1
DA:235,1
DA:236,1
DA:237,1
DA:238,1
DA:239,1
DA:240,1
DA:241,1
DA:242,1
DA:243,1
DA:244,1
DA:245,1
DA:246,1
DA:247,1
DA:248,1
DA:249,1
DA:250,1
DA:251,1
DA:252,1
DA:253,1
BRF:0
BRH:0
LF:174
LH:159
end_of_record
SF:/home/leone/Documents/next-hat/nanocl/bin/nanocld/src/error.rs
FN:61,_RNvXs1_NtCsaS3fY9lrCeZ_7nanocld5errorNtB5_17HttpResponseErrorNtNtNtCsUwcWOEjd2I_4ntex3web5error16WebResponseError14error_response
FN:35,_RNvXs_NtCsaS3fY9lrCeZ_7nanocld5errorNtB4_17HttpResponseErrorINtNtCshYNBHIop811_4core7convert4FromNtNtCs1BwvzQeRzc7_12bollard_next6errors5ErrorE4from
FN:28,_RNvXs5_NtCsaS3fY9lrCeZ_7nanocld5errorNtB5_17HttpResponseErrorNtNtCshYNBHIop811_4core5clone5Clone5cloneB7_
FN:54,_RNvXs0_NtCsaS3fY9lrCeZ_7nanocld5errorNtB5_17HttpResponseErrorNtNtCshYNBHIop811_4core3fmt7Display3fmt
FN:16,_RINvMNtCsaS3fY9lrCeZ_7nanocld5errorNtB3_8CliError3newNtNtCs7OvAONlnxZo_5alloc6string6StringEB5_
FN:28,_RNvXs6_NtCsaS3fY9lrCeZ_7nanocld5errorNtB5_17HttpResponseErrorNtNtCshYNBHIop811_4core3fmt5Debug3fmt
FN:69,_RNvXs2_NtCsaS3fY9lrCeZ_7nanocld5errorNtB5_8CliErrorINtNtCshYNBHIop811_4core7convert4FromNtB5_17HttpResponseErrorE4from
FN:78,_RNvXs3_NtCsaS3fY9lrCeZ_7nanocld5errorNtB5_8CliErrorINtNtCshYNBHIop811_4core7convert4FromNtNtCs1BwvzQeRzc7_12bollard_next6errors5ErrorE4from
FN:9,_RNvXs4_NtCsaS3fY9lrCeZ_7nanocld5errorNtB5_8CliErrorNtNtCshYNBHIop811_4core3fmt5Debug3fmt
FNDA:1,_RNvXs1_NtCsaS3fY9lrCeZ_7nanocld5errorNtB5_17HttpResponseErrorNtNtNtCsUwcWOEjd2I_4ntex3web5error16WebResponseError14error_response
FNDA:0,_RNvXs_NtCsaS3fY9lrCeZ_7nanocld5errorNtB4_17HttpResponseErrorINtNtCshYNBHIop811_4core7convert4FromNtNtCs1BwvzQeRzc7_12bollard_next6errors5ErrorE4from
FNDA:0,_RNvXs5_NtCsaS3fY9lrCeZ_7nanocld5errorNtB5_17HttpResponseErrorNtNtCshYNBHIop811_4core5clone5Clone5cloneB7_
FNDA:0,_RNvXs0_NtCsaS3fY9lrCeZ_7nanocld5errorNtB5_17HttpResponseErrorNtNtCshYNBHIop811_4core3fmt7Display3fmt
FNDA:3,_RINvMNtCsaS3fY9lrCeZ_7nanocld5errorNtB3_8CliError3newNtNtCs7OvAONlnxZo_5alloc6string6StringEB5_
FNDA:0,_RNvXs6_NtCsaS3fY9lrCeZ_7nanocld5errorNtB5_17HttpResponseErrorNtNtCshYNBHIop811_4core3fmt5Debug3fmt
FNDA:0,_RNvXs2_NtCsaS3fY9lrCeZ_7nanocld5errorNtB5_8CliErrorINtNtCshYNBHIop811_4core7convert4FromNtB5_17HttpResponseErrorE4from
FNDA:0,_RNvXs3_NtCsaS3fY9lrCeZ_7nanocld5errorNtB5_8CliErrorINtNtCshYNBHIop811_4core7convert4FromNtNtCs1BwvzQeRzc7_12bollard_next6errors5ErrorE4from
FNDA:0,_RNvXs4_NtCsaS3fY9lrCeZ_7nanocld5errorNtB5_8CliErrorNtNtCshYNBHIop811_4core3fmt5Debug3fmt
FNF:9
FNH:2
DA:9,0
DA:16,3
DA:17,3
DA:18,3
DA:19,3
DA:20,3
DA:21,3
DA:22,3
DA:23,3
DA:24,3
DA:28,0
DA:35,0
DA:36,0
DA:38,0
DA:39,0
DA:40,0
DA:41,0
DA:42,0
DA:43,0
DA:44,0
DA:45,0
DA:46,0
DA:47,0
DA:48,0
DA:50,0
DA:54,0
DA:55,0
DA:56,0
DA:61,1
DA:62,1
DA:63,1
DA:64,1
DA:65,1
DA:69,0
DA:70,0
DA:71,0
DA:72,0
DA:73,0
DA:74,0
DA:78,0
DA:79,0
DA:80,0
DA:81,0
DA:82,0
DA:83,0
BRF:0
BRH:0
LF:46
LH:14
end_of_record
SF:/home/leone/Documents/next-hat/nanocl/bin/nanocld/src/event.rs
FN:85,_RNvMs_NtCsaS3fY9lrCeZ_7nanocld5eventNtB4_12EventEmitter3new
FN:36,_RNvXs0_NtCsaS3fY9lrCeZ_7nanocld5eventNtB5_12EventEmitterNtNtCshYNBHIop811_4core5clone5Clone5cloneB7_
FN:61,_RNvMs_NtCsaS3fY9lrCeZ_7nanocld5eventNtB4_12EventEmitter16check_connection
FN:93,_RNvMs_NtCsaS3fY9lrCeZ_7nanocld5eventNtB4_12EventEmitter4send
FN:101,_RNvMs_NtCsaS3fY9lrCeZ_7nanocld5eventNtB4_12EventEmitter9subscribe
FN:95,_RNCNvMs_NtCsaS3fY9lrCeZ_7nanocld5eventNtB6_12EventEmitter4send0B8_
FN:28,_RNvXNtCsaS3fY9lrCeZ_7nanocld5eventNtB2_6ClientNtNtCs1XDG6hl1wbf_12futures_core6stream6Stream9poll_next
FN:45,_RNCNvMs_NtCsaS3fY9lrCeZ_7nanocld5eventNtB6_12EventEmitter12handle_event0B8_
FN:56,_RNvMs_NtCsaS3fY9lrCeZ_7nanocld5eventNtB4_12EventEmitter10add_client
FN:74,_RNvMs_NtCsaS3fY9lrCeZ_7nanocld5eventNtB4_12EventEmitter22spawn_check_connection
FN:45,_RNvMs_NtCsaS3fY9lrCeZ_7nanocld5eventNtB4_12EventEmitter12handle_event
FN:75,_RNCNvMs_NtCsaS3fY9lrCeZ_7nanocld5eventNtB6_12EventEmitter22spawn_check_connection0B8_
FN:36,_RNvXs1_NtCsaS3fY9lrCeZ_7nanocld5eventNtB5_12EventEmitterNtNtCshYNBHIop811_4core7default7Default7defaultB7_
FN:117,_RNCNvNtNtCsaS3fY9lrCeZ_7nanocld5event5testss_5basic0B7_
FN:117,_RNCNvNtNtCsaS3fY9lrCeZ_7nanocld5event5tests5basic0B7_
FN:117,_RNvNtNtCsaS3fY9lrCeZ_7nanocld5event5testss_5basic
FNDA:26,_RNvMs_NtCsaS3fY9lrCeZ_7nanocld5eventNtB4_12EventEmitter3new
FNDA:31,_RNvXs0_NtCsaS3fY9lrCeZ_7nanocld5eventNtB5_12EventEmitterNtNtCshYNBHIop811_4core5clone5Clone5cloneB7_
FNDA:2,_RNvMs_NtCsaS3fY9lrCeZ_7nanocld5eventNtB4_12EventEmitter16check_connection
FNDA:31,_RNvMs_NtCsaS3fY9lrCeZ_7nanocld5eventNtB4_12EventEmitter4send
FNDA:2,_RNvMs_NtCsaS3fY9lrCeZ_7nanocld5eventNtB4_12EventEmitter9subscribe
FNDA:31,_RNCNvMs_NtCsaS3fY9lrCeZ_7nanocld5eventNtB6_12EventEmitter4send0B8_
FNDA:13,_RNvXNtCsaS3fY9lrCeZ_7nanocld5eventNtB2_6ClientNtNtCs1XDG6hl1wbf_12futures_core6stream6Stream9poll_next
FNDA:31,_RNCNvMs_NtCsaS3fY9lrCeZ_7nanocld5eventNtB6_12EventEmitter12handle_event0B8_
FNDA:2,_RNvMs_NtCsaS3fY9lrCeZ_7nanocld5eventNtB4_12EventEmitter10add_client
FNDA:26,_RNvMs_NtCsaS3fY9lrCeZ_7nanocld5eventNtB4_12EventEmitter22spawn_check_connection
FNDA:31,_RNvMs_NtCsaS3fY9lrCeZ_7nanocld5eventNtB4_12EventEmitter12handle_event
FNDA:26,_RNCNvMs_NtCsaS3fY9lrCeZ_7nanocld5eventNtB6_12EventEmitter22spawn_check_connection0B8_
FNDA:26,_RNvXs1_NtCsaS3fY9lrCeZ_7nanocld5eventNtB5_12EventEmitterNtNtCshYNBHIop811_4core7default7Default7defaultB7_
FNDA:1,_RNCNvNtNtCsaS3fY9lrCeZ_7nanocld5event5testss_5basic0B7_
FNDA:1,_RNCNvNtNtCsaS3fY9lrCeZ_7nanocld5event5tests5basic0B7_
FNDA:1,_RNvNtNtCsaS3fY9lrCeZ_7nanocld5event5testss_5basic
FNF:14
FNH:14
DA:28,13
DA:29,6
DA:30,0
DA:31,7
DA:33,13
DA:36,31
DA:45,31
DA:46,31
DA:47,31
DA:48,31
DA:49,31
DA:50,37
DA:51,6
DA:53,31
DA:56,2
DA:57,2
DA:58,2
DA:61,2
DA:62,2
DA:63,2
DA:64,0
DA:65,0
DA:66,0
DA:67,0
DA:69,2
DA:70,2
DA:71,2
DA:74,26
DA:75,26
DA:77,28
DA:78,28
DA:79,2
DA:81,26
DA:82,26
DA:85,26
DA:86,26
DA:87,26
DA:88,26
DA:89,26
DA:90,26
DA:93,31
DA:94,31
DA:95,31
DA:96,31
DA:97,31
DA:98,31
DA:101,2
DA:102,2
DA:103,2
DA:104,2
DA:105,2
DA:117,2
BRF:0
BRH:0
LF:57
LH:52
end_of_record
SF:/home/leone/Documents/next-hat/nanocl/bin/nanocld/src/main.rs
FN:30,_RNCNvCsaS3fY9lrCeZ_7nanocld4main0B3_
FN:30,_RNvCsaS3fY9lrCeZ_7nanocld4main
FN:1,_RNvCsaS3fY9lrCeZ_7nanoclds_4main
FNDA:0,_RNCNvCsaS3fY9lrCeZ_7nanocld4main0B3_
FNDA:0,_RNvCsaS3fY9lrCeZ_7nanocld4main
FNDA:31,_RNvCsaS3fY9lrCeZ_7nanoclds_4main
FNF:2
FNH:1
DA:1,31
DA:30,0
BRF:0
BRH:0
LF:2
LH:1
end_of_record
SF:/home/leone/Documents/next-hat/nanocl/bin/nanocld/src/metric.rs
FN:11,_RNvNtCsaS3fY9lrCeZ_7nanocld6metric11save_metric
FN:48,_RNvNtCsaS3fY9lrCeZ_7nanocld6metric13spawn_metrics
FN:51,_RNCNvNtCsaS3fY9lrCeZ_7nanocld6metric13spawn_metrics0B5_
FN:11,_RNCNvNtCsaS3fY9lrCeZ_7nanocld6metric11save_metric0B5_
FN:53,_RNCNCNvNtCsaS3fY9lrCeZ_7nanocld6metric13spawn_metrics00B7_
FNDA:0,_RNvNtCsaS3fY9lrCeZ_7nanocld6metric11save_metric
FNDA:0,_RNvNtCsaS3fY9lrCeZ_7nanocld6metric13spawn_metrics
FNDA:0,_RNCNvNtCsaS3fY9lrCeZ_7nanocld6metric13spawn_metrics0B5_
FNDA:0,_RNCNvNtCsaS3fY9lrCeZ_7nanocld6metric11save_metric0B5_
FNDA:0,_RNCNCNvNtCsaS3fY9lrCeZ_7nanocld6metric13spawn_metrics00B7_
FNF:5
FNH:0
DA:11,0
DA:12,0
DA:13,0
DA:14,0
DA:15,0
DA:16,0
DA:17,0
DA:18,0
DA:19,0
DA:21,0
DA:22,0
DA:23,0
DA:24,0
DA:25,0
DA:26,0
DA:27,0
DA:29,0
DA:30,0
DA:31,0
DA:32,0
DA:33,0
DA:34,0
DA:35,0
DA:37,0
DA:38,0
DA:39,0
DA:40,0
DA:41,0
DA:42,0
DA:43,0
DA:46,0
DA:48,0
DA:49,0
DA:50,0
DA:51,0
DA:52,0
DA:53,0
DA:55,0
DA:56,0
DA:57,0
DA:58,0
DA:59,0
DA:60,0
DA:62,0
DA:63,0
DA:64,0
DA:69,0
DA:70,0
DA:73,0
DA:74,0
DA:76,0
DA:77,0
DA:78,0
BRF:0
BRH:0
LF:57
LH:0
end_of_record
SF:/home/leone/Documents/next-hat/nanocl/bin/nanocld/src/models/cargo.rs
FN:29,_RINvXs0_NvXNvNtNtCsaS3fY9lrCeZ_7nanocld6models5cargos4_1__NtBb_14CargoResetPathNtNtCse3fRS504XmB_5serde2de11Deserialize11deserializeNtB6_9___VisitorNtB1h_7Visitor9visit_seqpEBf_
FN:29,_RNvXNvXNvNtNtCsaS3fY9lrCeZ_7nanocld6models5cargos4_1__NtB7_14CargoResetPathNtNtCse3fRS504XmB_5serde2de11Deserialize11deserializeNtB2_14___FieldVisitorNtB1d_7Visitor9expecting
FN:19,_RNCNvXNvNtNtCsaS3fY9lrCeZ_7nanocld6models5cargos2_1__NtB6_18CargoUpdateDbModelNtNtNtNtCslG0KbgAlmnM_6diesel13query_builder16update_statement9changeset11AsChangeset12as_changeset0Ba_
FN:19,_RNCNvXNvNtNtCsaS3fY9lrCeZ_7nanocld6models5cargos2_1__NtB6_18CargoUpdateDbModelNtNtNtNtCslG0KbgAlmnM_6diesel13query_builder16update_statement9changeset11AsChangeset12as_changesets_0Ba_
FN:6,_RNvXs0_NvNtNtCsaS3fY9lrCeZ_7nanocld6models5cargos_1__RRNtB7_12CargoDbModelNtNtCslG0KbgAlmnM_6diesel12associations12Identifiable2id
FN:29,_RINvXNvXNvNtNtCsaS3fY9lrCeZ_7nanocld6models5cargos4_1__NtB8_14CargoResetPathNtNtCse3fRS504XmB_5serde2de11Deserialize11deserializeNtB3_14___FieldVisitorNtB1e_7Visitor9visit_u64pEBc_
FN:6,_RNvXININvNtNtCsaS3fY9lrCeZ_7nanocld6models5cargos1_1__s_0pENtB7_12CargoDbModelINtNtNtCslG0KbgAlmnM_6diesel12associations10belongs_to9BelongsToRNtNtB9_9namespace16NamespaceDbModelE11foreign_keyBb_
FN:29,_RINvXNvXNvNtNtCsaS3fY9lrCeZ_7nanocld6models5cargos4_1__NtB8_14CargoResetPathNtNtCse3fRS504XmB_5serde2de11Deserialize11deserializeNtB3_14___FieldVisitorNtB1e_7Visitor11visit_bytespEBc_
FN:19,_RNCNvXNvNtNtCsaS3fY9lrCeZ_7nanocld6models5cargos2_1__NtB6_18CargoUpdateDbModelNtNtNtNtCslG0KbgAlmnM_6diesel13query_builder16update_statement9changeset11AsChangeset12as_changesets0_0Ba_
FN:19,_RNvXs_NtNtCsaS3fY9lrCeZ_7nanocld6models5cargoNtB4_18CargoUpdateDbModelNtNtCshYNBHIop811_4core3fmt5Debug3fmt
FN:29,_RNvXs1_NtNtCsaS3fY9lrCeZ_7nanocld6models5cargoNtB5_14CargoResetPathNtNtCshYNBHIop811_4core3fmt5Debug3fmt
FN:6,_RNvXININvNtNtCsaS3fY9lrCeZ_7nanocld6models5cargos1_1__0pENtB7_12CargoDbModelINtNtNtCslG0KbgAlmnM_6diesel12associations10belongs_to9BelongsToNtNtB9_9namespace16NamespaceDbModelE11foreign_keyBb_
FN:29,_RNvXs0_NvXNvNtNtCsaS3fY9lrCeZ_7nanocld6models5cargos4_1__NtBa_14CargoResetPathNtNtCse3fRS504XmB_5serde2de11Deserialize11deserializeNtB5_9___VisitorNtB1g_7Visitor9expecting
FN:29,_RINvXNvNtNtCsaS3fY9lrCeZ_7nanocld6models5cargos3_1__NtB5_14CargoResetPathNtNtCse3fRS504XmB_5serde3ser9Serialize9serializepEB9_
FN:6,_RNvXs_NvNtNtCsaS3fY9lrCeZ_7nanocld6models5cargos_1__RNtB6_12CargoDbModelNtNtCslG0KbgAlmnM_6diesel12associations12Identifiable2id
FN:19,_RNvXNvNtNtCsaS3fY9lrCeZ_7nanocld6models5cargos2_1__NtB4_18CargoUpdateDbModelNtNtNtNtCslG0KbgAlmnM_6diesel13query_builder16update_statement9changeset11AsChangeset12as_changeset
FN:6,_RNvXININvNtNtCsaS3fY9lrCeZ_7nanocld6models5cargos1_1__s_0pENtB7_12CargoDbModelINtNtNtCslG0KbgAlmnM_6diesel12associations10belongs_to9BelongsToRNtNtB9_9namespace16NamespaceDbModelE18foreign_key_columnBb_
FN:19,_RNCNvXNvNtNtCsaS3fY9lrCeZ_7nanocld6models5cargos2_1__NtB6_18CargoUpdateDbModelNtNtNtNtCslG0KbgAlmnM_6diesel13query_builder16update_statement9changeset11AsChangeset12as_changesets1_0Ba_
FN:6,_RNvXNvNtNtCsaS3fY9lrCeZ_7nanocld6models5cargos0_1__NtB4_12CargoDbModelINtNtCslG0KbgAlmnM_6diesel10insertable10InsertableNtNtNtB8_6schema7cargoes5tableE6values
FN:6,_RNvXNtNtCsaS3fY9lrCeZ_7nanocld6models5cargoNtB2_12CargoDbModelNtNtCshYNBHIop811_4core3fmt5Debug3fmt
FN:19,_RNCNvXs_NvNtNtCsaS3fY9lrCeZ_7nanocld6models5cargos2_1__RNtB8_18CargoUpdateDbModelNtNtNtNtCslG0KbgAlmnM_6diesel13query_builder16update_statement9changeset11AsChangeset12as_changesets_0Bc_
FN:6,_RNvXNvNtNtCsaS3fY9lrCeZ_7nanocld6models5cargos_1__NtB4_12CargoDbModelNtNtCslG0KbgAlmnM_6diesel12associations8HasTable5table
FN:6,_RNvXs_NvNtNtCsaS3fY9lrCeZ_7nanocld6models5cargos0_1__RNtB6_12CargoDbModelINtNtCslG0KbgAlmnM_6diesel10insertable10InsertableNtNtNtBa_6schema7cargoes5tableE6values
FN:29,_RINvXs_NvXNvNtNtCsaS3fY9lrCeZ_7nanocld6models5cargos4_1__NtBa_14CargoResetPathNtNtCse3fRS504XmB_5serde2de11Deserialize11deserializeNtB5_7___FieldB1e_11deserializeNtNtCsfs6ZA2wikTs_11ntex_router2de3KeyEBe_
FN:6,_RNvXNvNtNtCsaS3fY9lrCeZ_7nanocld6models5cargos1_1__NtB4_12CargoDbModelINtNtNtCslG0KbgAlmnM_6diesel12associations10belongs_to9BelongsToNtNtB6_9namespace16NamespaceDbModelE18foreign_key_columnB8_
FN:29,_RINvXNvXNvNtNtCsaS3fY9lrCeZ_7nanocld6models5cargos4_1__NtB8_14CargoResetPathNtNtCse3fRS504XmB_5serde2de11Deserialize11deserializeNtB3_14___FieldVisitorNtB1e_7Visitor9visit_strNtNtB1e_5value5ErrorEBc_
FN:29,_RINvXNvNtNtCsaS3fY9lrCeZ_7nanocld6models5cargos4_1__NtB5_14CargoResetPathNtNtCse3fRS504XmB_5serde2de11Deserialize11deserializeINtNtCsfs6ZA2wikTs_11ntex_router2de16PathDeserializerNtNtCshsjOMNcMiwy_4http3uri3UriEEB9_
FN:19,_RNCNvXs_NvNtNtCsaS3fY9lrCeZ_7nanocld6models5cargos2_1__RNtB8_18CargoUpdateDbModelNtNtNtNtCslG0KbgAlmnM_6diesel13query_builder16update_statement9changeset11AsChangeset12as_changesets1_0Bc_
FN:19,_RNvXs0_NtNtCsaS3fY9lrCeZ_7nanocld6models5cargoNtB5_18CargoUpdateDbModelNtNtCshYNBHIop811_4core7default7Default7defaultB9_
FN:19,_RNCNvXs_NvNtNtCsaS3fY9lrCeZ_7nanocld6models5cargos2_1__RNtB8_18CargoUpdateDbModelNtNtNtNtCslG0KbgAlmnM_6diesel13query_builder16update_statement9changeset11AsChangeset12as_changeset0Bc_
FN:19,_RNvXs_NvNtNtCsaS3fY9lrCeZ_7nanocld6models5cargos2_1__RNtB6_18CargoUpdateDbModelNtNtNtNtCslG0KbgAlmnM_6diesel13query_builder16update_statement9changeset11AsChangeset12as_changeset
FN:6,_RNvXNvNtNtCsaS3fY9lrCeZ_7nanocld6models5cargo1__NtB4_12CargoDbModelINtNtCslG0KbgAlmnM_6diesel11deserialize9QueryableTNtNtB18_9sql_types4TextNtNtNtNtB18_2pg5types9sql_types11TimestamptzB1R_NtB2g_4UuidB1R_ENtNtB2k_7backend2PgE5buildB8_
FN:29,_RINvXs0_NvXNvNtNtCsaS3fY9lrCeZ_7nanocld6models5cargos4_1__NtBb_14CargoResetPathNtNtCse3fRS504XmB_5serde2de11Deserialize11deserializeNtB6_9___VisitorNtB1h_7Visitor9visit_mapINtNtCsfs6ZA2wikTs_11ntex_router2de18ParamsDeserializerNtNtCshsjOMNcMiwy_4http3uri3UriEEBf_
FN:19,_RNCNvXs_NvNtNtCsaS3fY9lrCeZ_7nanocld6models5cargos2_1__RNtB8_18CargoUpdateDbModelNtNtNtNtCslG0KbgAlmnM_6diesel13query_builder16update_statement9changeset11AsChangeset12as_changesets0_0Bc_
FNDA:0,_RINvXs0_NvXNvNtNtCsaS3fY9lrCeZ_7nanocld6models5cargos4_1__NtBb_14CargoResetPathNtNtCse3fRS504XmB_5serde2de11Deserialize11deserializeNtB6_9___VisitorNtB1h_7Visitor9visit_seqpEBf_
FNDA:0,_RNvXNvXNvNtNtCsaS3fY9lrCeZ_7nanocld6models5cargos4_1__NtB7_14CargoResetPathNtNtCse3fRS504XmB_5serde2de11Deserialize11deserializeNtB2_14___FieldVisitorNtB1d_7Visitor9expecting
FNDA:0,_RNCNvXNvNtNtCsaS3fY9lrCeZ_7nanocld6models5cargos2_1__NtB6_18CargoUpdateDbModelNtNtNtNtCslG0KbgAlmnM_6diesel13query_builder16update_statement9changeset11AsChangeset12as_changeset0Ba_
FNDA:0,_RNCNvXNvNtNtCsaS3fY9lrCeZ_7nanocld6models5cargos2_1__NtB6_18CargoUpdateDbModelNtNtNtNtCslG0KbgAlmnM_6diesel13query_builder16update_statement9changeset11AsChangeset12as_changesets_0Ba_
FNDA:0,_RNvXs0_NvNtNtCsaS3fY9lrCeZ_7nanocld6models5cargos_1__RRNtB7_12CargoDbModelNtNtCslG0KbgAlmnM_6diesel12associations12Identifiable2id
FNDA:0,_RINvXNvXNvNtNtCsaS3fY9lrCeZ_7nanocld6models5cargos4_1__NtB8_14CargoResetPathNtNtCse3fRS504XmB_5serde2de11Deserialize11deserializeNtB3_14___FieldVisitorNtB1e_7Visitor9visit_u64pEBc_
FNDA:0,_RNvXININvNtNtCsaS3fY9lrCeZ_7nanocld6models5cargos1_1__s_0pENtB7_12CargoDbModelINtNtNtCslG0KbgAlmnM_6diesel12associations10belongs_to9BelongsToRNtNtB9_9namespace16NamespaceDbModelE11foreign_keyBb_
FNDA:0,_RINvXNvXNvNtNtCsaS3fY9lrCeZ_7nanocld6models5cargos4_1__NtB8_14CargoResetPathNtNtCse3fRS504XmB_5serde2de11Deserialize11deserializeNtB3_14___FieldVisitorNtB1e_7Visitor11visit_bytespEBc_
FNDA:0,_RNCNvXNvNtNtCsaS3fY9lrCeZ_7nanocld6models5cargos2_1__NtB6_18CargoUpdateDbModelNtNtNtNtCslG0KbgAlmnM_6diesel13query_builder16update_statement9changeset11AsChangeset12as_changesets0_0Ba_
FNDA:0,_RNvXs_NtNtCsaS3fY9lrCeZ_7nanocld6models5cargoNtB4_18CargoUpdateDbModelNtNtCshYNBHIop811_4core3fmt5Debug3fmt
FNDA:0,_RNvXs1_NtNtCsaS3fY9lrCeZ_7nanocld6models5cargoNtB5_14CargoResetPathNtNtCshYNBHIop811_4core3fmt5Debug3fmt
FNDA:0,_RNvXININvNtNtCsaS3fY9lrCeZ_7nanocld6models5cargos1_1__0pENtB7_12CargoDbModelINtNtNtCslG0KbgAlmnM_6diesel12associations10belongs_to9BelongsToNtNtB9_9namespace16NamespaceDbModelE11foreign_keyBb_
FNDA:0,_RNvXs0_NvXNvNtNtCsaS3fY9lrCeZ_7nanocld6models5cargos4_1__NtBa_14CargoResetPathNtNtCse3fRS504XmB_5serde2de11Deserialize11deserializeNtB5_9___VisitorNtB1g_7Visitor9expecting
FNDA:0,_RINvXNvNtNtCsaS3fY9lrCeZ_7nanocld6models5cargos3_1__NtB5_14CargoResetPathNtNtCse3fRS504XmB_5serde3ser9Serialize9serializepEB9_
FNDA:0,_RNvXs_NvNtNtCsaS3fY9lrCeZ_7nanocld6models5cargos_1__RNtB6_12CargoDbModelNtNtCslG0KbgAlmnM_6diesel12associations12Identifiable2id
FNDA:0,_RNvXNvNtNtCsaS3fY9lrCeZ_7nanocld6models5cargos2_1__NtB4_18CargoUpdateDbModelNtNtNtNtCslG0KbgAlmnM_6diesel13query_builder16update_statement9changeset11AsChangeset12as_changeset
FNDA:0,_RNvXININvNtNtCsaS3fY9lrCeZ_7nanocld6models5cargos1_1__s_0pENtB7_12CargoDbModelINtNtNtCslG0KbgAlmnM_6diesel12associations10belongs_to9BelongsToRNtNtB9_9namespace16NamespaceDbModelE18foreign_key_columnBb_
FNDA:0,_RNCNvXNvNtNtCsaS3fY9lrCeZ_7nanocld6models5cargos2_1__NtB6_18CargoUpdateDbModelNtNtNtNtCslG0KbgAlmnM_6diesel13query_builder16update_statement9changeset11AsChangeset12as_changesets1_0Ba_
FNDA:0,_RNvXNvNtNtCsaS3fY9lrCeZ_7nanocld6models5cargos0_1__NtB4_12CargoDbModelINtNtCslG0KbgAlmnM_6diesel10insertable10InsertableNtNtNtB8_6schema7cargoes5tableE6values
FNDA:0,_RNvXNtNtCsaS3fY9lrCeZ_7nanocld6models5cargoNtB2_12CargoDbModelNtNtCshYNBHIop811_4core3fmt5Debug3fmt
FNDA:0,_RNCNvXs_NvNtNtCsaS3fY9lrCeZ_7nanocld6models5cargos2_1__RNtB8_18CargoUpdateDbModelNtNtNtNtCslG0KbgAlmnM_6diesel13query_builder16update_statement9changeset11AsChangeset12as_changesets_0Bc_
FNDA:3,_RNvXNvNtNtCsaS3fY9lrCeZ_7nanocld6models5cargos_1__NtB4_12CargoDbModelNtNtCslG0KbgAlmnM_6diesel12associations8HasTable5table
FNDA:4,_RNvXs_NvNtNtCsaS3fY9lrCeZ_7nanocld6models5cargos0_1__RNtB6_12CargoDbModelINtNtCslG0KbgAlmnM_6diesel10insertable10InsertableNtNtNtBa_6schema7cargoes5tableE6values
FNDA:3,_RINvXs_NvXNvNtNtCsaS3fY9lrCeZ_7nanocld6models5cargos4_1__NtBa_14CargoResetPathNtNtCse3fRS504XmB_5serde2de11Deserialize11deserializeNtB5_7___FieldB1e_11deserializeNtNtCsfs6ZA2wikTs_11ntex_router2de3KeyEBe_
FNDA:3,_RNvXNvNtNtCsaS3fY9lrCeZ_7nanocld6models5cargos1_1__NtB4_12CargoDbModelINtNtNtCslG0KbgAlmnM_6diesel12associations10belongs_to9BelongsToNtNtB6_9namespace16NamespaceDbModelE18foreign_key_columnB8_
FNDA:3,_RINvXNvXNvNtNtCsaS3fY9lrCeZ_7nanocld6models5cargos4_1__NtB8_14CargoResetPathNtNtCse3fRS504XmB_5serde2de11Deserialize11deserializeNtB3_14___FieldVisitorNtB1e_7Visitor9visit_strNtNtB1e_5value5ErrorEBc_
FNDA:1,_RINvXNvNtNtCsaS3fY9lrCeZ_7nanocld6models5cargos4_1__NtB5_14CargoResetPathNtNtCse3fRS504XmB_5serde2de11Deserialize11deserializeINtNtCsfs6ZA2wikTs_11ntex_router2de16PathDeserializerNtNtCshsjOMNcMiwy_4http3uri3UriEEB9_
FNDA:3,_RNCNvXs_NvNtNtCsaS3fY9lrCeZ_7nanocld6models5cargos2_1__RNtB8_18CargoUpdateDbModelNtNtNtNtCslG0KbgAlmnM_6diesel13query_builder16update_statement9changeset11AsChangeset12as_changesets1_0Bc_
FNDA:3,_RNvXs0_NtNtCsaS3fY9lrCeZ_7nanocld6models5cargoNtB5_18CargoUpdateDbModelNtNtCshYNBHIop811_4core7default7Default7defaultB9_
FNDA:0,_RNCNvXs_NvNtNtCsaS3fY9lrCeZ_7nanocld6models5cargos2_1__RNtB8_18CargoUpdateDbModelNtNtNtNtCslG0KbgAlmnM_6diesel13query_builder16update_statement9changeset11AsChangeset12as_changeset0Bc_
FNDA:3,_RNvXs_NvNtNtCsaS3fY9lrCeZ_7nanocld6models5cargos2_1__RNtB6_18CargoUpdateDbModelNtNtNtNtCslG0KbgAlmnM_6diesel13query_builder16update_statement9changeset11AsChangeset12as_changeset
FNDA:73,_RNvXNvNtNtCsaS3fY9lrCeZ_7nanocld6models5cargo1__NtB4_12CargoDbModelINtNtCslG0KbgAlmnM_6diesel11deserialize9QueryableTNtNtB18_9sql_types4TextNtNtNtNtB18_2pg5types9sql_types11TimestamptzB1R_NtB2g_4UuidB1R_ENtNtB2k_7backend2PgE5buildB8_
FNDA:1,_RINvXs0_NvXNvNtNtCsaS3fY9lrCeZ_7nanocld6models5cargos4_1__NtBb_14CargoResetPathNtNtCse3fRS504XmB_5serde2de11Deserialize11deserializeNtB6_9___VisitorNtB1h_7Visitor9visit_mapINtNtCsfs6ZA2wikTs_11ntex_router2de18ParamsDeserializerNtNtCshsjOMNcMiwy_4http3uri3UriEEBf_
FNDA:3,_RNCNvXs_NvNtNtCsaS3fY9lrCeZ_7nanocld6models5cargos2_1__RNtB8_18CargoUpdateDbModelNtNtNtNtCslG0KbgAlmnM_6diesel13query_builder16update_statement9changeset11AsChangeset12as_changesets0_0Bc_
FNF:11
FNH:7
DA:6,73
DA:19,3
DA:29,7
BRF:0
BRH:0
LF:11
LH:7
end_of_record
SF:/home/leone/Documents/next-hat/nanocl/bin/nanocld/src/models/cargo_config.rs
FN:6,_RNvXININvNtNtCsaS3fY9lrCeZ_7nanocld6models12cargo_configs1_1__s_0pENtB7_18CargoConfigDbModelINtNtNtCslG0KbgAlmnM_6diesel12associations10belongs_to9BelongsToRNtNtB9_5cargo12CargoDbModelE18foreign_key_columnBb_
FN:6,_RNvXININvNtNtCsaS3fY9lrCeZ_7nanocld6models12cargo_configs1_1__0pENtB7_18CargoConfigDbModelINtNtNtCslG0KbgAlmnM_6diesel12associations10belongs_to9BelongsToNtNtB9_5cargo12CargoDbModelE11foreign_keyBb_
FN:6,_RNvXININvNtNtCsaS3fY9lrCeZ_7nanocld6models12cargo_configs1_1__0pENtB7_18CargoConfigDbModelINtNtNtCslG0KbgAlmnM_6diesel12associations10belongs_to9BelongsToNtNtB9_5cargo12CargoDbModelE18foreign_key_columnBb_
FN:6,_RNvXs0_NvNtNtCsaS3fY9lrCeZ_7nanocld6models12cargo_configs_1__RRNtB7_18CargoConfigDbModelNtNtCslG0KbgAlmnM_6diesel12associations12Identifiable2id
FN:6,_RNvXs_NvNtNtCsaS3fY9lrCeZ_7nanocld6models12cargo_configs_1__RNtB6_18CargoConfigDbModelNtNtCslG0KbgAlmnM_6diesel12associations12Identifiable2id
FN:6,_RNvXNvNtNtCsaS3fY9lrCeZ_7nanocld6models12cargo_configs_1__NtB4_18CargoConfigDbModelNtNtCslG0KbgAlmnM_6diesel12associations8HasTable5table
FN:6,_RNvXNvNtNtCsaS3fY9lrCeZ_7nanocld6models12cargo_configs0_1__NtB4_18CargoConfigDbModelINtNtCslG0KbgAlmnM_6diesel10insertable10InsertableNtNtNtB8_6schema13cargo_configs5tableE6values
FN:6,_RNvXININvNtNtCsaS3fY9lrCeZ_7nanocld6models12cargo_configs1_1__s_0pENtB7_18CargoConfigDbModelINtNtNtCslG0KbgAlmnM_6diesel12associations10belongs_to9BelongsToRNtNtB9_5cargo12CargoDbModelE11foreign_keyBb_
FN:6,_RNvXNvNtNtCsaS3fY9lrCeZ_7nanocld6models12cargo_config1__NtB4_18CargoConfigDbModelINtNtCslG0KbgAlmnM_6diesel11deserialize9QueryableTNtNtNtNtB1m_2pg5types9sql_types4UuidNtB27_11TimestamptzNtNtB1m_9sql_types4TextB2Y_NtB27_5JsonbENtNtB2b_7backend2PgE5buildB8_
FN:6,_RNvXs_NvNtNtCsaS3fY9lrCeZ_7nanocld6models12cargo_configs0_1__RNtB6_18CargoConfigDbModelINtNtCslG0KbgAlmnM_6diesel10insertable10InsertableNtNtNtBa_6schema13cargo_configs5tableE6values
FNDA:0,_RNvXININvNtNtCsaS3fY9lrCeZ_7nanocld6models12cargo_configs1_1__s_0pENtB7_18CargoConfigDbModelINtNtNtCslG0KbgAlmnM_6diesel12associations10belongs_to9BelongsToRNtNtB9_5cargo12CargoDbModelE18foreign_key_columnBb_
FNDA:0,_RNvXININvNtNtCsaS3fY9lrCeZ_7nanocld6models12cargo_configs1_1__0pENtB7_18CargoConfigDbModelINtNtNtCslG0KbgAlmnM_6diesel12associations10belongs_to9BelongsToNtNtB9_5cargo12CargoDbModelE11foreign_keyBb_
FNDA:0,_RNvXININvNtNtCsaS3fY9lrCeZ_7nanocld6models12cargo_configs1_1__0pENtB7_18CargoConfigDbModelINtNtNtCslG0KbgAlmnM_6diesel12associations10belongs_to9BelongsToNtNtB9_5cargo12CargoDbModelE18foreign_key_columnBb_
FNDA:0,_RNvXs0_NvNtNtCsaS3fY9lrCeZ_7nanocld6models12cargo_configs_1__RRNtB7_18CargoConfigDbModelNtNtCslG0KbgAlmnM_6diesel12associations12Identifiable2id
FNDA:0,_RNvXs_NvNtNtCsaS3fY9lrCeZ_7nanocld6models12cargo_configs_1__RNtB6_18CargoConfigDbModelNtNtCslG0KbgAlmnM_6diesel12associations12Identifiable2id
FNDA:0,_RNvXNvNtNtCsaS3fY9lrCeZ_7nanocld6models12cargo_configs_1__NtB4_18CargoConfigDbModelNtNtCslG0KbgAlmnM_6diesel12associations8HasTable5table
FNDA:0,_RNvXNvNtNtCsaS3fY9lrCeZ_7nanocld6models12cargo_configs0_1__NtB4_18CargoConfigDbModelINtNtCslG0KbgAlmnM_6diesel10insertable10InsertableNtNtNtB8_6schema13cargo_configs5tableE6values
FNDA:0,_RNvXININvNtNtCsaS3fY9lrCeZ_7nanocld6models12cargo_configs1_1__s_0pENtB7_18CargoConfigDbModelINtNtNtCslG0KbgAlmnM_6diesel12associations10belongs_to9BelongsToRNtNtB9_5cargo12CargoDbModelE11foreign_keyBb_
FNDA:72,_RNvXNvNtNtCsaS3fY9lrCeZ_7nanocld6models12cargo_config1__NtB4_18CargoConfigDbModelINtNtCslG0KbgAlmnM_6diesel11deserialize9QueryableTNtNtNtNtB1m_2pg5types9sql_types4UuidNtB27_11TimestamptzNtNtB1m_9sql_types4TextB2Y_NtB27_5JsonbENtNtB2b_7backend2PgE5buildB8_
FNDA:7,_RNvXs_NvNtNtCsaS3fY9lrCeZ_7nanocld6models12cargo_configs0_1__RNtB6_18CargoConfigDbModelINtNtCslG0KbgAlmnM_6diesel10insertable10InsertableNtNtNtBa_6schema13cargo_configs5tableE6values
FNF:4
FNH:2
DA:6,72
BRF:0
BRH:0
LF:4
LH:2
end_of_record
SF:/home/leone/Documents/next-hat/nanocl/bin/nanocld/src/models/metric.rs
FN:15,_RNvXNvNtNtCsaS3fY9lrCeZ_7nanocld6models6metrics1_1__NtB4_19MetricInsertDbModelINtNtCslG0KbgAlmnM_6diesel10insertable10InsertableNtNtNtB8_6schema7metrics5tableE6values
FN:15,_RNvXs1_NtNtCsaS3fY9lrCeZ_7nanocld6models6metricNtB5_19MetricInsertDbModelNtNtCshYNBHIop811_4core7default7Default7defaultB9_
FN:15,_RNvXs_NvNtNtCsaS3fY9lrCeZ_7nanocld6models6metrics1_1__RNtB6_19MetricInsertDbModelINtNtCslG0KbgAlmnM_6diesel10insertable10InsertableNtNtNtBa_6schema7metrics5tableE6values
FN:15,_RNvXs_NtNtCsaS3fY9lrCeZ_7nanocld6models6metricNtB4_19MetricInsertDbModelNtNtCshYNBHIop811_4core5clone5Clone5cloneB8_
FN:3,_RNvXs_NvNtNtCsaS3fY9lrCeZ_7nanocld6models6metrics0_1__RNtB6_13MetricDbModelINtNtCslG0KbgAlmnM_6diesel10insertable10InsertableNtNtNtBa_6schema7metrics5tableE6values
FN:3,_RNvXs0_NvNtNtCsaS3fY9lrCeZ_7nanocld6models6metrics_1__RRNtB7_13MetricDbModelNtNtCslG0KbgAlmnM_6diesel12associations12Identifiable2id
FN:3,_RNvXNvNtNtCsaS3fY9lrCeZ_7nanocld6models6metrics_1__NtB4_13MetricDbModelNtNtCslG0KbgAlmnM_6diesel12associations8HasTable5table
FN:3,_RNvXNvNtNtCsaS3fY9lrCeZ_7nanocld6models6metrics0_1__NtB4_13MetricDbModelINtNtCslG0KbgAlmnM_6diesel10insertable10InsertableNtNtNtB8_6schema7metrics5tableE6values
FN:3,_RNvXNtNtCsaS3fY9lrCeZ_7nanocld6models6metricNtB2_13MetricDbModelNtNtCshYNBHIop811_4core3fmt5Debug3fmt
FN:3,_RNvXs_NvNtNtCsaS3fY9lrCeZ_7nanocld6models6metrics_1__RNtB6_13MetricDbModelNtNtCslG0KbgAlmnM_6diesel12associations12Identifiable2id
FN:15,_RNvXs0_NtNtCsaS3fY9lrCeZ_7nanocld6models6metricNtB5_19MetricInsertDbModelNtNtCshYNBHIop811_4core3fmt5Debug3fmt
FN:3,_RNvXININvNtNtCsaS3fY9lrCeZ_7nanocld6models6metric1__0pppppppENtB7_13MetricDbModelINtNtCslG0KbgAlmnM_6diesel11deserialize9QueryableTppppppEpE5buildBb_
FNDA:0,_RNvXNvNtNtCsaS3fY9lrCeZ_7nanocld6models6metrics1_1__NtB4_19MetricInsertDbModelINtNtCslG0KbgAlmnM_6diesel10insertable10InsertableNtNtNtB8_6schema7metrics5tableE6values
FNDA:0,_RNvXs1_NtNtCsaS3fY9lrCeZ_7nanocld6models6metricNtB5_19MetricInsertDbModelNtNtCshYNBHIop811_4core7default7Default7defaultB9_
FNDA:0,_RNvXs_NvNtNtCsaS3fY9lrCeZ_7nanocld6models6metrics1_1__RNtB6_19MetricInsertDbModelINtNtCslG0KbgAlmnM_6diesel10insertable10InsertableNtNtNtBa_6schema7metrics5tableE6values
FNDA:0,_RNvXs_NtNtCsaS3fY9lrCeZ_7nanocld6models6metricNtB4_19MetricInsertDbModelNtNtCshYNBHIop811_4core5clone5Clone5cloneB8_
FNDA:0,_RNvXs_NvNtNtCsaS3fY9lrCeZ_7nanocld6models6metrics0_1__RNtB6_13MetricDbModelINtNtCslG0KbgAlmnM_6diesel10insertable10InsertableNtNtNtBa_6schema7metrics5tableE6values
FNDA:0,_RNvXs0_NvNtNtCsaS3fY9lrCeZ_7nanocld6models6metrics_1__RRNtB7_13MetricDbModelNtNtCslG0KbgAlmnM_6diesel12associations12Identifiable2id
FNDA:0,_RNvXNvNtNtCsaS3fY9lrCeZ_7nanocld6models6metrics_1__NtB4_13MetricDbModelNtNtCslG0KbgAlmnM_6diesel12associations8HasTable5table
FNDA:0,_RNvXNvNtNtCsaS3fY9lrCeZ_7nanocld6models6metrics0_1__NtB4_13MetricDbModelINtNtCslG0KbgAlmnM_6diesel10insertable10InsertableNtNtNtB8_6schema7metrics5tableE6values
FNDA:0,_RNvXNtNtCsaS3fY9lrCeZ_7nanocld6models6metricNtB2_13MetricDbModelNtNtCshYNBHIop811_4core3fmt5Debug3fmt
FNDA:0,_RNvXs_NvNtNtCsaS3fY9lrCeZ_7nanocld6models6metrics_1__RNtB6_13MetricDbModelNtNtCslG0KbgAlmnM_6diesel12associations12Identifiable2id
FNDA:0,_RNvXs0_NtNtCsaS3fY9lrCeZ_7nanocld6models6metricNtB5_19MetricInsertDbModelNtNtCshYNBHIop811_4core3fmt5Debug3fmt
FNDA:0,_RNvXININvNtNtCsaS3fY9lrCeZ_7nanocld6models6metric1__0pppppppENtB7_13MetricDbModelINtNtCslG0KbgAlmnM_6diesel11deserialize9QueryableTppppppEpE5buildBb_
FNF:8
FNH:0
DA:3,0
DA:15,0
BRF:0
BRH:0
LF:8
LH:0
end_of_record
SF:/home/leone/Documents/next-hat/nanocl/bin/nanocld/src/models/namespace.rs
FN:7,_RINvXs0_NvXNvNtNtCsaS3fY9lrCeZ_7nanocld6models9namespaces_1__NtBb_16NamespaceDbModelNtNtCse3fRS504XmB_5serde2de11Deserialize11deserializeNtB6_9___VisitorNtB1m_7Visitor9visit_mappEBf_
FN:7,_RNvXs0_NvXNvNtNtCsaS3fY9lrCeZ_7nanocld6models9namespaces_1__NtBa_16NamespaceDbModelNtNtCse3fRS504XmB_5serde2de11Deserialize11deserializeNtB5_9___VisitorNtB1l_7Visitor9expecting
FN:7,_RINvXNvNtNtCsaS3fY9lrCeZ_7nanocld6models9namespace1__NtB5_16NamespaceDbModelNtNtCse3fRS504XmB_5serde3ser9Serialize9serializepEB9_
FN:7,_RINvXs_NvXNvNtNtCsaS3fY9lrCeZ_7nanocld6models9namespaces_1__NtBa_16NamespaceDbModelNtNtCse3fRS504XmB_5serde2de11Deserialize11deserializeNtB5_7___FieldB1j_11deserializepEBe_
FN:7,_RINvXNvXNvNtNtCsaS3fY9lrCeZ_7nanocld6models9namespaces_1__NtB8_16NamespaceDbModelNtNtCse3fRS504XmB_5serde2de11Deserialize11deserializeNtB3_14___FieldVisitorNtB1j_7Visitor9visit_strpEBc_
FN:7,_RINvXNvXNvNtNtCsaS3fY9lrCeZ_7nanocld6models9namespaces_1__NtB8_16NamespaceDbModelNtNtCse3fRS504XmB_5serde2de11Deserialize11deserializeNtB3_14___FieldVisitorNtB1j_7Visitor11visit_bytespEBc_
FN:7,_RNvXs0_NvNtNtCsaS3fY9lrCeZ_7nanocld6models9namespaces0_1__RRNtB7_16NamespaceDbModelNtNtCslG0KbgAlmnM_6diesel12associations12Identifiable2id
FN:7,_RINvXNvNtNtCsaS3fY9lrCeZ_7nanocld6models9namespaces_1__NtB5_16NamespaceDbModelNtNtCse3fRS504XmB_5serde2de11Deserialize11deserializepEB9_
FN:7,_RNvXNvXNvNtNtCsaS3fY9lrCeZ_7nanocld6models9namespaces_1__NtB7_16NamespaceDbModelNtNtCse3fRS504XmB_5serde2de11Deserialize11deserializeNtB2_14___FieldVisitorNtB1i_7Visitor9expecting
FN:7,_RINvXNvXNvNtNtCsaS3fY9lrCeZ_7nanocld6models9namespaces_1__NtB8_16NamespaceDbModelNtNtCse3fRS504XmB_5serde2de11Deserialize11deserializeNtB3_14___FieldVisitorNtB1j_7Visitor9visit_u64pEBc_
FN:7,_RINvXs0_NvXNvNtNtCsaS3fY9lrCeZ_7nanocld6models9namespaces_1__NtBb_16NamespaceDbModelNtNtCse3fRS504XmB_5serde2de11Deserialize11deserializeNtB6_9___VisitorNtB1m_7Visitor9visit_seqpEBf_
FN:7,_RNvXNvNtNtCsaS3fY9lrCeZ_7nanocld6models9namespaces0_1__NtB4_16NamespaceDbModelNtNtCslG0KbgAlmnM_6diesel12associations8HasTable5table
FN:7,_RNvXNvNtNtCsaS3fY9lrCeZ_7nanocld6models9namespaces1_1__NtB4_16NamespaceDbModelINtNtCslG0KbgAlmnM_6diesel10insertable10InsertableNtNtNtB8_6schema10namespaces5tableE6values
FN:7,_RNvXs_NtNtCsaS3fY9lrCeZ_7nanocld6models9namespaceNtB4_16NamespaceDbModelNtNtCshYNBHIop811_4core5clone5Clone5cloneB8_
FN:7,_RNvXs_NvNtNtCsaS3fY9lrCeZ_7nanocld6models9namespaces1_1__RNtB6_16NamespaceDbModelINtNtCslG0KbgAlmnM_6diesel10insertable10InsertableNtNtNtBa_6schema10namespaces5tableE6values
FN:7,_RNvXNvNtNtCsaS3fY9lrCeZ_7nanocld6models9namespaces2_1__NtB4_16NamespaceDbModelINtNtCslG0KbgAlmnM_6diesel11deserialize9QueryableTNtNtB1j_9sql_types4TextNtNtNtNtB1j_2pg5types9sql_types11TimestamptzENtNtB2v_7backend2PgE5buildB8_
FN:7,_RNvXs_NvNtNtCsaS3fY9lrCeZ_7nanocld6models9namespaces0_1__RNtB6_16NamespaceDbModelNtNtCslG0KbgAlmnM_6diesel12associations12Identifiable2id
FN:7,_RNvXNtNtCsaS3fY9lrCeZ_7nanocld6models9namespaceNtB2_16NamespaceDbModelNtNtCshYNBHIop811_4core3fmt5Debug3fmt
FNDA:0,_RINvXs0_NvXNvNtNtCsaS3fY9lrCeZ_7nanocld6models9namespaces_1__NtBb_16NamespaceDbModelNtNtCse3fRS504XmB_5serde2de11Deserialize11deserializeNtB6_9___VisitorNtB1m_7Visitor9visit_mappEBf_
FNDA:0,_RNvXs0_NvXNvNtNtCsaS3fY9lrCeZ_7nanocld6models9namespaces_1__NtBa_16NamespaceDbModelNtNtCse3fRS504XmB_5serde2de11Deserialize11deserializeNtB5_9___VisitorNtB1l_7Visitor9expecting
FNDA:0,_RINvXNvNtNtCsaS3fY9lrCeZ_7nanocld6models9namespace1__NtB5_16NamespaceDbModelNtNtCse3fRS504XmB_5serde3ser9Serialize9serializepEB9_
FNDA:0,_RINvXs_NvXNvNtNtCsaS3fY9lrCeZ_7nanocld6models9namespaces_1__NtBa_16NamespaceDbModelNtNtCse3fRS504XmB_5serde2de11Deserialize11deserializeNtB5_7___FieldB1j_11deserializepEBe_
FNDA:0,_RINvXNvXNvNtNtCsaS3fY9lrCeZ_7nanocld6models9namespaces_1__NtB8_16NamespaceDbModelNtNtCse3fRS504XmB_5serde2de11Deserialize11deserializeNtB3_14___FieldVisitorNtB1j_7Visitor9visit_strpEBc_
FNDA:0,_RINvXNvXNvNtNtCsaS3fY9lrCeZ_7nanocld6models9namespaces_1__NtB8_16NamespaceDbModelNtNtCse3fRS504XmB_5serde2de11Deserialize11deserializeNtB3_14___FieldVisitorNtB1j_7Visitor11visit_bytespEBc_
FNDA:0,_RNvXs0_NvNtNtCsaS3fY9lrCeZ_7nanocld6models9namespaces0_1__RRNtB7_16NamespaceDbModelNtNtCslG0KbgAlmnM_6diesel12associations12Identifiable2id
FNDA:0,_RINvXNvNtNtCsaS3fY9lrCeZ_7nanocld6models9namespaces_1__NtB5_16NamespaceDbModelNtNtCse3fRS504XmB_5serde2de11Deserialize11deserializepEB9_
FNDA:0,_RNvXNvXNvNtNtCsaS3fY9lrCeZ_7nanocld6models9namespaces_1__NtB7_16NamespaceDbModelNtNtCse3fRS504XmB_5serde2de11Deserialize11deserializeNtB2_14___FieldVisitorNtB1i_7Visitor9expecting
FNDA:0,_RINvXNvXNvNtNtCsaS3fY9lrCeZ_7nanocld6models9namespaces_1__NtB8_16NamespaceDbModelNtNtCse3fRS504XmB_5serde2de11Deserialize11deserializeNtB3_14___FieldVisitorNtB1j_7Visitor9visit_u64pEBc_
FNDA:0,_RINvXs0_NvXNvNtNtCsaS3fY9lrCeZ_7nanocld6models9namespaces_1__NtBb_16NamespaceDbModelNtNtCse3fRS504XmB_5serde2de11Deserialize11deserializeNtB6_9___VisitorNtB1m_7Visitor9visit_seqpEBf_
FNDA:0,_RNvXNvNtNtCsaS3fY9lrCeZ_7nanocld6models9namespaces0_1__NtB4_16NamespaceDbModelNtNtCslG0KbgAlmnM_6diesel12associations8HasTable5table
FNDA:0,_RNvXNvNtNtCsaS3fY9lrCeZ_7nanocld6models9namespaces1_1__NtB4_16NamespaceDbModelINtNtCslG0KbgAlmnM_6diesel10insertable10InsertableNtNtNtB8_6schema10namespaces5tableE6values
FNDA:4,_RNvXs_NtNtCsaS3fY9lrCeZ_7nanocld6models9namespaceNtB4_16NamespaceDbModelNtNtCshYNBHIop811_4core5clone5Clone5cloneB8_
FNDA:1,_RNvXs_NvNtNtCsaS3fY9lrCeZ_7nanocld6models9namespaces1_1__RNtB6_16NamespaceDbModelINtNtCslG0KbgAlmnM_6diesel10insertable10InsertableNtNtNtBa_6schema10namespaces5tableE6values
FNDA:25,_RNvXNvNtNtCsaS3fY9lrCeZ_7nanocld6models9namespaces2_1__NtB4_16NamespaceDbModelINtNtCslG0KbgAlmnM_6diesel11deserialize9QueryableTNtNtB1j_9sql_types4TextNtNtNtNtB1j_2pg5types9sql_types11TimestamptzENtNtB2v_7backend2PgE5buildB8_
FNDA:4,_RNvXs_NvNtNtCsaS3fY9lrCeZ_7nanocld6models9namespaces0_1__RNtB6_16NamespaceDbModelNtNtCslG0KbgAlmnM_6diesel12associations12Identifiable2id
FNDA:1,_RNvXNtNtCsaS3fY9lrCeZ_7nanocld6models9namespaceNtB2_16NamespaceDbModelNtNtCshYNBHIop811_4core3fmt5Debug3fmt
FNF:7
FNH:5
DA:7,25
BRF:0
BRH:0
LF:7
LH:5
end_of_record
SF:/home/leone/Documents/next-hat/nanocl/bin/nanocld/src/models/node.rs
FN:7,_RNvXs_NtNtCsaS3fY9lrCeZ_7nanocld6models4nodeNtB4_11NodeDbModelNtNtCshYNBHIop811_4core3fmt5Debug3fmt
FN:7,_RNvXNvNtNtCsaS3fY9lrCeZ_7nanocld6models4nodes0_1__NtB4_11NodeDbModelINtNtCslG0KbgAlmnM_6diesel10insertable10InsertableNtNtNtB8_6schema5nodes5tableE6values
FN:7,_RINvXNvNtNtCsaS3fY9lrCeZ_7nanocld6models4nodes2_1__NtB5_11NodeDbModelNtNtCse3fRS504XmB_5serde2de11Deserialize11deserializepEB9_
FN:7,_RINvXNvXNvNtNtCsaS3fY9lrCeZ_7nanocld6models4nodes2_1__NtB8_11NodeDbModelNtNtCse3fRS504XmB_5serde2de11Deserialize11deserializeNtB3_14___FieldVisitorNtB1a_7Visitor9visit_u64pEBc_
FN:7,_RNvXs0_NvXNvNtNtCsaS3fY9lrCeZ_7nanocld6models4nodes2_1__NtBa_11NodeDbModelNtNtCse3fRS504XmB_5serde2de11Deserialize11deserializeNtB5_9___VisitorNtB1c_7Visitor9expecting
FN:7,_RINvXs0_NvXNvNtNtCsaS3fY9lrCeZ_7nanocld6models4nodes2_1__NtBb_11NodeDbModelNtNtCse3fRS504XmB_5serde2de11Deserialize11deserializeNtB6_9___VisitorNtB1d_7Visitor9visit_mappEBf_
FN:7,_RINvXNvXNvNtNtCsaS3fY9lrCeZ_7nanocld6models4nodes2_1__NtB8_11NodeDbModelNtNtCse3fRS504XmB_5serde2de11Deserialize11deserializeNtB3_14___FieldVisitorNtB1a_7Visitor11visit_bytespEBc_
FN:7,_RINvXs_NvXNvNtNtCsaS3fY9lrCeZ_7nanocld6models4nodes2_1__NtBa_11NodeDbModelNtNtCse3fRS504XmB_5serde2de11Deserialize11deserializeNtB5_7___FieldB1a_11deserializepEBe_
FN:7,_RNvXNvNtNtCsaS3fY9lrCeZ_7nanocld6models4nodes_1__NtB4_11NodeDbModelNtNtCslG0KbgAlmnM_6diesel12associations8HasTable5table
FN:7,_RNvXs0_NvNtNtCsaS3fY9lrCeZ_7nanocld6models4nodes_1__RRNtB7_11NodeDbModelNtNtCslG0KbgAlmnM_6diesel12associations12Identifiable2id
FN:7,_RNvXNvXNvNtNtCsaS3fY9lrCeZ_7nanocld6models4nodes2_1__NtB7_11NodeDbModelNtNtCse3fRS504XmB_5serde2de11Deserialize11deserializeNtB2_14___FieldVisitorNtB19_7Visitor9expecting
FN:7,_RINvXNvXNvNtNtCsaS3fY9lrCeZ_7nanocld6models4nodes2_1__NtB8_11NodeDbModelNtNtCse3fRS504XmB_5serde2de11Deserialize11deserializeNtB3_14___FieldVisitorNtB1a_7Visitor9visit_strpEBc_
FN:7,_RINvXs0_NvXNvNtNtCsaS3fY9lrCeZ_7nanocld6models4nodes2_1__NtBb_11NodeDbModelNtNtCse3fRS504XmB_5serde2de11Deserialize11deserializeNtB6_9___VisitorNtB1d_7Visitor9visit_seqpEBf_
FN:7,_RNvXs_NvNtNtCsaS3fY9lrCeZ_7nanocld6models4nodes_1__RNtB6_11NodeDbModelNtNtCslG0KbgAlmnM_6diesel12associations12Identifiable2id
FN:7,_RNvXs0_NtNtCsaS3fY9lrCeZ_7nanocld6models4nodeNtB5_11NodeDbModelNtNtCshYNBHIop811_4core5clone5Clone5cloneB9_
FN:7,_RINvXNvNtNtCsaS3fY9lrCeZ_7nanocld6models4nodes1_1__NtB5_11NodeDbModelNtNtCse3fRS504XmB_5serde3ser9Serialize9serializeQINtNtCs6g1kmU4N7Sa_10serde_json3ser10SerializerQINtNtCs7OvAONlnxZo_5alloc3vec3VechEEEB9_
FN:7,_RNvXNvNtNtCsaS3fY9lrCeZ_7nanocld6models4node1__NtB4_11NodeDbModelINtNtCslG0KbgAlmnM_6diesel11deserialize9QueryableTNtNtB16_9sql_types4TextB1P_ENtNtNtB16_2pg7backend2PgE5buildB8_
FN:7,_RNvXs_NvNtNtCsaS3fY9lrCeZ_7nanocld6models4nodes0_1__RNtB6_11NodeDbModelINtNtCslG0KbgAlmnM_6diesel10insertable10InsertableNtNtNtBa_6schema5nodes5tableE6values
FN:17,_RNvMNtNtCsaS3fY9lrCeZ_7nanocld6models4nodeNtB2_11NodeDbModel14to_http_client
FNDA:0,_RNvXs_NtNtCsaS3fY9lrCeZ_7nanocld6models4nodeNtB4_11NodeDbModelNtNtCshYNBHIop811_4core3fmt5Debug3fmt
FNDA:0,_RNvXNvNtNtCsaS3fY9lrCeZ_7nanocld6models4nodes0_1__NtB4_11NodeDbModelINtNtCslG0KbgAlmnM_6diesel10insertable10InsertableNtNtNtB8_6schema5nodes5tableE6values
FNDA:0,_RINvXNvNtNtCsaS3fY9lrCeZ_7nanocld6models4nodes2_1__NtB5_11NodeDbModelNtNtCse3fRS504XmB_5serde2de11Deserialize11deserializepEB9_
FNDA:0,_RINvXNvXNvNtNtCsaS3fY9lrCeZ_7nanocld6models4nodes2_1__NtB8_11NodeDbModelNtNtCse3fRS504XmB_5serde2de11Deserialize11deserializeNtB3_14___FieldVisitorNtB1a_7Visitor9visit_u64pEBc_
FNDA:0,_RNvXs0_NvXNvNtNtCsaS3fY9lrCeZ_7nanocld6models4nodes2_1__NtBa_11NodeDbModelNtNtCse3fRS504XmB_5serde2de11Deserialize11deserializeNtB5_9___VisitorNtB1c_7Visitor9expecting
FNDA:0,_RINvXs0_NvXNvNtNtCsaS3fY9lrCeZ_7nanocld6models4nodes2_1__NtBb_11NodeDbModelNtNtCse3fRS504XmB_5serde2de11Deserialize11deserializeNtB6_9___VisitorNtB1d_7Visitor9visit_mappEBf_
FNDA:0,_RINvXNvXNvNtNtCsaS3fY9lrCeZ_7nanocld6models4nodes2_1__NtB8_11NodeDbModelNtNtCse3fRS504XmB_5serde2de11Deserialize11deserializeNtB3_14___FieldVisitorNtB1a_7Visitor11visit_bytespEBc_
FNDA:0,_RINvXs_NvXNvNtNtCsaS3fY9lrCeZ_7nanocld6models4nodes2_1__NtBa_11NodeDbModelNtNtCse3fRS504XmB_5serde2de11Deserialize11deserializeNtB5_7___FieldB1a_11deserializepEBe_
FNDA:0,_RNvXNvNtNtCsaS3fY9lrCeZ_7nanocld6models4nodes_1__NtB4_11NodeDbModelNtNtCslG0KbgAlmnM_6diesel12associations8HasTable5table
FNDA:0,_RNvXs0_NvNtNtCsaS3fY9lrCeZ_7nanocld6models4nodes_1__RRNtB7_11NodeDbModelNtNtCslG0KbgAlmnM_6diesel12associations12Identifiable2id
FNDA:0,_RNvXNvXNvNtNtCsaS3fY9lrCeZ_7nanocld6models4nodes2_1__NtB7_11NodeDbModelNtNtCse3fRS504XmB_5serde2de11Deserialize11deserializeNtB2_14___FieldVisitorNtB19_7Visitor9expecting
FNDA:0,_RINvXNvXNvNtNtCsaS3fY9lrCeZ_7nanocld6models4nodes2_1__NtB8_11NodeDbModelNtNtCse3fRS504XmB_5serde2de11Deserialize11deserializeNtB3_14___FieldVisitorNtB1a_7Visitor9visit_strpEBc_
FNDA:0,_RINvXs0_NvXNvNtNtCsaS3fY9lrCeZ_7nanocld6models4nodes2_1__NtBb_11NodeDbModelNtNtCse3fRS504XmB_5serde2de11Deserialize11deserializeNtB6_9___VisitorNtB1d_7Visitor9visit_seqpEBf_
FNDA:0,_RNvXs_NvNtNtCsaS3fY9lrCeZ_7nanocld6models4nodes_1__RNtB6_11NodeDbModelNtNtCslG0KbgAlmnM_6diesel12associations12Identifiable2id
FNDA:0,_RNvXs0_NtNtCsaS3fY9lrCeZ_7nanocld6models4nodeNtB5_11NodeDbModelNtNtCshYNBHIop811_4core5clone5Clone5cloneB9_
FNDA:0,_RINvXNvNtNtCsaS3fY9lrCeZ_7nanocld6models4nodes1_1__NtB5_11NodeDbModelNtNtCse3fRS504XmB_5serde3ser9Serialize9serializeQINtNtCs6g1kmU4N7Sa_10serde_json3ser10SerializerQINtNtCs7OvAONlnxZo_5alloc3vec3VechEEEB9_
FNDA:27,_RNvXNvNtNtCsaS3fY9lrCeZ_7nanocld6models4node1__NtB4_11NodeDbModelINtNtCslG0KbgAlmnM_6diesel11deserialize9QueryableTNtNtB16_9sql_types4TextB1P_ENtNtNtB16_2pg7backend2PgE5buildB8_
FNDA:0,_RNvXs_NvNtNtCsaS3fY9lrCeZ_7nanocld6models4nodes0_1__RNtB6_11NodeDbModelINtNtCslG0KbgAlmnM_6diesel10insertable10InsertableNtNtNtBa_6schema5nodes5tableE6values
FNDA:20,_RNvMNtNtCsaS3fY9lrCeZ_7nanocld6models4nodeNtB2_11NodeDbModel14to_http_client
FNF:8
FNH:2
DA:7,27
DA:17,20
DA:18,20
DA:19,20
DA:20,20
DA:21,20
DA:22,20
BRF:0
BRH:0
LF:13
LH:7
end_of_record
SF:/home/leone/Documents/next-hat/nanocl/bin/nanocld/src/models/resource.rs
FN:26,_RINvXNvXNvNtNtCsaS3fY9lrCeZ_7nanocld6models8resources5_1__NtB8_17ResourceResetPathNtNtCse3fRS504XmB_5serde2de11Deserialize11deserializeNtB3_14___FieldVisitorNtB1k_7Visitor11visit_bytespEBc_
FN:8,_RNvXNvNtNtCsaS3fY9lrCeZ_7nanocld6models8resources_1__NtB4_15ResourceDbModelNtNtCslG0KbgAlmnM_6diesel12associations8HasTable5table
FN:8,_RNvXNvNtNtCsaS3fY9lrCeZ_7nanocld6models8resources0_1__NtB4_15ResourceDbModelINtNtCslG0KbgAlmnM_6diesel10insertable10InsertableNtNtNtB8_6schema9resources5tableE6values
FN:26,_RNvXs0_NvXNvNtNtCsaS3fY9lrCeZ_7nanocld6models8resources5_1__NtBa_17ResourceResetPathNtNtCse3fRS504XmB_5serde2de11Deserialize11deserializeNtB5_9___VisitorNtB1m_7Visitor9expecting
FN:8,_RNvXs0_NvXNvNtNtCsaS3fY9lrCeZ_7nanocld6models8resources2_1__NtBa_15ResourceDbModelNtNtCse3fRS504XmB_5serde2de11Deserialize11deserializeNtB5_9___VisitorNtB1k_7Visitor9expecting
FN:8,_RINvXNvXNvNtNtCsaS3fY9lrCeZ_7nanocld6models8resources2_1__NtB8_15ResourceDbModelNtNtCse3fRS504XmB_5serde2de11Deserialize11deserializeNtB3_14___FieldVisitorNtB1i_7Visitor9visit_strpEBc_
FN:19,_RNCNvXNvNtNtCsaS3fY9lrCeZ_7nanocld6models8resources3_1__NtB6_19ResourceUpdateModelNtNtNtNtCslG0KbgAlmnM_6diesel13query_builder16update_statement9changeset11AsChangeset12as_changeset0Ba_
FN:19,_RNCNvXNvNtNtCsaS3fY9lrCeZ_7nanocld6models8resources3_1__NtB6_19ResourceUpdateModelNtNtNtNtCslG0KbgAlmnM_6diesel13query_builder16update_statement9changeset11AsChangeset12as_changesets_0Ba_
FN:8,_RINvXNvNtNtCsaS3fY9lrCeZ_7nanocld6models8resources1_1__NtB5_15ResourceDbModelNtNtCse3fRS504XmB_5serde3ser9Serialize9serializepEB9_
FN:8,_RNvXs0_NvNtNtCsaS3fY9lrCeZ_7nanocld6models8resources_1__RRNtB7_15ResourceDbModelNtNtCslG0KbgAlmnM_6diesel12associations12Identifiable2id
FN:26,_RINvXNvNtNtCsaS3fY9lrCeZ_7nanocld6models8resources4_1__NtB5_17ResourceResetPathNtNtCse3fRS504XmB_5serde3ser9Serialize9serializepEB9_
FN:8,_RINvXs0_NvXNvNtNtCsaS3fY9lrCeZ_7nanocld6models8resources2_1__NtBb_15ResourceDbModelNtNtCse3fRS504XmB_5serde2de11Deserialize11deserializeNtB6_9___VisitorNtB1l_7Visitor9visit_seqpEBf_
FN:26,_RINvXNvXNvNtNtCsaS3fY9lrCeZ_7nanocld6models8resources5_1__NtB8_17ResourceResetPathNtNtCse3fRS504XmB_5serde2de11Deserialize11deserializeNtB3_14___FieldVisitorNtB1k_7Visitor9visit_u64pEBc_
FN:8,_RINvXs0_NvXNvNtNtCsaS3fY9lrCeZ_7nanocld6models8resources2_1__NtBb_15ResourceDbModelNtNtCse3fRS504XmB_5serde2de11Deserialize11deserializeNtB6_9___VisitorNtB1l_7Visitor9visit_mappEBf_
FN:26,_RINvXs0_NvXNvNtNtCsaS3fY9lrCeZ_7nanocld6models8resources5_1__NtBb_17ResourceResetPathNtNtCse3fRS504XmB_5serde2de11Deserialize11deserializeNtB6_9___VisitorNtB1n_7Visitor9visit_seqpEBf_
FN:19,_RNvXNvNtNtCsaS3fY9lrCeZ_7nanocld6models8resources3_1__NtB4_19ResourceUpdateModelNtNtNtNtCslG0KbgAlmnM_6diesel13query_builder16update_statement9changeset11AsChangeset12as_changeset
FN:26,_RNvXs_NtNtCsaS3fY9lrCeZ_7nanocld6models8resourceNtB4_17ResourceResetPathNtNtCshYNBHIop811_4core3fmt5Debug3fmt
FN:8,_RINvXs_NvXNvNtNtCsaS3fY9lrCeZ_7nanocld6models8resources2_1__NtBa_15ResourceDbModelNtNtCse3fRS504XmB_5serde2de11Deserialize11deserializeNtB5_7___FieldB1i_11deserializepEBe_
FN:8,_RINvXNvNtNtCsaS3fY9lrCeZ_7nanocld6models8resources2_1__NtB5_15ResourceDbModelNtNtCse3fRS504XmB_5serde2de11Deserialize11deserializepEB9_
FN:8,_RINvXNvXNvNtNtCsaS3fY9lrCeZ_7nanocld6models8resources2_1__NtB8_15ResourceDbModelNtNtCse3fRS504XmB_5serde2de11Deserialize11deserializeNtB3_14___FieldVisitorNtB1i_7Visitor9visit_u64pEBc_
FN:8,_RNvXNtNtCsaS3fY9lrCeZ_7nanocld6models8resourceNtB2_15ResourceDbModelNtNtCshYNBHIop811_4core3fmt5Debug3fmt
FN:8,_RNvXNvXNvNtNtCsaS3fY9lrCeZ_7nanocld6models8resources2_1__NtB7_15ResourceDbModelNtNtCse3fRS504XmB_5serde2de11Deserialize11deserializeNtB2_14___FieldVisitorNtB1h_7Visitor9expecting
FN:26,_RNvXNvXNvNtNtCsaS3fY9lrCeZ_7nanocld6models8resources5_1__NtB7_17ResourceResetPathNtNtCse3fRS504XmB_5serde2de11Deserialize11deserializeNtB2_14___FieldVisitorNtB1j_7Visitor9expecting
FN:8,_RINvXNvXNvNtNtCsaS3fY9lrCeZ_7nanocld6models8resources2_1__NtB8_15ResourceDbModelNtNtCse3fRS504XmB_5serde2de11Deserialize11deserializeNtB3_14___FieldVisitorNtB1i_7Visitor11visit_bytespEBc_
FN:8,_RNvXs_NvNtNtCsaS3fY9lrCeZ_7nanocld6models8resources_1__RNtB6_15ResourceDbModelNtNtCslG0KbgAlmnM_6diesel12associations12Identifiable2id
FN:8,_RNvXs_NvNtNtCsaS3fY9lrCeZ_7nanocld6models8resources0_1__RNtB6_15ResourceDbModelINtNtCslG0KbgAlmnM_6diesel10insertable10InsertableNtNtNtBa_6schema9resources5tableE6values
FN:26,_RINvXs0_NvXNvNtNtCsaS3fY9lrCeZ_7nanocld6models8resources5_1__NtBb_17ResourceResetPathNtNtCse3fRS504XmB_5serde2de11Deserialize11deserializeNtB6_9___VisitorNtB1n_7Visitor9visit_mapINtNtCsfs6ZA2wikTs_11ntex_router2de18ParamsDeserializerNtNtCshsjOMNcMiwy_4http3uri3UriEEBf_
FN:19,_RNCNvXs_NvNtNtCsaS3fY9lrCeZ_7nanocld6models8resources3_1__RNtB8_19ResourceUpdateModelNtNtNtNtCslG0KbgAlmnM_6diesel13query_builder16update_statement9changeset11AsChangeset12as_changesets_0Bc_
FN:26,_RINvXNvXNvNtNtCsaS3fY9lrCeZ_7nanocld6models8resources5_1__NtB8_17ResourceResetPathNtNtCse3fRS504XmB_5serde2de11Deserialize11deserializeNtB3_14___FieldVisitorNtB1k_7Visitor9visit_strNtNtB1k_5value5ErrorEBc_
FN:8,_RNvXNvNtNtCsaS3fY9lrCeZ_7nanocld6models8resource1__NtB4_15ResourceDbModelINtNtCslG0KbgAlmnM_6diesel11deserialize9QueryableTNtNtB1e_9sql_types4TextNtNtNtNtB1e_2pg5types9sql_types11TimestamptzB1X_NtB2m_4UuidENtNtB2q_7backend2PgE5buildB8_
FN:19,_RNvXs_NvNtNtCsaS3fY9lrCeZ_7nanocld6models8resources3_1__RNtB6_19ResourceUpdateModelNtNtNtNtCslG0KbgAlmnM_6diesel13query_builder16update_statement9changeset11AsChangeset12as_changeset
FN:26,_RINvXNvNtNtCsaS3fY9lrCeZ_7nanocld6models8resources5_1__NtB5_17ResourceResetPathNtNtCse3fRS504XmB_5serde2de11Deserialize11deserializeINtNtCsfs6ZA2wikTs_11ntex_router2de16PathDeserializerNtNtCshsjOMNcMiwy_4http3uri3UriEEB9_
FN:19,_RNCNvXs_NvNtNtCsaS3fY9lrCeZ_7nanocld6models8resources3_1__RNtB8_19ResourceUpdateModelNtNtNtNtCslG0KbgAlmnM_6diesel13query_builder16update_statement9changeset11AsChangeset12as_changeset0Bc_
FN:26,_RINvXs_NvXNvNtNtCsaS3fY9lrCeZ_7nanocld6models8resources5_1__NtBa_17ResourceResetPathNtNtCse3fRS504XmB_5serde2de11Deserialize11deserializeNtB5_7___FieldB1k_11deserializeNtNtCsfs6ZA2wikTs_11ntex_router2de3KeyEBe_
FNDA:0,_RINvXNvXNvNtNtCsaS3fY9lrCeZ_7nanocld6models8resources5_1__NtB8_17ResourceResetPathNtNtCse3fRS504XmB_5serde2de11Deserialize11deserializeNtB3_14___FieldVisitorNtB1k_7Visitor11visit_bytespEBc_
FNDA:0,_RNvXNvNtNtCsaS3fY9lrCeZ_7nanocld6models8resources_1__NtB4_15ResourceDbModelNtNtCslG0KbgAlmnM_6diesel12associations8HasTable5table
FNDA:0,_RNvXNvNtNtCsaS3fY9lrCeZ_7nanocld6models8resources0_1__NtB4_15ResourceDbModelINtNtCslG0KbgAlmnM_6diesel10insertable10InsertableNtNtNtB8_6schema9resources5tableE6values
FNDA:0,_RNvXs0_NvXNvNtNtCsaS3fY9lrCeZ_7nanocld6models8resources5_1__NtBa_17ResourceResetPathNtNtCse3fRS504XmB_5serde2de11Deserialize11deserializeNtB5_9___VisitorNtB1m_7Visitor9expecting
FNDA:0,_RNvXs0_NvXNvNtNtCsaS3fY9lrCeZ_7nanocld6models8resources2_1__NtBa_15ResourceDbModelNtNtCse3fRS504XmB_5serde2de11Deserialize11deserializeNtB5_9___VisitorNtB1k_7Visitor9expecting
FNDA:0,_RINvXNvXNvNtNtCsaS3fY9lrCeZ_7nanocld6models8resources2_1__NtB8_15ResourceDbModelNtNtCse3fRS504XmB_5serde2de11Deserialize11deserializeNtB3_14___FieldVisitorNtB1i_7Visitor9visit_strpEBc_
FNDA:0,_RNCNvXNvNtNtCsaS3fY9lrCeZ_7nanocld6models8resources3_1__NtB6_19ResourceUpdateModelNtNtNtNtCslG0KbgAlmnM_6diesel13query_builder16update_statement9changeset11AsChangeset12as_changeset0Ba_
FNDA:0,_RNCNvXNvNtNtCsaS3fY9lrCeZ_7nanocld6models8resources3_1__NtB6_19ResourceUpdateModelNtNtNtNtCslG0KbgAlmnM_6diesel13query_builder16update_statement9changeset11AsChangeset12as_changesets_0Ba_
FNDA:0,_RINvXNvNtNtCsaS3fY9lrCeZ_7nanocld6models8resources1_1__NtB5_15ResourceDbModelNtNtCse3fRS504XmB_5serde3ser9Serialize9serializepEB9_
FNDA:0,_RNvXs0_NvNtNtCsaS3fY9lrCeZ_7nanocld6models8resources_1__RRNtB7_15ResourceDbModelNtNtCslG0KbgAlmnM_6diesel12associations12Identifiable2id
FNDA:0,_RINvXNvNtNtCsaS3fY9lrCeZ_7nanocld6models8resources4_1__NtB5_17ResourceResetPathNtNtCse3fRS504XmB_5serde3ser9Serialize9serializepEB9_
FNDA:0,_RINvXs0_NvXNvNtNtCsaS3fY9lrCeZ_7nanocld6models8resources2_1__NtBb_15ResourceDbModelNtNtCse3fRS504XmB_5serde2de11Deserialize11deserializeNtB6_9___VisitorNtB1l_7Visitor9visit_seqpEBf_
FNDA:0,_RINvXNvXNvNtNtCsaS3fY9lrCeZ_7nanocld6models8resources5_1__NtB8_17ResourceResetPathNtNtCse3fRS504XmB_5serde2de11Deserialize11deserializeNtB3_14___FieldVisitorNtB1k_7Visitor9visit_u64pEBc_
FNDA:0,_RINvXs0_NvXNvNtNtCsaS3fY9lrCeZ_7nanocld6models8resources2_1__NtBb_15ResourceDbModelNtNtCse3fRS504XmB_5serde2de11Deserialize11deserializeNtB6_9___VisitorNtB1l_7Visitor9visit_mappEBf_
FNDA:0,_RINvXs0_NvXNvNtNtCsaS3fY9lrCeZ_7nanocld6models8resources5_1__NtBb_17ResourceResetPathNtNtCse3fRS504XmB_5serde2de11Deserialize11deserializeNtB6_9___VisitorNtB1n_7Visitor9visit_seqpEBf_
FNDA:0,_RNvXNvNtNtCsaS3fY9lrCeZ_7nanocld6models8resources3_1__NtB4_19ResourceUpdateModelNtNtNtNtCslG0KbgAlmnM_6diesel13query_builder16update_statement9changeset11AsChangeset12as_changeset
FNDA:0,_RNvXs_NtNtCsaS3fY9lrCeZ_7nanocld6models8resourceNtB4_17ResourceResetPathNtNtCshYNBHIop811_4core3fmt5Debug3fmt
FNDA:0,_RINvXs_NvXNvNtNtCsaS3fY9lrCeZ_7nanocld6models8resources2_1__NtBa_15ResourceDbModelNtNtCse3fRS504XmB_5serde2de11Deserialize11deserializeNtB5_7___FieldB1i_11deserializepEBe_
FNDA:0,_RINvXNvNtNtCsaS3fY9lrCeZ_7nanocld6models8resources2_1__NtB5_15ResourceDbModelNtNtCse3fRS504XmB_5serde2de11Deserialize11deserializepEB9_
FNDA:0,_RINvXNvXNvNtNtCsaS3fY9lrCeZ_7nanocld6models8resources2_1__NtB8_15ResourceDbModelNtNtCse3fRS504XmB_5serde2de11Deserialize11deserializeNtB3_14___FieldVisitorNtB1i_7Visitor9visit_u64pEBc_
FNDA:0,_RNvXNtNtCsaS3fY9lrCeZ_7nanocld6models8resourceNtB2_15ResourceDbModelNtNtCshYNBHIop811_4core3fmt5Debug3fmt
FNDA:0,_RNvXNvXNvNtNtCsaS3fY9lrCeZ_7nanocld6models8resources2_1__NtB7_15ResourceDbModelNtNtCse3fRS504XmB_5serde2de11Deserialize11deserializeNtB2_14___FieldVisitorNtB1h_7Visitor9expecting
FNDA:0,_RNvXNvXNvNtNtCsaS3fY9lrCeZ_7nanocld6models8resources5_1__NtB7_17ResourceResetPathNtNtCse3fRS504XmB_5serde2de11Deserialize11deserializeNtB2_14___FieldVisitorNtB1j_7Visitor9expecting
FNDA:0,_RINvXNvXNvNtNtCsaS3fY9lrCeZ_7nanocld6models8resources2_1__NtB8_15ResourceDbModelNtNtCse3fRS504XmB_5serde2de11Deserialize11deserializeNtB3_14___FieldVisitorNtB1i_7Visitor11visit_bytespEBc_
FNDA:0,_RNvXs_NvNtNtCsaS3fY9lrCeZ_7nanocld6models8resources_1__RNtB6_15ResourceDbModelNtNtCslG0KbgAlmnM_6diesel12associations12Identifiable2id
FNDA:3,_RNvXs_NvNtNtCsaS3fY9lrCeZ_7nanocld6models8resources0_1__RNtB6_15ResourceDbModelINtNtCslG0KbgAlmnM_6diesel10insertable10InsertableNtNtNtBa_6schema9resources5tableE6values
FNDA:0,_RINvXs0_NvXNvNtNtCsaS3fY9lrCeZ_7nanocld6models8resources5_1__NtBb_17ResourceResetPathNtNtCse3fRS504XmB_5serde2de11Deserialize11deserializeNtB6_9___VisitorNtB1n_7Visitor9visit_mapINtNtCsfs6ZA2wikTs_11ntex_router2de18ParamsDeserializerNtNtCshsjOMNcMiwy_4http3uri3UriEEBf_
FNDA:2,_RNCNvXs_NvNtNtCsaS3fY9lrCeZ_7nanocld6models8resources3_1__RNtB8_19ResourceUpdateModelNtNtNtNtCslG0KbgAlmnM_6diesel13query_builder16update_statement9changeset11AsChangeset12as_changesets_0Bc_
FNDA:0,_RINvXNvXNvNtNtCsaS3fY9lrCeZ_7nanocld6models8resources5_1__NtB8_17ResourceResetPathNtNtCse3fRS504XmB_5serde2de11Deserialize11deserializeNtB3_14___FieldVisitorNtB1k_7Visitor9visit_strNtNtB1k_5value5ErrorEBc_
FNDA:12,_RNvXNvNtNtCsaS3fY9lrCeZ_7nanocld6models8resource1__NtB4_15ResourceDbModelINtNtCslG0KbgAlmnM_6diesel11deserialize9QueryableTNtNtB1e_9sql_types4TextNtNtNtNtB1e_2pg5types9sql_types11TimestamptzB1X_NtB2m_4UuidENtNtB2q_7backend2PgE5buildB8_
FNDA:2,_RNvXs_NvNtNtCsaS3fY9lrCeZ_7nanocld6models8resources3_1__RNtB6_19ResourceUpdateModelNtNtNtNtCslG0KbgAlmnM_6diesel13query_builder16update_statement9changeset11AsChangeset12as_changeset
FNDA:0,_RINvXNvNtNtCsaS3fY9lrCeZ_7nanocld6models8resources5_1__NtB5_17ResourceResetPathNtNtCse3fRS504XmB_5serde2de11Deserialize11deserializeINtNtCsfs6ZA2wikTs_11ntex_router2de16PathDeserializerNtNtCshsjOMNcMiwy_4http3uri3UriEEB9_
FNDA:0,_RNCNvXs_NvNtNtCsaS3fY9lrCeZ_7nanocld6models8resources3_1__RNtB8_19ResourceUpdateModelNtNtNtNtCslG0KbgAlmnM_6diesel13query_builder16update_statement9changeset11AsChangeset12as_changeset0Bc_
FNDA:0,_RINvXs_NvXNvNtNtCsaS3fY9lrCeZ_7nanocld6models8resources5_1__NtBa_17ResourceResetPathNtNtCse3fRS504XmB_5serde2de11Deserialize11deserializeNtB5_7___FieldB1k_11deserializeNtNtCsfs6ZA2wikTs_11ntex_router2de3KeyEBe_
FNF:10
FNH:3
DA:8,12
DA:19,2
DA:26,0
BRF:0
BRH:0
LF:10
LH:3
end_of_record
SF:/home/leone/Documents/next-hat/nanocl/bin/nanocld/src/models/resource_config.rs
FN:7,_RNvXs_NvNtNtCsaS3fY9lrCeZ_7nanocld6models15resource_configs_1__RNtB6_21ResourceConfigDbModelNtNtCslG0KbgAlmnM_6diesel12associations12Identifiable2id
FN:7,_RNvXNvNtNtCsaS3fY9lrCeZ_7nanocld6models15resource_configs_1__NtB4_21ResourceConfigDbModelNtNtCslG0KbgAlmnM_6diesel12associations8HasTable5table
FN:7,_RNvXNvNtNtCsaS3fY9lrCeZ_7nanocld6models15resource_configs0_1__NtB4_21ResourceConfigDbModelINtNtCslG0KbgAlmnM_6diesel10insertable10InsertableNtNtNtB8_6schema16resource_configs5tableE6values
FN:7,_RNvXs0_NvNtNtCsaS3fY9lrCeZ_7nanocld6models15resource_configs_1__RRNtB7_21ResourceConfigDbModelNtNtCslG0KbgAlmnM_6diesel12associations12Identifiable2id
FN:7,_RNvXININvNtNtCsaS3fY9lrCeZ_7nanocld6models15resource_configs1_1__s_0pENtB7_21ResourceConfigDbModelINtNtNtCslG0KbgAlmnM_6diesel12associations10belongs_to9BelongsToRNtNtB9_8resource15ResourceDbModelE11foreign_keyBb_
FN:7,_RNvXININvNtNtCsaS3fY9lrCeZ_7nanocld6models15resource_configs1_1__s_0pENtB7_21ResourceConfigDbModelINtNtNtCslG0KbgAlmnM_6diesel12associations10belongs_to9BelongsToRNtNtB9_8resource15ResourceDbModelE18foreign_key_columnBb_
FN:7,_RNvXININvNtNtCsaS3fY9lrCeZ_7nanocld6models15resource_configs1_1__0pENtB7_21ResourceConfigDbModelINtNtNtCslG0KbgAlmnM_6diesel12associations10belongs_to9BelongsToNtNtB9_8resource15ResourceDbModelE11foreign_keyBb_
FN:7,_RNvXININvNtNtCsaS3fY9lrCeZ_7nanocld6models15resource_configs1_1__0pENtB7_21ResourceConfigDbModelINtNtNtCslG0KbgAlmnM_6diesel12associations10belongs_to9BelongsToNtNtB9_8resource15ResourceDbModelE18foreign_key_columnBb_
FN:7,_RNvXs_NvNtNtCsaS3fY9lrCeZ_7nanocld6models15resource_configs0_1__RNtB6_21ResourceConfigDbModelINtNtCslG0KbgAlmnM_6diesel10insertable10InsertableNtNtNtBa_6schema16resource_configs5tableE6values
FN:7,_RNvXs_NtNtCsaS3fY9lrCeZ_7nanocld6models15resource_configNtB4_21ResourceConfigDbModelNtNtCshYNBHIop811_4core5clone5Clone5cloneB8_
FN:7,_RNvXNvNtNtCsaS3fY9lrCeZ_7nanocld6models15resource_config1__NtB4_21ResourceConfigDbModelINtNtCslG0KbgAlmnM_6diesel11deserialize9QueryableTNtNtNtNtB1s_2pg5types9sql_types4UuidNtB2d_11TimestamptzNtNtB1s_9sql_types4TextB34_NtB2d_5JsonbENtNtB2h_7backend2PgE5buildB8_
FN:20,_RNvXNtNtCsaS3fY9lrCeZ_7nanocld6models15resource_configNtNtCsfutTBaew1Qf_12nanocl_stubs8resource14ResourceConfigINtNtCshYNBHIop811_4core7convert4FromNtB2_21ResourceConfigDbModelE4from
FNDA:0,_RNvXs_NvNtNtCsaS3fY9lrCeZ_7nanocld6models15resource_configs_1__RNtB6_21ResourceConfigDbModelNtNtCslG0KbgAlmnM_6diesel12associations12Identifiable2id
FNDA:0,_RNvXNvNtNtCsaS3fY9lrCeZ_7nanocld6models15resource_configs_1__NtB4_21ResourceConfigDbModelNtNtCslG0KbgAlmnM_6diesel12associations8HasTable5table
FNDA:0,_RNvXNvNtNtCsaS3fY9lrCeZ_7nanocld6models15resource_configs0_1__NtB4_21ResourceConfigDbModelINtNtCslG0KbgAlmnM_6diesel10insertable10InsertableNtNtNtB8_6schema16resource_configs5tableE6values
FNDA:0,_RNvXs0_NvNtNtCsaS3fY9lrCeZ_7nanocld6models15resource_configs_1__RRNtB7_21ResourceConfigDbModelNtNtCslG0KbgAlmnM_6diesel12associations12Identifiable2id
FNDA:0,_RNvXININvNtNtCsaS3fY9lrCeZ_7nanocld6models15resource_configs1_1__s_0pENtB7_21ResourceConfigDbModelINtNtNtCslG0KbgAlmnM_6diesel12associations10belongs_to9BelongsToRNtNtB9_8resource15ResourceDbModelE11foreign_keyBb_
FNDA:0,_RNvXININvNtNtCsaS3fY9lrCeZ_7nanocld6models15resource_configs1_1__s_0pENtB7_21ResourceConfigDbModelINtNtNtCslG0KbgAlmnM_6diesel12associations10belongs_to9BelongsToRNtNtB9_8resource15ResourceDbModelE18foreign_key_columnBb_
FNDA:0,_RNvXININvNtNtCsaS3fY9lrCeZ_7nanocld6models15resource_configs1_1__0pENtB7_21ResourceConfigDbModelINtNtNtCslG0KbgAlmnM_6diesel12associations10belongs_to9BelongsToNtNtB9_8resource15ResourceDbModelE11foreign_keyBb_
FNDA:0,_RNvXININvNtNtCsaS3fY9lrCeZ_7nanocld6models15resource_configs1_1__0pENtB7_21ResourceConfigDbModelINtNtNtCslG0KbgAlmnM_6diesel12associations10belongs_to9BelongsToNtNtB9_8resource15ResourceDbModelE18foreign_key_columnBb_
FNDA:5,_RNvXs_NvNtNtCsaS3fY9lrCeZ_7nanocld6models15resource_configs0_1__RNtB6_21ResourceConfigDbModelINtNtCslG0KbgAlmnM_6diesel10insertable10InsertableNtNtNtBa_6schema16resource_configs5tableE6values
FNDA:5,_RNvXs_NtNtCsaS3fY9lrCeZ_7nanocld6models15resource_configNtB4_21ResourceConfigDbModelNtNtCshYNBHIop811_4core5clone5Clone5cloneB8_
FNDA:13,_RNvXNvNtNtCsaS3fY9lrCeZ_7nanocld6models15resource_config1__NtB4_21ResourceConfigDbModelINtNtCslG0KbgAlmnM_6diesel11deserialize9QueryableTNtNtNtNtB1s_2pg5types9sql_types4UuidNtB2d_11TimestamptzNtNtB1s_9sql_types4TextB34_NtB2d_5JsonbENtNtB2h_7backend2PgE5buildB8_
FNDA:1,_RNvXNtNtCsaS3fY9lrCeZ_7nanocld6models15resource_configNtNtCsfutTBaew1Qf_12nanocl_stubs8resource14ResourceConfigINtNtCshYNBHIop811_4core7convert4FromNtB2_21ResourceConfigDbModelE4from
FNF:6
FNH:4
DA:7,13
DA:20,1
DA:21,1
DA:22,1
DA:23,1
DA:24,1
DA:25,1
DA:26,1
DA:27,1
BRF:0
BRH:0
LF:13
LH:11
end_of_record
SF:/home/leone/Documents/next-hat/nanocl/bin/nanocld/src/models/resource_kind.rs
FN:5,_RNvXs_NtNtCsaS3fY9lrCeZ_7nanocld6models13resource_kindNtB4_19ResourceKindPartialNtNtCshYNBHIop811_4core3fmt5Debug3fmt
FN:12,_RNvXs1_NtNtCsaS3fY9lrCeZ_7nanocld6models13resource_kindNtB5_26ResourceKindVersionDbModelNtNtCshYNBHIop811_4core3fmt5Debug3fmt
FN:5,_RNvXNtNtCsaS3fY9lrCeZ_7nanocld6models13resource_kindNtB2_19ResourceKindPartialNtNtCshYNBHIop811_4core5clone5Clone5cloneB6_
FN:12,_RNvXs0_NtNtCsaS3fY9lrCeZ_7nanocld6models13resource_kindNtB5_26ResourceKindVersionDbModelNtNtCshYNBHIop811_4core5clone5Clone5cloneB9_
FN:12,_RNvXs0_NvNtNtCsaS3fY9lrCeZ_7nanocld6models13resource_kinds_1__RRNtB7_26ResourceKindVersionDbModelNtNtCslG0KbgAlmnM_6diesel12associations12Identifiable2id
FN:22,_RNvXs2_NtNtCsaS3fY9lrCeZ_7nanocld6models13resource_kindNtB5_19ResourceKindDbModelNtNtCshYNBHIop811_4core5clone5Clone5cloneB9_
FN:12,_RNvXs_NvNtNtCsaS3fY9lrCeZ_7nanocld6models13resource_kinds_1__RNtB6_26ResourceKindVersionDbModelNtNtCslG0KbgAlmnM_6diesel12associations12Identifiable2id
FN:22,_RNvXNvNtNtCsaS3fY9lrCeZ_7nanocld6models13resource_kinds2_1__NtB4_19ResourceKindDbModelNtNtCslG0KbgAlmnM_6diesel12associations8HasTable5table
FN:22,_RNvXs_NvNtNtCsaS3fY9lrCeZ_7nanocld6models13resource_kinds2_1__RNtB6_19ResourceKindDbModelNtNtCslG0KbgAlmnM_6diesel12associations12Identifiable2id
FN:22,_RNvXs3_NtNtCsaS3fY9lrCeZ_7nanocld6models13resource_kindNtB5_19ResourceKindDbModelNtNtCshYNBHIop811_4core3fmt5Debug3fmt
FN:22,_RNvXNvNtNtCsaS3fY9lrCeZ_7nanocld6models13resource_kinds3_1__NtB4_19ResourceKindDbModelINtNtCslG0KbgAlmnM_6diesel10insertable10InsertableNtNtNtB8_6schema14resource_kinds5tableE6values
FN:22,_RNvXs0_NvNtNtCsaS3fY9lrCeZ_7nanocld6models13resource_kinds2_1__RRNtB7_19ResourceKindDbModelNtNtCslG0KbgAlmnM_6diesel12associations12Identifiable2id
FN:12,_RNvXNvNtNtCsaS3fY9lrCeZ_7nanocld6models13resource_kinds_1__NtB4_26ResourceKindVersionDbModelNtNtCslG0KbgAlmnM_6diesel12associations8HasTable5table
FN:12,_RNvXNvNtNtCsaS3fY9lrCeZ_7nanocld6models13resource_kinds0_1__NtB4_26ResourceKindVersionDbModelINtNtCslG0KbgAlmnM_6diesel10insertable10InsertableNtNtNtB8_6schema22resource_kind_versions5tableE6values
FN:12,_RNvXNvNtNtCsaS3fY9lrCeZ_7nanocld6models13resource_kind1__NtB4_26ResourceKindVersionDbModelINtNtCslG0KbgAlmnM_6diesel11deserialize9QueryableTNtNtB1v_9sql_types4TextNtNtNtNtB1v_2pg5types9sql_types11TimestamptzB2e_NtB2D_5JsonbENtNtB2H_7backend2PgE5buildB8_
FN:12,_RNvXs_NvNtNtCsaS3fY9lrCeZ_7nanocld6models13resource_kinds0_1__RNtB6_26ResourceKindVersionDbModelINtNtCslG0KbgAlmnM_6diesel10insertable10InsertableNtNtNtBa_6schema22resource_kind_versions5tableE6values
FN:22,_RNvXs_NvNtNtCsaS3fY9lrCeZ_7nanocld6models13resource_kinds3_1__RNtB6_19ResourceKindDbModelINtNtCslG0KbgAlmnM_6diesel10insertable10InsertableNtNtNtBa_6schema14resource_kinds5tableE6values
FN:22,_RNvXNvNtNtCsaS3fY9lrCeZ_7nanocld6models13resource_kinds1_1__NtB4_19ResourceKindDbModelINtNtCslG0KbgAlmnM_6diesel11deserialize9QueryableTNtNtB1r_9sql_types4TextNtNtNtNtB1r_2pg5types9sql_types11TimestamptzENtNtB2D_7backend2PgE5buildB8_
FNDA:0,_RNvXs_NtNtCsaS3fY9lrCeZ_7nanocld6models13resource_kindNtB4_19ResourceKindPartialNtNtCshYNBHIop811_4core3fmt5Debug3fmt
FNDA:0,_RNvXs1_NtNtCsaS3fY9lrCeZ_7nanocld6models13resource_kindNtB5_26ResourceKindVersionDbModelNtNtCshYNBHIop811_4core3fmt5Debug3fmt
FNDA:0,_RNvXNtNtCsaS3fY9lrCeZ_7nanocld6models13resource_kindNtB2_19ResourceKindPartialNtNtCshYNBHIop811_4core5clone5Clone5cloneB6_
FNDA:0,_RNvXs0_NtNtCsaS3fY9lrCeZ_7nanocld6models13resource_kindNtB5_26ResourceKindVersionDbModelNtNtCshYNBHIop811_4core5clone5Clone5cloneB9_
FNDA:0,_RNvXs0_NvNtNtCsaS3fY9lrCeZ_7nanocld6models13resource_kinds_1__RRNtB7_26ResourceKindVersionDbModelNtNtCslG0KbgAlmnM_6diesel12associations12Identifiable2id
FNDA:0,_RNvXs2_NtNtCsaS3fY9lrCeZ_7nanocld6models13resource_kindNtB5_19ResourceKindDbModelNtNtCshYNBHIop811_4core5clone5Clone5cloneB9_
FNDA:0,_RNvXs_NvNtNtCsaS3fY9lrCeZ_7nanocld6models13resource_kinds_1__RNtB6_26ResourceKindVersionDbModelNtNtCslG0KbgAlmnM_6diesel12associations12Identifiable2id
FNDA:0,_RNvXNvNtNtCsaS3fY9lrCeZ_7nanocld6models13resource_kinds2_1__NtB4_19ResourceKindDbModelNtNtCslG0KbgAlmnM_6diesel12associations8HasTable5table
FNDA:0,_RNvXs_NvNtNtCsaS3fY9lrCeZ_7nanocld6models13resource_kinds2_1__RNtB6_19ResourceKindDbModelNtNtCslG0KbgAlmnM_6diesel12associations12Identifiable2id
FNDA:0,_RNvXs3_NtNtCsaS3fY9lrCeZ_7nanocld6models13resource_kindNtB5_19ResourceKindDbModelNtNtCshYNBHIop811_4core3fmt5Debug3fmt
FNDA:0,_RNvXNvNtNtCsaS3fY9lrCeZ_7nanocld6models13resource_kinds3_1__NtB4_19ResourceKindDbModelINtNtCslG0KbgAlmnM_6diesel10insertable10InsertableNtNtNtB8_6schema14resource_kinds5tableE6values
FNDA:0,_RNvXs0_NvNtNtCsaS3fY9lrCeZ_7nanocld6models13resource_kinds2_1__RRNtB7_19ResourceKindDbModelNtNtCslG0KbgAlmnM_6diesel12associations12Identifiable2id
FNDA:0,_RNvXNvNtNtCsaS3fY9lrCeZ_7nanocld6models13resource_kinds_1__NtB4_26ResourceKindVersionDbModelNtNtCslG0KbgAlmnM_6diesel12associations8HasTable5table
FNDA:0,_RNvXNvNtNtCsaS3fY9lrCeZ_7nanocld6models13resource_kinds0_1__NtB4_26ResourceKindVersionDbModelINtNtCslG0KbgAlmnM_6diesel10insertable10InsertableNtNtNtB8_6schema22resource_kind_versions5tableE6values
FNDA:0,_RNvXNvNtNtCsaS3fY9lrCeZ_7nanocld6models13resource_kind1__NtB4_26ResourceKindVersionDbModelINtNtCslG0KbgAlmnM_6diesel11deserialize9QueryableTNtNtB1v_9sql_types4TextNtNtNtNtB1v_2pg5types9sql_types11TimestamptzB2e_NtB2D_5JsonbENtNtB2H_7backend2PgE5buildB8_
FNDA:2,_RNvXs_NvNtNtCsaS3fY9lrCeZ_7nanocld6models13resource_kinds0_1__RNtB6_26ResourceKindVersionDbModelINtNtCslG0KbgAlmnM_6diesel10insertable10InsertableNtNtNtBa_6schema22resource_kind_versions5tableE6values
FNDA:1,_RNvXs_NvNtNtCsaS3fY9lrCeZ_7nanocld6models13resource_kinds3_1__RNtB6_19ResourceKindDbModelINtNtCslG0KbgAlmnM_6diesel10insertable10InsertableNtNtNtBa_6schema14resource_kinds5tableE6values
FNDA:1,_RNvXNvNtNtCsaS3fY9lrCeZ_7nanocld6models13resource_kinds1_1__NtB4_19ResourceKindDbModelINtNtCslG0KbgAlmnM_6diesel11deserialize9QueryableTNtNtB1r_9sql_types4TextNtNtNtNtB1r_2pg5types9sql_types11TimestamptzENtNtB2D_7backend2PgE5buildB8_
FNF:12
FNH:3
DA:5,0
DA:12,2
DA:22,1
BRF:0
BRH:0
LF:12
LH:3
end_of_record
SF:/home/leone/Documents/next-hat/nanocl/bin/nanocld/src/models/state.rs
FN:25,_RNvXs_NtNtCsaS3fY9lrCeZ_7nanocld6models5stateNtB4_9StateDataNtNtCshYNBHIop811_4core3fmt5Debug3fmt
FN:10,_RNvXNtNtCsaS3fY9lrCeZ_7nanocld6models5stateNtB2_11DaemonStateNtNtCshYNBHIop811_4core5clone5Clone5cloneB6_
FNDA:0,_RNvXs_NtNtCsaS3fY9lrCeZ_7nanocld6models5stateNtB4_9StateDataNtNtCshYNBHIop811_4core3fmt5Debug3fmt
FNDA:141,_RNvXNtNtCsaS3fY9lrCeZ_7nanocld6models5stateNtB2_11DaemonStateNtNtCshYNBHIop811_4core5clone5Clone5cloneB6_
FNF:2
FNH:1
DA:10,141
DA:25,0
BRF:0
BRH:0
LF:2
LH:1
end_of_record
SF:/home/leone/Documents/next-hat/nanocl/bin/nanocld/src/models/vm.rs
FN:19,_RNCNvXNvNtNtCsaS3fY9lrCeZ_7nanocld6models2vms2_1__NtB6_15VmUpdateDbModelNtNtNtNtCslG0KbgAlmnM_6diesel13query_builder16update_statement9changeset11AsChangeset12as_changesets_0Ba_
FN:6,_RNvXs_NtNtCsaS3fY9lrCeZ_7nanocld6models2vmNtB4_9VmDbModelNtNtCshYNBHIop811_4core3fmt5Debug3fmt
FN:6,_RNvXININvNtNtCsaS3fY9lrCeZ_7nanocld6models2vms1_1__0pENtB7_9VmDbModelINtNtNtCslG0KbgAlmnM_6diesel12associations10belongs_to9BelongsToNtNtB9_9namespace16NamespaceDbModelE11foreign_keyBb_
FN:19,_RNvXs0_NtNtCsaS3fY9lrCeZ_7nanocld6models2vmNtB5_15VmUpdateDbModelNtNtCshYNBHIop811_4core3fmt5Debug3fmt
FN:6,_RNvXs_NvNtNtCsaS3fY9lrCeZ_7nanocld6models2vms_1__RNtB6_9VmDbModelNtNtCslG0KbgAlmnM_6diesel12associations12Identifiable2id
FN:19,_RNCNvXNvNtNtCsaS3fY9lrCeZ_7nanocld6models2vms2_1__NtB6_15VmUpdateDbModelNtNtNtNtCslG0KbgAlmnM_6diesel13query_builder16update_statement9changeset11AsChangeset12as_changeset0Ba_
FN:6,_RNvXs0_NvNtNtCsaS3fY9lrCeZ_7nanocld6models2vms_1__RRNtB7_9VmDbModelNtNtCslG0KbgAlmnM_6diesel12associations12Identifiable2id
FN:6,_RNvXNvNtNtCsaS3fY9lrCeZ_7nanocld6models2vms0_1__NtB4_9VmDbModelINtNtCslG0KbgAlmnM_6diesel10insertable10InsertableNtNtNtB8_6schema3vms5tableE6values
FN:6,_RNvXNtNtCsaS3fY9lrCeZ_7nanocld6models2vmNtB2_9VmDbModelNtNtCshYNBHIop811_4core5clone5Clone5cloneB6_
FN:6,_RNvXININvNtNtCsaS3fY9lrCeZ_7nanocld6models2vms1_1__s_0pENtB7_9VmDbModelINtNtNtCslG0KbgAlmnM_6diesel12associations10belongs_to9BelongsToRNtNtB9_9namespace16NamespaceDbModelE11foreign_keyBb_
FN:6,_RNvXININvNtNtCsaS3fY9lrCeZ_7nanocld6models2vms1_1__s_0pENtB7_9VmDbModelINtNtNtCslG0KbgAlmnM_6diesel12associations10belongs_to9BelongsToRNtNtB9_9namespace16NamespaceDbModelE18foreign_key_columnBb_
FN:19,_RNCNvXNvNtNtCsaS3fY9lrCeZ_7nanocld6models2vms2_1__NtB6_15VmUpdateDbModelNtNtNtNtCslG0KbgAlmnM_6diesel13query_builder16update_statement9changeset11AsChangeset12as_changesets1_0Ba_
FN:19,_RNCNvXNvNtNtCsaS3fY9lrCeZ_7nanocld6models2vms2_1__NtB6_15VmUpdateDbModelNtNtNtNtCslG0KbgAlmnM_6diesel13query_builder16update_statement9changeset11AsChangeset12as_changesets0_0Ba_
FN:19,_RNvXNvNtNtCsaS3fY9lrCeZ_7nanocld6models2vms2_1__NtB4_15VmUpdateDbModelNtNtNtNtCslG0KbgAlmnM_6diesel13query_builder16update_statement9changeset11AsChangeset12as_changeset
FN:19,_RNvXs1_NtNtCsaS3fY9lrCeZ_7nanocld6models2vmNtB5_15VmUpdateDbModelNtNtCshYNBHIop811_4core7default7Default7defaultB9_
FN:19,_RNvXs_NvNtNtCsaS3fY9lrCeZ_7nanocld6models2vms2_1__RNtB6_15VmUpdateDbModelNtNtNtNtCslG0KbgAlmnM_6diesel13query_builder16update_statement9changeset11AsChangeset12as_changeset
FN:6,_RNvXNvNtNtCsaS3fY9lrCeZ_7nanocld6models2vms_1__NtB4_9VmDbModelNtNtCslG0KbgAlmnM_6diesel12associations8HasTable5table
FN:19,_RNCNvXs_NvNtNtCsaS3fY9lrCeZ_7nanocld6models2vms2_1__RNtB8_15VmUpdateDbModelNtNtNtNtCslG0KbgAlmnM_6diesel13query_builder16update_statement9changeset11AsChangeset12as_changeset0Bc_
FN:19,_RNCNvXs_NvNtNtCsaS3fY9lrCeZ_7nanocld6models2vms2_1__RNtB8_15VmUpdateDbModelNtNtNtNtCslG0KbgAlmnM_6diesel13query_builder16update_statement9changeset11AsChangeset12as_changesets0_0Bc_
FN:19,_RNCNvXs_NvNtNtCsaS3fY9lrCeZ_7nanocld6models2vms2_1__RNtB8_15VmUpdateDbModelNtNtNtNtCslG0KbgAlmnM_6diesel13query_builder16update_statement9changeset11AsChangeset12as_changesets_0Bc_
FN:19,_RNCNvXs_NvNtNtCsaS3fY9lrCeZ_7nanocld6models2vms2_1__RNtB8_15VmUpdateDbModelNtNtNtNtCslG0KbgAlmnM_6diesel13query_builder16update_statement9changeset11AsChangeset12as_changesets1_0Bc_
FN:6,_RNvXNvNtNtCsaS3fY9lrCeZ_7nanocld6models2vms1_1__NtB4_9VmDbModelINtNtNtCslG0KbgAlmnM_6diesel12associations10belongs_to9BelongsToNtNtB6_9namespace16NamespaceDbModelE18foreign_key_columnB8_
FN:6,_RNvXs_NvNtNtCsaS3fY9lrCeZ_7nanocld6models2vms0_1__RNtB6_9VmDbModelINtNtCslG0KbgAlmnM_6diesel10insertable10InsertableNtNtNtBa_6schema3vms5tableE6values
FN:6,_RNvXNvNtNtCsaS3fY9lrCeZ_7nanocld6models2vm1__NtB4_9VmDbModelINtNtCslG0KbgAlmnM_6diesel11deserialize9QueryableTNtNtB11_9sql_types4TextNtNtNtNtB11_2pg5types9sql_types11TimestamptzB1K_NtB29_4UuidB1K_ENtNtB2d_7backend2PgE5buildB8_
FNDA:0,_RNCNvXNvNtNtCsaS3fY9lrCeZ_7nanocld6models2vms2_1__NtB6_15VmUpdateDbModelNtNtNtNtCslG0KbgAlmnM_6diesel13query_builder16update_statement9changeset11AsChangeset12as_changesets_0Ba_
FNDA:0,_RNvXs_NtNtCsaS3fY9lrCeZ_7nanocld6models2vmNtB4_9VmDbModelNtNtCshYNBHIop811_4core3fmt5Debug3fmt
FNDA:0,_RNvXININvNtNtCsaS3fY9lrCeZ_7nanocld6models2vms1_1__0pENtB7_9VmDbModelINtNtNtCslG0KbgAlmnM_6diesel12associations10belongs_to9BelongsToNtNtB9_9namespace16NamespaceDbModelE11foreign_keyBb_
FNDA:0,_RNvXs0_NtNtCsaS3fY9lrCeZ_7nanocld6models2vmNtB5_15VmUpdateDbModelNtNtCshYNBHIop811_4core3fmt5Debug3fmt
FNDA:0,_RNvXs_NvNtNtCsaS3fY9lrCeZ_7nanocld6models2vms_1__RNtB6_9VmDbModelNtNtCslG0KbgAlmnM_6diesel12associations12Identifiable2id
FNDA:0,_RNCNvXNvNtNtCsaS3fY9lrCeZ_7nanocld6models2vms2_1__NtB6_15VmUpdateDbModelNtNtNtNtCslG0KbgAlmnM_6diesel13query_builder16update_statement9changeset11AsChangeset12as_changeset0Ba_
FNDA:0,_RNvXs0_NvNtNtCsaS3fY9lrCeZ_7nanocld6models2vms_1__RRNtB7_9VmDbModelNtNtCslG0KbgAlmnM_6diesel12associations12Identifiable2id
FNDA:0,_RNvXNvNtNtCsaS3fY9lrCeZ_7nanocld6models2vms0_1__NtB4_9VmDbModelINtNtCslG0KbgAlmnM_6diesel10insertable10InsertableNtNtNtB8_6schema3vms5tableE6values
FNDA:0,_RNvXNtNtCsaS3fY9lrCeZ_7nanocld6models2vmNtB2_9VmDbModelNtNtCshYNBHIop811_4core5clone5Clone5cloneB6_
FNDA:0,_RNvXININvNtNtCsaS3fY9lrCeZ_7nanocld6models2vms1_1__s_0pENtB7_9VmDbModelINtNtNtCslG0KbgAlmnM_6diesel12associations10belongs_to9BelongsToRNtNtB9_9namespace16NamespaceDbModelE11foreign_keyBb_
FNDA:0,_RNvXININvNtNtCsaS3fY9lrCeZ_7nanocld6models2vms1_1__s_0pENtB7_9VmDbModelINtNtNtCslG0KbgAlmnM_6diesel12associations10belongs_to9BelongsToRNtNtB9_9namespace16NamespaceDbModelE18foreign_key_columnBb_
FNDA:0,_RNCNvXNvNtNtCsaS3fY9lrCeZ_7nanocld6models2vms2_1__NtB6_15VmUpdateDbModelNtNtNtNtCslG0KbgAlmnM_6diesel13query_builder16update_statement9changeset11AsChangeset12as_changesets1_0Ba_
FNDA:0,_RNCNvXNvNtNtCsaS3fY9lrCeZ_7nanocld6models2vms2_1__NtB6_15VmUpdateDbModelNtNtNtNtCslG0KbgAlmnM_6diesel13query_builder16update_statement9changeset11AsChangeset12as_changesets0_0Ba_
FNDA:0,_RNvXNvNtNtCsaS3fY9lrCeZ_7nanocld6models2vms2_1__NtB4_15VmUpdateDbModelNtNtNtNtCslG0KbgAlmnM_6diesel13query_builder16update_statement9changeset11AsChangeset12as_changeset
FNDA:0,_RNvXs1_NtNtCsaS3fY9lrCeZ_7nanocld6models2vmNtB5_15VmUpdateDbModelNtNtCshYNBHIop811_4core7default7Default7defaultB9_
FNDA:0,_RNvXs_NvNtNtCsaS3fY9lrCeZ_7nanocld6models2vms2_1__RNtB6_15VmUpdateDbModelNtNtNtNtCslG0KbgAlmnM_6diesel13query_builder16update_statement9changeset11AsChangeset12as_changeset
FNDA:1,_RNvXNvNtNtCsaS3fY9lrCeZ_7nanocld6models2vms_1__NtB4_9VmDbModelNtNtCslG0KbgAlmnM_6diesel12associations8HasTable5table
FNDA:0,_RNCNvXs_NvNtNtCsaS3fY9lrCeZ_7nanocld6models2vms2_1__RNtB8_15VmUpdateDbModelNtNtNtNtCslG0KbgAlmnM_6diesel13query_builder16update_statement9changeset11AsChangeset12as_changeset0Bc_
FNDA:0,_RNCNvXs_NvNtNtCsaS3fY9lrCeZ_7nanocld6models2vms2_1__RNtB8_15VmUpdateDbModelNtNtNtNtCslG0KbgAlmnM_6diesel13query_builder16update_statement9changeset11AsChangeset12as_changesets0_0Bc_
FNDA:0,_RNCNvXs_NvNtNtCsaS3fY9lrCeZ_7nanocld6models2vms2_1__RNtB8_15VmUpdateDbModelNtNtNtNtCslG0KbgAlmnM_6diesel13query_builder16update_statement9changeset11AsChangeset12as_changesets_0Bc_
FNDA:0,_RNCNvXs_NvNtNtCsaS3fY9lrCeZ_7nanocld6models2vms2_1__RNtB8_15VmUpdateDbModelNtNtNtNtCslG0KbgAlmnM_6diesel13query_builder16update_statement9changeset11AsChangeset12as_changesets1_0Bc_
FNDA:1,_RNvXNvNtNtCsaS3fY9lrCeZ_7nanocld6models2vms1_1__NtB4_9VmDbModelINtNtNtCslG0KbgAlmnM_6diesel12associations10belongs_to9BelongsToNtNtB6_9namespace16NamespaceDbModelE18foreign_key_columnB8_
FNDA:0,_RNvXs_NvNtNtCsaS3fY9lrCeZ_7nanocld6models2vms0_1__RNtB6_9VmDbModelINtNtCslG0KbgAlmnM_6diesel10insertable10InsertableNtNtNtBa_6schema3vms5tableE6values
FNDA:0,_RNvXNvNtNtCsaS3fY9lrCeZ_7nanocld6models2vm1__NtB4_9VmDbModelINtNtCslG0KbgAlmnM_6diesel11deserialize9QueryableTNtNtB11_9sql_types4TextNtNtNtNtB11_2pg5types9sql_types11TimestamptzB1K_NtB29_4UuidB1K_ENtNtB2d_7backend2PgE5buildB8_
FNF:9
FNH:2
DA:6,1
DA:19,0
BRF:0
BRH:0
LF:9
LH:2
end_of_record
SF:/home/leone/Documents/next-hat/nanocl/bin/nanocld/src/models/vm_config.rs
FN:6,_RNvXININvNtNtCsaS3fY9lrCeZ_7nanocld6models9vm_configs1_1__s_0pENtB7_15VmConfigDbModelINtNtNtCslG0KbgAlmnM_6diesel12associations10belongs_to9BelongsToRNtNtB9_2vm9VmDbModelE18foreign_key_columnBb_
FN:6,_RNvXNvNtNtCsaS3fY9lrCeZ_7nanocld6models9vm_configs0_1__NtB4_15VmConfigDbModelINtNtCslG0KbgAlmnM_6diesel10insertable10InsertableNtNtNtB8_6schema10vm_configs5tableE6values
FN:6,_RNvXININvNtNtCsaS3fY9lrCeZ_7nanocld6models9vm_configs1_1__s_0pENtB7_15VmConfigDbModelINtNtNtCslG0KbgAlmnM_6diesel12associations10belongs_to9BelongsToRNtNtB9_2vm9VmDbModelE11foreign_keyBb_
FN:6,_RNvXs0_NvNtNtCsaS3fY9lrCeZ_7nanocld6models9vm_configs_1__RRNtB7_15VmConfigDbModelNtNtCslG0KbgAlmnM_6diesel12associations12Identifiable2id
FN:6,_RNvXININvNtNtCsaS3fY9lrCeZ_7nanocld6models9vm_configs1_1__0pENtB7_15VmConfigDbModelINtNtNtCslG0KbgAlmnM_6diesel12associations10belongs_to9BelongsToNtNtB9_2vm9VmDbModelE11foreign_keyBb_
FN:6,_RNvXs_NvNtNtCsaS3fY9lrCeZ_7nanocld6models9vm_configs_1__RNtB6_15VmConfigDbModelNtNtCslG0KbgAlmnM_6diesel12associations12Identifiable2id
FN:6,_RNvXININvNtNtCsaS3fY9lrCeZ_7nanocld6models9vm_configs1_1__0pENtB7_15VmConfigDbModelINtNtNtCslG0KbgAlmnM_6diesel12associations10belongs_to9BelongsToNtNtB9_2vm9VmDbModelE18foreign_key_columnBb_
FN:6,_RNvXNvNtNtCsaS3fY9lrCeZ_7nanocld6models9vm_configs_1__NtB4_15VmConfigDbModelNtNtCslG0KbgAlmnM_6diesel12associations8HasTable5table
FN:6,_RNvXs_NvNtNtCsaS3fY9lrCeZ_7nanocld6models9vm_configs0_1__RNtB6_15VmConfigDbModelINtNtCslG0KbgAlmnM_6diesel10insertable10InsertableNtNtNtBa_6schema10vm_configs5tableE6values
FN:6,_RNvXNvNtNtCsaS3fY9lrCeZ_7nanocld6models9vm_config1__NtB4_15VmConfigDbModelINtNtCslG0KbgAlmnM_6diesel11deserialize9QueryableTNtNtNtNtB1f_2pg5types9sql_types4UuidNtB20_11TimestamptzNtNtB1f_9sql_types4TextB2R_NtB20_5JsonbENtNtB24_7backend2PgE5buildB8_
FNDA:0,_RNvXININvNtNtCsaS3fY9lrCeZ_7nanocld6models9vm_configs1_1__s_0pENtB7_15VmConfigDbModelINtNtNtCslG0KbgAlmnM_6diesel12associations10belongs_to9BelongsToRNtNtB9_2vm9VmDbModelE18foreign_key_columnBb_
FNDA:0,_RNvXNvNtNtCsaS3fY9lrCeZ_7nanocld6models9vm_configs0_1__NtB4_15VmConfigDbModelINtNtCslG0KbgAlmnM_6diesel10insertable10InsertableNtNtNtB8_6schema10vm_configs5tableE6values
FNDA:0,_RNvXININvNtNtCsaS3fY9lrCeZ_7nanocld6models9vm_configs1_1__s_0pENtB7_15VmConfigDbModelINtNtNtCslG0KbgAlmnM_6diesel12associations10belongs_to9BelongsToRNtNtB9_2vm9VmDbModelE11foreign_keyBb_
FNDA:0,_RNvXs0_NvNtNtCsaS3fY9lrCeZ_7nanocld6models9vm_configs_1__RRNtB7_15VmConfigDbModelNtNtCslG0KbgAlmnM_6diesel12associations12Identifiable2id
FNDA:0,_RNvXININvNtNtCsaS3fY9lrCeZ_7nanocld6models9vm_configs1_1__0pENtB7_15VmConfigDbModelINtNtNtCslG0KbgAlmnM_6diesel12associations10belongs_to9BelongsToNtNtB9_2vm9VmDbModelE11foreign_keyBb_
FNDA:0,_RNvXs_NvNtNtCsaS3fY9lrCeZ_7nanocld6models9vm_configs_1__RNtB6_15VmConfigDbModelNtNtCslG0KbgAlmnM_6diesel12associations12Identifiable2id
FNDA:0,_RNvXININvNtNtCsaS3fY9lrCeZ_7nanocld6models9vm_configs1_1__0pENtB7_15VmConfigDbModelINtNtNtCslG0KbgAlmnM_6diesel12associations10belongs_to9BelongsToNtNtB9_2vm9VmDbModelE18foreign_key_columnBb_
FNDA:0,_RNvXNvNtNtCsaS3fY9lrCeZ_7nanocld6models9vm_configs_1__NtB4_15VmConfigDbModelNtNtCslG0KbgAlmnM_6diesel12associations8HasTable5table
FNDA:0,_RNvXs_NvNtNtCsaS3fY9lrCeZ_7nanocld6models9vm_configs0_1__RNtB6_15VmConfigDbModelINtNtCslG0KbgAlmnM_6diesel10insertable10InsertableNtNtNtBa_6schema10vm_configs5tableE6values
FNDA:0,_RNvXNvNtNtCsaS3fY9lrCeZ_7nanocld6models9vm_config1__NtB4_15VmConfigDbModelINtNtCslG0KbgAlmnM_6diesel11deserialize9QueryableTNtNtNtNtB1f_2pg5types9sql_types4UuidNtB20_11TimestamptzNtNtB1f_9sql_types4TextB2R_NtB20_5JsonbENtNtB24_7backend2PgE5buildB8_
FNF:4
FNH:0
DA:6,0
BRF:0
BRH:0
LF:4
LH:0
end_of_record
SF:/home/leone/Documents/next-hat/nanocl/bin/nanocld/src/models/vm_image.rs
FN:9,_RINvXs0_NvXNvNtNtCsaS3fY9lrCeZ_7nanocld6models8vm_images2_1__NtBb_14VmImageDbModelNtNtCse3fRS504XmB_5serde2de11Deserialize11deserializeNtB6_9___VisitorNtB1k_7Visitor9visit_seqpEBf_
FN:9,_RINvXs0_NvXNvNtNtCsaS3fY9lrCeZ_7nanocld6models8vm_images2_1__NtBb_14VmImageDbModelNtNtCse3fRS504XmB_5serde2de11Deserialize11deserializeNtB6_9___VisitorNtB1k_7Visitor9visit_mappEBf_
FN:9,_RINvXNvXNvNtNtCsaS3fY9lrCeZ_7nanocld6models8vm_images2_1__NtB8_14VmImageDbModelNtNtCse3fRS504XmB_5serde2de11Deserialize11deserializeNtB3_14___FieldVisitorNtB1h_7Visitor11visit_bytespEBc_
FN:9,_RNCNvXNvNtNtCsaS3fY9lrCeZ_7nanocld6models8vm_images0_1__NtB6_14VmImageDbModelINtNtCslG0KbgAlmnM_6diesel10insertable10InsertableNtNtNtBa_6schema9vm_images5tableE6values0Ba_
FN:9,_RNvXs0_NtNtCsaS3fY9lrCeZ_7nanocld6models8vm_imageNtB5_14VmImageDbModelNtNtCshYNBHIop811_4core3fmt5Debug3fmt
FN:25,_RNvXs2_NtNtCsaS3fY9lrCeZ_7nanocld6models8vm_imageNtB5_20VmImageUpdateDbModelNtNtCshYNBHIop811_4core3fmt5Debug3fmt
FN:9,_RINvXNvXNvNtNtCsaS3fY9lrCeZ_7nanocld6models8vm_images2_1__NtB8_14VmImageDbModelNtNtCse3fRS504XmB_5serde2de11Deserialize11deserializeNtB3_14___FieldVisitorNtB1h_7Visitor9visit_strpEBc_
FN:9,_RNvXNvXNvNtNtCsaS3fY9lrCeZ_7nanocld6models8vm_images2_1__NtB7_14VmImageDbModelNtNtCse3fRS504XmB_5serde2de11Deserialize11deserializeNtB2_14___FieldVisitorNtB1g_7Visitor9expecting
FN:46,_RNvXNvXNvNtNtCsaS3fY9lrCeZ_7nanocld6models8vm_images5_1__NtB7_11QemuImgInfoNtNtCse3fRS504XmB_5serde2de11Deserialize11deserializeNtB2_14___FieldVisitorNtB1d_7Visitor9expecting
FN:9,_RINvXNvNtNtCsaS3fY9lrCeZ_7nanocld6models8vm_images2_1__NtB5_14VmImageDbModelNtNtCse3fRS504XmB_5serde2de11Deserialize11deserializepEB9_
FN:9,_RNvXs0_NvXNvNtNtCsaS3fY9lrCeZ_7nanocld6models8vm_images2_1__NtBa_14VmImageDbModelNtNtCse3fRS504XmB_5serde2de11Deserialize11deserializeNtB5_9___VisitorNtB1j_7Visitor9expecting
FN:46,_RNvXs4_NtNtCsaS3fY9lrCeZ_7nanocld6models8vm_imageNtB5_11QemuImgInfoNtNtCshYNBHIop811_4core3fmt5Debug3fmt
FN:46,_RINvXNvXNvNtNtCsaS3fY9lrCeZ_7nanocld6models8vm_images5_1__NtB8_11QemuImgInfoNtNtCse3fRS504XmB_5serde2de11Deserialize11deserializeNtB3_14___FieldVisitorNtB1e_7Visitor11visit_bytespEBc_
FN:9,_RNvXNvNtNtCsaS3fY9lrCeZ_7nanocld6models8vm_images_1__NtB4_14VmImageDbModelNtNtCslG0KbgAlmnM_6diesel12associations8HasTable5table
FN:9,_RNvXNvNtNtCsaS3fY9lrCeZ_7nanocld6models8vm_images0_1__NtB4_14VmImageDbModelINtNtCslG0KbgAlmnM_6diesel10insertable10InsertableNtNtNtB8_6schema9vm_images5tableE6values
FN:46,_RINvXNvXNvNtNtCsaS3fY9lrCeZ_7nanocld6models8vm_images5_1__NtB8_11QemuImgInfoNtNtCse3fRS504XmB_5serde2de11Deserialize11deserializeNtB3_14___FieldVisitorNtB1e_7Visitor9visit_u64pEBc_
FN:46,_RNvXs3_NtNtCsaS3fY9lrCeZ_7nanocld6models8vm_imageNtB5_11QemuImgInfoNtNtCshYNBHIop811_4core5clone5Clone5cloneB9_
FN:9,_RINvXs_NvXNvNtNtCsaS3fY9lrCeZ_7nanocld6models8vm_images2_1__NtBa_14VmImageDbModelNtNtCse3fRS504XmB_5serde2de11Deserialize11deserializeNtB5_7___FieldB1h_11deserializepEBe_
FN:46,_RINvXNvNtNtCsaS3fY9lrCeZ_7nanocld6models8vm_images4_1__NtB5_11QemuImgInfoNtNtCse3fRS504XmB_5serde3ser9Serialize9serializepEB9_
FN:9,_RINvXNvXNvNtNtCsaS3fY9lrCeZ_7nanocld6models8vm_images2_1__NtB8_14VmImageDbModelNtNtCse3fRS504XmB_5serde2de11Deserialize11deserializeNtB3_14___FieldVisitorNtB1h_7Visitor9visit_u64pEBc_
FN:9,_RNvXs_NvNtNtCsaS3fY9lrCeZ_7nanocld6models8vm_images_1__RNtB6_14VmImageDbModelNtNtCslG0KbgAlmnM_6diesel12associations12Identifiable2id
FN:25,_RNvXs_NvNtNtCsaS3fY9lrCeZ_7nanocld6models8vm_images3_1__RNtB6_20VmImageUpdateDbModelNtNtNtNtCslG0KbgAlmnM_6diesel13query_builder16update_statement9changeset11AsChangeset12as_changeset
FN:9,_RNvXs0_NvNtNtCsaS3fY9lrCeZ_7nanocld6models8vm_images_1__RRNtB7_14VmImageDbModelNtNtCslG0KbgAlmnM_6diesel12associations12Identifiable2id
FN:33,_RNvXNtNtCsaS3fY9lrCeZ_7nanocld6models8vm_imageNtNtCsfutTBaew1Qf_12nanocl_stubs8vm_image7VmImageINtNtCshYNBHIop811_4core7convert4FromNtB2_14VmImageDbModelE4from
FN:46,_RINvXs_NvXNvNtNtCsaS3fY9lrCeZ_7nanocld6models8vm_images5_1__NtBa_11QemuImgInfoNtNtCse3fRS504XmB_5serde2de11Deserialize11deserializeNtB5_7___FieldB1e_11deserializeINtNtCs6g1kmU4N7Sa_10serde_json2de6MapKeyNtNtB2F_4read9SliceReadEEBe_
FN:46,_RNvXs0_NvXNvNtNtCsaS3fY9lrCeZ_7nanocld6models8vm_images5_1__NtBa_11QemuImgInfoNtNtCse3fRS504XmB_5serde2de11Deserialize11deserializeNtB5_9___VisitorNtB1g_7Visitor9expecting
FN:25,_RNvXs1_NtNtCsaS3fY9lrCeZ_7nanocld6models8vm_imageNtB5_20VmImageUpdateDbModelNtNtCshYNBHIop811_4core5clone5Clone5cloneB9_
FN:46,_RINvXs0_NvXNvNtNtCsaS3fY9lrCeZ_7nanocld6models8vm_images5_1__NtBb_11QemuImgInfoNtNtCse3fRS504XmB_5serde2de11Deserialize11deserializeNtB6_9___VisitorNtB1h_7Visitor9visit_seqINtNtCs6g1kmU4N7Sa_10serde_json2de9SeqAccessNtNtB2P_4read9SliceReadEEBf_
FN:9,_RINvXNvNtNtCsaS3fY9lrCeZ_7nanocld6models8vm_images1_1__NtB5_14VmImageDbModelNtNtCse3fRS504XmB_5serde3ser9Serialize9serializeQINtNtCs6g1kmU4N7Sa_10serde_json3ser10SerializerQINtNtCs7OvAONlnxZo_5alloc3vec3VechEEEB9_
FN:25,_RNvXNvNtNtCsaS3fY9lrCeZ_7nanocld6models8vm_images3_1__NtB4_20VmImageUpdateDbModelNtNtNtNtCslG0KbgAlmnM_6diesel13query_builder16update_statement9changeset11AsChangeset12as_changeset
FN:9,_RNvXNvNtNtCsaS3fY9lrCeZ_7nanocld6models8vm_image1__NtB4_14VmImageDbModelINtNtCslG0KbgAlmnM_6diesel11deserialize9QueryableTNtNtB1d_9sql_types4TextNtNtNtNtB1d_2pg5types9sql_types11TimestamptzB1W_B1W_B1W_NtB1Y_6BigIntB3d_INtB1Y_8NullableB1W_EENtNtB2p_7backend2PgE5buildB8_
FN:46,_RINvXs0_NvXNvNtNtCsaS3fY9lrCeZ_7nanocld6models8vm_images5_1__NtBb_11QemuImgInfoNtNtCse3fRS504XmB_5serde2de11Deserialize11deserializeNtB6_9___VisitorNtB1h_7Visitor9visit_mapINtNtCs6g1kmU4N7Sa_10serde_json2de9MapAccessNtNtB2P_4read9SliceReadEEBf_
FN:9,_RNvXs_NvNtNtCsaS3fY9lrCeZ_7nanocld6models8vm_images0_1__RNtB6_14VmImageDbModelINtNtCslG0KbgAlmnM_6diesel10insertable10InsertableNtNtNtBa_6schema9vm_images5tableE6values
FN:46,_RINvXNvNtNtCsaS3fY9lrCeZ_7nanocld6models8vm_images5_1__NtB5_11QemuImgInfoNtNtCse3fRS504XmB_5serde2de11Deserialize11deserializeQINtNtCs6g1kmU4N7Sa_10serde_json2de12DeserializerNtNtB26_4read9SliceReadEEB9_
FN:46,_RINvXNvXNvNtNtCsaS3fY9lrCeZ_7nanocld6models8vm_images5_1__NtB8_11QemuImgInfoNtNtCse3fRS504XmB_5serde2de11Deserialize11deserializeNtB3_14___FieldVisitorNtB1e_7Visitor9visit_strNtNtCs6g1kmU4N7Sa_10serde_json5error5ErrorEBc_
FN:9,_RNvXs_NtNtCsaS3fY9lrCeZ_7nanocld6models8vm_imageNtB4_14VmImageDbModelNtNtCshYNBHIop811_4core5clone5Clone5cloneB8_
FN:9,_RNCNvXs_NvNtNtCsaS3fY9lrCeZ_7nanocld6models8vm_images0_1__RNtB8_14VmImageDbModelINtNtCslG0KbgAlmnM_6diesel10insertable10InsertableNtNtNtBc_6schema9vm_images5tableE6values0Bc_
FNDA:0,_RINvXs0_NvXNvNtNtCsaS3fY9lrCeZ_7nanocld6models8vm_images2_1__NtBb_14VmImageDbModelNtNtCse3fRS504XmB_5serde2de11Deserialize11deserializeNtB6_9___VisitorNtB1k_7Visitor9visit_seqpEBf_
FNDA:0,_RINvXs0_NvXNvNtNtCsaS3fY9lrCeZ_7nanocld6models8vm_images2_1__NtBb_14VmImageDbModelNtNtCse3fRS504XmB_5serde2de11Deserialize11deserializeNtB6_9___VisitorNtB1k_7Visitor9visit_mappEBf_
FNDA:0,_RINvXNvXNvNtNtCsaS3fY9lrCeZ_7nanocld6models8vm_images2_1__NtB8_14VmImageDbModelNtNtCse3fRS504XmB_5serde2de11Deserialize11deserializeNtB3_14___FieldVisitorNtB1h_7Visitor11visit_bytespEBc_
FNDA:0,_RNCNvXNvNtNtCsaS3fY9lrCeZ_7nanocld6models8vm_images0_1__NtB6_14VmImageDbModelINtNtCslG0KbgAlmnM_6diesel10insertable10InsertableNtNtNtBa_6schema9vm_images5tableE6values0Ba_
FNDA:0,_RNvXs0_NtNtCsaS3fY9lrCeZ_7nanocld6models8vm_imageNtB5_14VmImageDbModelNtNtCshYNBHIop811_4core3fmt5Debug3fmt
FNDA:0,_RNvXs2_NtNtCsaS3fY9lrCeZ_7nanocld6models8vm_imageNtB5_20VmImageUpdateDbModelNtNtCshYNBHIop811_4core3fmt5Debug3fmt
FNDA:0,_RINvXNvXNvNtNtCsaS3fY9lrCeZ_7nanocld6models8vm_images2_1__NtB8_14VmImageDbModelNtNtCse3fRS504XmB_5serde2de11Deserialize11deserializeNtB3_14___FieldVisitorNtB1h_7Visitor9visit_strpEBc_
FNDA:0,_RNvXNvXNvNtNtCsaS3fY9lrCeZ_7nanocld6models8vm_images2_1__NtB7_14VmImageDbModelNtNtCse3fRS504XmB_5serde2de11Deserialize11deserializeNtB2_14___FieldVisitorNtB1g_7Visitor9expecting
FNDA:0,_RNvXNvXNvNtNtCsaS3fY9lrCeZ_7nanocld6models8vm_images5_1__NtB7_11QemuImgInfoNtNtCse3fRS504XmB_5serde2de11Deserialize11deserializeNtB2_14___FieldVisitorNtB1d_7Visitor9expecting
FNDA:0,_RINvXNvNtNtCsaS3fY9lrCeZ_7nanocld6models8vm_images2_1__NtB5_14VmImageDbModelNtNtCse3fRS504XmB_5serde2de11Deserialize11deserializepEB9_
FNDA:0,_RNvXs0_NvXNvNtNtCsaS3fY9lrCeZ_7nanocld6models8vm_images2_1__NtBa_14VmImageDbModelNtNtCse3fRS504XmB_5serde2de11Deserialize11deserializeNtB5_9___VisitorNtB1j_7Visitor9expecting
FNDA:0,_RNvXs4_NtNtCsaS3fY9lrCeZ_7nanocld6models8vm_imageNtB5_11QemuImgInfoNtNtCshYNBHIop811_4core3fmt5Debug3fmt
FNDA:0,_RINvXNvXNvNtNtCsaS3fY9lrCeZ_7nanocld6models8vm_images5_1__NtB8_11QemuImgInfoNtNtCse3fRS504XmB_5serde2de11Deserialize11deserializeNtB3_14___FieldVisitorNtB1e_7Visitor11visit_bytespEBc_
FNDA:0,_RNvXNvNtNtCsaS3fY9lrCeZ_7nanocld6models8vm_images_1__NtB4_14VmImageDbModelNtNtCslG0KbgAlmnM_6diesel12associations8HasTable5table
FNDA:0,_RNvXNvNtNtCsaS3fY9lrCeZ_7nanocld6models8vm_images0_1__NtB4_14VmImageDbModelINtNtCslG0KbgAlmnM_6diesel10insertable10InsertableNtNtNtB8_6schema9vm_images5tableE6values
FNDA:0,_RINvXNvXNvNtNtCsaS3fY9lrCeZ_7nanocld6models8vm_images5_1__NtB8_11QemuImgInfoNtNtCse3fRS504XmB_5serde2de11Deserialize11deserializeNtB3_14___FieldVisitorNtB1e_7Visitor9visit_u64pEBc_
FNDA:0,_RNvXs3_NtNtCsaS3fY9lrCeZ_7nanocld6models8vm_imageNtB5_11QemuImgInfoNtNtCshYNBHIop811_4core5clone5Clone5cloneB9_
FNDA:0,_RINvXs_NvXNvNtNtCsaS3fY9lrCeZ_7nanocld6models8vm_images2_1__NtBa_14VmImageDbModelNtNtCse3fRS504XmB_5serde2de11Deserialize11deserializeNtB5_7___FieldB1h_11deserializepEBe_
FNDA:0,_RINvXNvNtNtCsaS3fY9lrCeZ_7nanocld6models8vm_images4_1__NtB5_11QemuImgInfoNtNtCse3fRS504XmB_5serde3ser9Serialize9serializepEB9_
FNDA:0,_RINvXNvXNvNtNtCsaS3fY9lrCeZ_7nanocld6models8vm_images2_1__NtB8_14VmImageDbModelNtNtCse3fRS504XmB_5serde2de11Deserialize11deserializeNtB3_14___FieldVisitorNtB1h_7Visitor9visit_u64pEBc_
FNDA:0,_RNvXs_NvNtNtCsaS3fY9lrCeZ_7nanocld6models8vm_images_1__RNtB6_14VmImageDbModelNtNtCslG0KbgAlmnM_6diesel12associations12Identifiable2id
FNDA:0,_RNvXs_NvNtNtCsaS3fY9lrCeZ_7nanocld6models8vm_images3_1__RNtB6_20VmImageUpdateDbModelNtNtNtNtCslG0KbgAlmnM_6diesel13query_builder16update_statement9changeset11AsChangeset12as_changeset
FNDA:0,_RNvXs0_NvNtNtCsaS3fY9lrCeZ_7nanocld6models8vm_images_1__RRNtB7_14VmImageDbModelNtNtCslG0KbgAlmnM_6diesel12associations12Identifiable2id
FNDA:0,_RNvXNtNtCsaS3fY9lrCeZ_7nanocld6models8vm_imageNtNtCsfutTBaew1Qf_12nanocl_stubs8vm_image7VmImageINtNtCshYNBHIop811_4core7convert4FromNtB2_14VmImageDbModelE4from
FNDA:0,_RINvXs_NvXNvNtNtCsaS3fY9lrCeZ_7nanocld6models8vm_images5_1__NtBa_11QemuImgInfoNtNtCse3fRS504XmB_5serde2de11Deserialize11deserializeNtB5_7___FieldB1e_11deserializeINtNtCs6g1kmU4N7Sa_10serde_json2de6MapKeyNtNtB2F_4read9SliceReadEEBe_
FNDA:0,_RNvXs0_NvXNvNtNtCsaS3fY9lrCeZ_7nanocld6models8vm_images5_1__NtBa_11QemuImgInfoNtNtCse3fRS504XmB_5serde2de11Deserialize11deserializeNtB5_9___VisitorNtB1g_7Visitor9expecting
FNDA:0,_RNvXs1_NtNtCsaS3fY9lrCeZ_7nanocld6models8vm_imageNtB5_20VmImageUpdateDbModelNtNtCshYNBHIop811_4core5clone5Clone5cloneB9_
FNDA:0,_RINvXs0_NvXNvNtNtCsaS3fY9lrCeZ_7nanocld6models8vm_images5_1__NtBb_11QemuImgInfoNtNtCse3fRS504XmB_5serde2de11Deserialize11deserializeNtB6_9___VisitorNtB1h_7Visitor9visit_seqINtNtCs6g1kmU4N7Sa_10serde_json2de9SeqAccessNtNtB2P_4read9SliceReadEEBf_
FNDA:0,_RINvXNvNtNtCsaS3fY9lrCeZ_7nanocld6models8vm_images1_1__NtB5_14VmImageDbModelNtNtCse3fRS504XmB_5serde3ser9Serialize9serializeQINtNtCs6g1kmU4N7Sa_10serde_json3ser10SerializerQINtNtCs7OvAONlnxZo_5alloc3vec3VechEEEB9_
FNDA:0,_RNvXNvNtNtCsaS3fY9lrCeZ_7nanocld6models8vm_images3_1__NtB4_20VmImageUpdateDbModelNtNtNtNtCslG0KbgAlmnM_6diesel13query_builder16update_statement9changeset11AsChangeset12as_changeset
FNDA:0,_RNvXNvNtNtCsaS3fY9lrCeZ_7nanocld6models8vm_image1__NtB4_14VmImageDbModelINtNtCslG0KbgAlmnM_6diesel11deserialize9QueryableTNtNtB1d_9sql_types4TextNtNtNtNtB1d_2pg5types9sql_types11TimestamptzB1W_B1W_B1W_NtB1Y_6BigIntB3d_INtB1Y_8NullableB1W_EENtNtB2p_7backend2PgE5buildB8_
FNDA:0,_RINvXs0_NvXNvNtNtCsaS3fY9lrCeZ_7nanocld6models8vm_images5_1__NtBb_11QemuImgInfoNtNtCse3fRS504XmB_5serde2de11Deserialize11deserializeNtB6_9___VisitorNtB1h_7Visitor9visit_mapINtNtCs6g1kmU4N7Sa_10serde_json2de9MapAccessNtNtB2P_4read9SliceReadEEBf_
FNDA:0,_RNvXs_NvNtNtCsaS3fY9lrCeZ_7nanocld6models8vm_images0_1__RNtB6_14VmImageDbModelINtNtCslG0KbgAlmnM_6diesel10insertable10InsertableNtNtNtBa_6schema9vm_images5tableE6values
FNDA:0,_RINvXNvNtNtCsaS3fY9lrCeZ_7nanocld6models8vm_images5_1__NtB5_11QemuImgInfoNtNtCse3fRS504XmB_5serde2de11Deserialize11deserializeQINtNtCs6g1kmU4N7Sa_10serde_json2de12DeserializerNtNtB26_4read9SliceReadEEB9_
FNDA:0,_RINvXNvXNvNtNtCsaS3fY9lrCeZ_7nanocld6models8vm_images5_1__NtB8_11QemuImgInfoNtNtCse3fRS504XmB_5serde2de11Deserialize11deserializeNtB3_14___FieldVisitorNtB1e_7Visitor9visit_strNtNtCs6g1kmU4N7Sa_10serde_json5error5ErrorEBc_
FNDA:0,_RNvXs_NtNtCsaS3fY9lrCeZ_7nanocld6models8vm_imageNtB4_14VmImageDbModelNtNtCshYNBHIop811_4core5clone5Clone5cloneB8_
FNDA:0,_RNCNvXs_NvNtNtCsaS3fY9lrCeZ_7nanocld6models8vm_images0_1__RNtB8_14VmImageDbModelINtNtCslG0KbgAlmnM_6diesel10insertable10InsertableNtNtNtBc_6schema9vm_images5tableE6values0Bc_
FNF:15
FNH:0
DA:9,0
DA:25,0
DA:33,0
DA:34,0
DA:35,0
DA:36,0
DA:37,0
DA:38,0
DA:39,0
DA:40,0
DA:41,0
DA:42,0
DA:43,0
DA:46,0
BRF:0
BRH:0
LF:25
LH:0
end_of_record
SF:/home/leone/Documents/next-hat/nanocl/bin/nanocld/src/models/ws.rs
FN:8,_RNvXs_NtNtCsaS3fY9lrCeZ_7nanocld6models2wsNtB4_10WsConStateNtNtCshYNBHIop811_4core3fmt5Debug3fmt
FN:8,_RNvXs0_NtNtCsaS3fY9lrCeZ_7nanocld6models2wsNtB5_10WsConStateNtNtCshYNBHIop811_4core5clone5Clone5cloneB9_
FN:14,_RNvMNtNtCsaS3fY9lrCeZ_7nanocld6models2wsNtB2_10WsConState3new
FNDA:0,_RNvXs_NtNtCsaS3fY9lrCeZ_7nanocld6models2wsNtB4_10WsConStateNtNtCshYNBHIop811_4core3fmt5Debug3fmt
FNDA:0,_RNvXs0_NtNtCsaS3fY9lrCeZ_7nanocld6models2wsNtB5_10WsConStateNtNtCshYNBHIop811_4core5clone5Clone5cloneB9_
FNDA:0,_RNvMNtNtCsaS3fY9lrCeZ_7nanocld6models2wsNtB2_10WsConState3new
FNF:3
FNH:0
DA:8,0
DA:14,0
DA:15,0
DA:16,0
BRF:0
BRH:0
LF:5
LH:0
end_of_record
SF:/home/leone/Documents/next-hat/nanocl/bin/nanocld/src/node.rs
FN:103,_RNvNtCsaS3fY9lrCeZ_7nanocld4node8messages
FN:112,_RNvNtCsaS3fY9lrCeZ_7nanocld4node10watch_node
FN:222,_RNCNCNvNtCsaS3fY9lrCeZ_7nanocld4node12join_cluster00B7_
FN:75,_RNvXs3_NtCsaS3fY9lrCeZ_7nanocld4nodeNtB5_11NodeClientsNtNtCshYNBHIop811_4core7default7Default7defaultB7_
FN:81,_RNvMs_NtCsaS3fY9lrCeZ_7nanocld4nodeNtB4_11NodeClients6handle
FN:46,_RNCNCNvMNtCsaS3fY9lrCeZ_7nanocld4nodeNtB6_10NodeClient7connect00B8_
FN:30,_RNvXs1_NtCsaS3fY9lrCeZ_7nanocld4nodeNtB5_10NodeClientNtNtCshYNBHIop811_4core3fmt5Debug3fmt
FN:218,_RNCNvNtCsaS3fY9lrCeZ_7nanocld4node12join_cluster0B5_
FN:42,_RNCNvMNtCsaS3fY9lrCeZ_7nanocld4nodeNtB4_10NodeClient7connect0B6_
FN:90,_RNCNvMs_NtCsaS3fY9lrCeZ_7nanocld4nodeNtB6_11NodeClients6handle0B8_
FN:52,_RNCNCNvMNtCsaS3fY9lrCeZ_7nanocld4nodeNtB6_10NodeClient7connect0s_0B8_
FN:218,_RNvNtCsaS3fY9lrCeZ_7nanocld4node12join_cluster
FN:36,_RNvMNtCsaS3fY9lrCeZ_7nanocld4nodeNtB2_10NodeClient3new
FN:119,_RNCNvNtCsaS3fY9lrCeZ_7nanocld4node10watch_node0B5_
FN:30,_RNvXs2_NtCsaS3fY9lrCeZ_7nanocld4nodeNtB5_10NodeClientNtNtCshYNBHIop811_4core5clone5Clone5cloneB7_
FN:25,_RNvXs0_NtCsaS3fY9lrCeZ_7nanocld4nodeNtB5_11NodeMessageNtNtCshYNBHIop811_4core5clone5Clone5cloneB7_
FN:223,_RNCNCNCNvNtCsaS3fY9lrCeZ_7nanocld4node12join_cluster000B9_
FN:107,_RNCNvNtCsaS3fY9lrCeZ_7nanocld4node8messages0B5_
FN:42,_RNvMNtCsaS3fY9lrCeZ_7nanocld4nodeNtB2_10NodeClient7connect
FNDA:0,_RNvNtCsaS3fY9lrCeZ_7nanocld4node8messages
FNDA:0,_RNvNtCsaS3fY9lrCeZ_7nanocld4node10watch_node
FNDA:0,_RNCNCNvNtCsaS3fY9lrCeZ_7nanocld4node12join_cluster00B7_
FNDA:0,_RNvXs3_NtCsaS3fY9lrCeZ_7nanocld4nodeNtB5_11NodeClientsNtNtCshYNBHIop811_4core7default7Default7defaultB7_
FNDA:0,_RNvMs_NtCsaS3fY9lrCeZ_7nanocld4nodeNtB4_11NodeClients6handle
FNDA:0,_RNCNCNvMNtCsaS3fY9lrCeZ_7nanocld4nodeNtB6_10NodeClient7connect00B8_
FNDA:0,_RNvXs1_NtCsaS3fY9lrCeZ_7nanocld4nodeNtB5_10NodeClientNtNtCshYNBHIop811_4core3fmt5Debug3fmt
FNDA:0,_RNCNvNtCsaS3fY9lrCeZ_7nanocld4node12join_cluster0B5_
FNDA:0,_RNCNvMNtCsaS3fY9lrCeZ_7nanocld4nodeNtB4_10NodeClient7connect0B6_
FNDA:0,_RNCNvMs_NtCsaS3fY9lrCeZ_7nanocld4nodeNtB6_11NodeClients6handle0B8_
FNDA:0,_RNCNCNvMNtCsaS3fY9lrCeZ_7nanocld4nodeNtB6_10NodeClient7connect0s_0B8_
FNDA:0,_RNvNtCsaS3fY9lrCeZ_7nanocld4node12join_cluster
FNDA:0,_RNvMNtCsaS3fY9lrCeZ_7nanocld4nodeNtB2_10NodeClient3new
FNDA:0,_RNCNvNtCsaS3fY9lrCeZ_7nanocld4node10watch_node0B5_
FNDA:0,_RNvXs2_NtCsaS3fY9lrCeZ_7nanocld4nodeNtB5_10NodeClientNtNtCshYNBHIop811_4core5clone5Clone5cloneB7_
FNDA:0,_RNvXs0_NtCsaS3fY9lrCeZ_7nanocld4nodeNtB5_11NodeMessageNtNtCshYNBHIop811_4core5clone5Clone5cloneB7_
FNDA:0,_RNCNCNCNvNtCsaS3fY9lrCeZ_7nanocld4node12join_cluster000B9_
FNDA:0,_RNCNvNtCsaS3fY9lrCeZ_7nanocld4node8messages0B5_
FNDA:0,_RNvMNtCsaS3fY9lrCeZ_7nanocld4nodeNtB2_10NodeClient7connect
FNF:19
FNH:0
DA:25,0
DA:30,0
DA:36,0
DA:37,0
DA:38,0
DA:39,0
DA:40,0
DA:42,0
DA:43,0
DA:44,0
DA:45,0
DA:46,0
DA:47,0
DA:48,0
DA:49,0
DA:50,0
DA:51,0
DA:52,0
DA:53,0
DA:54,0
DA:55,0
DA:57,0
DA:58,0
DA:75,0
DA:81,0
DA:82,0
DA:83,0
DA:84,0
DA:85,0
DA:86,0
DA:87,0
DA:88,0
DA:89,0
DA:90,0
DA:91,0
DA:92,0
DA:93,0
DA:95,0
DA:96,0
DA:97,0
DA:99,0
DA:103,0
DA:104,0
DA:105,0
DA:106,0
DA:107,0
DA:108,0
DA:110,0
DA:112,0
DA:113,0
DA:114,0
DA:115,0
DA:116,0
DA:117,0
DA:118,0
DA:119,0
DA:121,0
DA:122,0
DA:123,0
DA:124,0
DA:125,0
DA:126,0
DA:127,0
DA:128,0
DA:130,0
DA:131,0
DA:132,0
DA:133,0
DA:134,0
DA:135,0
DA:136,0
DA:137,0
DA:139,0
DA:140,0
DA:141,0
DA:142,0
DA:143,0
DA:144,0
DA:145,0
DA:146,0
DA:147,0
DA:148,0
DA:150,0
DA:151,0
DA:152,0
DA:153,0
DA:154,0
DA:155,0
DA:156,0
DA:157,0
DA:158,0
DA:159,0
DA:162,0
DA:165,0
DA:166,0
DA:167,0
DA:168,0
DA:169,0
DA:170,0
DA:171,0
DA:172,0
DA:174,0
DA:175,0
DA:176,0
DA:177,0
DA:178,0
DA:179,0
DA:180,0
DA:186,0
DA:189,0
DA:190,0
DA:191,0
DA:192,0
DA:199,0
DA:200,0
DA:201,0
DA:202,0
DA:203,0
DA:208,0
DA:209,0
DA:210,0
DA:211,0
DA:213,0
DA:215,0
DA:216,0
DA:218,0
DA:219,0
DA:220,0
DA:221,0
DA:222,0
DA:223,0
DA:224,0
DA:225,0
DA:226,0
DA:227,0
DA:228,0
DA:229,0
DA:230,0
DA:231,0
DA:232,0
DA:233,0
DA:234,0
DA:235,0
DA:237,0
DA:238,0
BRF:0
BRH:0
LF:159
LH:0
end_of_record
SF:/home/leone/Documents/next-hat/nanocl/bin/nanocld/src/repositories/cargo.rs
FN:291,_RNCNCNvNtNtCsaS3fY9lrCeZ_7nanocld12repositories5cargo13update_by_key00B9_
FN:338,_RNCNvNtNtCsaS3fY9lrCeZ_7nanocld12repositories5cargo18count_by_namespace0B7_
FN:217,_RNCNvNtNtCsaS3fY9lrCeZ_7nanocld12repositories5cargo11find_by_key0B7_
FN:170,_RNvNtNtCsaS3fY9lrCeZ_7nanocld12repositories5cargo13delete_by_key
FN:48,_RNCNCNvNtNtCsaS3fY9lrCeZ_7nanocld12repositories5cargo17find_by_namespace00B9_
FN:41,_RNvNtNtCsaS3fY9lrCeZ_7nanocld12repositories5cargo17find_by_namespace
FN:368,_RNCNCNvNtNtCsaS3fY9lrCeZ_7nanocld12repositories5cargo14inspect_by_key00B9_
FN:223,_RNCNCNvNtNtCsaS3fY9lrCeZ_7nanocld12repositories5cargo11find_by_key00B9_
FN:381,_RNCNCNvNtNtCsaS3fY9lrCeZ_7nanocld12repositories5cargo14inspect_by_key0s_0B9_
FN:274,_RNCNvNtNtCsaS3fY9lrCeZ_7nanocld12repositories5cargo13update_by_key0B7_
FN:344,_RNCNCNvNtNtCsaS3fY9lrCeZ_7nanocld12repositories5cargo18count_by_namespace00B9_
FN:173,_RNCNvNtNtCsaS3fY9lrCeZ_7nanocld12repositories5cargo13delete_by_key0B7_
FN:98,_RNCNvNtNtCsaS3fY9lrCeZ_7nanocld12repositories5cargo6create0B7_
FN:359,_RNvNtNtCsaS3fY9lrCeZ_7nanocld12repositories5cargo14inspect_by_key
FN:214,_RNvNtNtCsaS3fY9lrCeZ_7nanocld12repositories5cargo11find_by_key
FN:44,_RNCNvNtNtCsaS3fY9lrCeZ_7nanocld12repositories5cargo17find_by_namespace0B7_
FN:179,_RNCNCNvNtNtCsaS3fY9lrCeZ_7nanocld12repositories5cargo13delete_by_key00B9_
FN:269,_RNvNtNtCsaS3fY9lrCeZ_7nanocld12repositories5cargo13update_by_key
FN:93,_RNvNtNtCsaS3fY9lrCeZ_7nanocld12repositories5cargo6create
FN:127,_RNCNCNvNtNtCsaS3fY9lrCeZ_7nanocld12repositories5cargo6create00B9_
FN:362,_RNCNvNtNtCsaS3fY9lrCeZ_7nanocld12repositories5cargo14inspect_by_key0B7_
FN:335,_RNvNtNtCsaS3fY9lrCeZ_7nanocld12repositories5cargo18count_by_namespace
FNDA:3,_RNCNCNvNtNtCsaS3fY9lrCeZ_7nanocld12repositories5cargo13update_by_key00B9_
FNDA:4,_RNCNvNtNtCsaS3fY9lrCeZ_7nanocld12repositories5cargo18count_by_namespace0B7_
FNDA:10,_RNCNvNtNtCsaS3fY9lrCeZ_7nanocld12repositories5cargo11find_by_key0B7_
FNDA:4,_RNvNtNtCsaS3fY9lrCeZ_7nanocld12repositories5cargo13delete_by_key
FNDA:3,_RNCNCNvNtNtCsaS3fY9lrCeZ_7nanocld12repositories5cargo17find_by_namespace00B9_
FNDA:3,_RNvNtNtCsaS3fY9lrCeZ_7nanocld12repositories5cargo17find_by_namespace
FNDA:65,_RNCNCNvNtNtCsaS3fY9lrCeZ_7nanocld12repositories5cargo14inspect_by_key00B9_
FNDA:10,_RNCNCNvNtNtCsaS3fY9lrCeZ_7nanocld12repositories5cargo11find_by_key00B9_
FNDA:0,_RNCNCNvNtNtCsaS3fY9lrCeZ_7nanocld12repositories5cargo14inspect_by_key0s_0B9_
FNDA:3,_RNCNvNtNtCsaS3fY9lrCeZ_7nanocld12repositories5cargo13update_by_key0B7_
FNDA:4,_RNCNCNvNtNtCsaS3fY9lrCeZ_7nanocld12repositories5cargo18count_by_namespace00B9_
FNDA:4,_RNCNvNtNtCsaS3fY9lrCeZ_7nanocld12repositories5cargo13delete_by_key0B7_
FNDA:4,_RNCNvNtNtCsaS3fY9lrCeZ_7nanocld12repositories5cargo6create0B7_
FNDA:65,_RNvNtNtCsaS3fY9lrCeZ_7nanocld12repositories5cargo14inspect_by_key
FNDA:10,_RNvNtNtCsaS3fY9lrCeZ_7nanocld12repositories5cargo11find_by_key
FNDA:3,_RNCNvNtNtCsaS3fY9lrCeZ_7nanocld12repositories5cargo17find_by_namespace0B7_
FNDA:4,_RNCNCNvNtNtCsaS3fY9lrCeZ_7nanocld12repositories5cargo13delete_by_key00B9_
FNDA:3,_RNvNtNtCsaS3fY9lrCeZ_7nanocld12repositories5cargo13update_by_key
FNDA:4,_RNvNtNtCsaS3fY9lrCeZ_7nanocld12repositories5cargo6create
FNDA:4,_RNCNCNvNtNtCsaS3fY9lrCeZ_7nanocld12repositories5cargo6create00B9_
FNDA:65,_RNCNvNtNtCsaS3fY9lrCeZ_7nanocld12repositories5cargo14inspect_by_key0B7_
FNDA:4,_RNvNtNtCsaS3fY9lrCeZ_7nanocld12repositories5cargo18count_by_namespace
FNF:22
FNH:21
DA:41,3
DA:42,3
DA:43,3
DA:44,3
DA:45,3
DA:46,3
DA:48,3
DA:49,3
DA:50,3
DA:51,3
DA:52,3
DA:53,3
DA:54,3
DA:55,3
DA:56,3
DA:57,3
DA:58,3
DA:93,4
DA:94,4
DA:95,4
DA:96,4
DA:97,4
DA:98,4
DA:99,4
DA:100,4
DA:101,4
DA:102,4
DA:103,4
DA:104,4
DA:105,4
DA:106,4
DA:107,0
DA:108,0
DA:109,0
DA:110,0
DA:111,4
DA:112,4
DA:113,4
DA:114,4
DA:116,5
DA:118,4
DA:119,4
DA:120,4
DA:121,4
DA:122,4
DA:123,4
DA:124,4
DA:125,4
DA:127,4
DA:128,4
DA:129,4
DA:130,4
DA:131,4
DA:132,4
DA:133,4
DA:134,4
DA:135,4
DA:136,4
DA:138,4
DA:139,4
DA:140,4
DA:141,4
DA:142,4
DA:143,4
DA:144,4
DA:145,4
DA:146,4
DA:147,4
DA:170,4
DA:171,4
DA:172,4
DA:173,4
DA:174,4
DA:175,4
DA:176,4
DA:177,4
DA:179,4
DA:180,4
DA:181,4
DA:182,4
DA:183,4
DA:184,4
DA:185,4
DA:186,4
DA:187,4
DA:188,4
DA:190,4
DA:191,4
DA:214,10
DA:215,10
DA:216,10
DA:217,10
DA:218,10
DA:219,10
DA:220,10
DA:221,10
DA:223,10
DA:224,10
DA:225,10
DA:226,10
DA:227,10
DA:228,10
DA:229,7
DA:230,10
DA:231,11
DA:232,10
DA:234,7
DA:235,10
DA:269,3
DA:270,3
DA:271,3
DA:272,3
DA:273,3
DA:274,3
DA:275,3
DA:276,3
DA:277,3
DA:278,3
DA:279,3
DA:280,3
DA:282,3
DA:283,3
DA:285,3
DA:286,3
DA:287,3
DA:288,3
DA:289,3
DA:290,3
DA:291,3
DA:292,3
DA:293,3
DA:294,3
DA:295,3
DA:296,3
DA:297,3
DA:298,3
DA:299,3
DA:300,3
DA:302,3
DA:303,3
DA:304,3
DA:305,3
DA:306,3
DA:307,3
DA:308,3
DA:309,3
DA:310,3
DA:311,3
DA:335,4
DA:336,4
DA:337,4
DA:338,4
DA:339,4
DA:340,4
DA:341,4
DA:342,4
DA:344,4
DA:345,4
DA:346,4
DA:347,4
DA:348,4
DA:349,4
DA:350,4
DA:351,4
DA:352,4
DA:353,4
DA:354,4
DA:356,4
DA:357,4
DA:359,65
DA:360,65
DA:361,65
DA:362,65
DA:363,65
DA:364,65
DA:365,65
DA:366,65
DA:367,65
DA:368,65
DA:369,65
DA:370,65
DA:371,65
DA:372,65
DA:373,65
DA:374,65
DA:375,65
DA:376,65
DA:377,74
DA:378,65
DA:380,65
DA:381,65
DA:382,0
DA:383,0
DA:384,65
DA:386,65
DA:387,65
DA:388,65
DA:389,65
DA:390,65
DA:391,65
DA:392,65
DA:393,65
DA:394,65
DA:395,65
DA:396,65
DA:397,65
DA:398,65
DA:399,65
DA:400,65
DA:401,65
DA:402,65
DA:403,65
DA:404,65
DA:405,65
BRF:0
BRH:0
LF:237
LH:229
end_of_record
SF:/home/leone/Documents/next-hat/nanocl/bin/nanocld/src/repositories/cargo_config.rs
FN:130,_RNCNCNvNtNtCsaS3fY9lrCeZ_7nanocld12repositories12cargo_config11find_by_key0s_0B9_
FN:212,_RNCNCNvNtNtCsaS3fY9lrCeZ_7nanocld12repositories12cargo_config13list_by_cargo0s_0B9_
FN:199,_RNCNCNvNtNtCsaS3fY9lrCeZ_7nanocld12repositories12cargo_config13list_by_cargo00B9_
FN:167,_RNvNtNtCsaS3fY9lrCeZ_7nanocld12repositories12cargo_config19delete_by_cargo_key
FN:214,_RNCNCNCNvNtNtCsaS3fY9lrCeZ_7nanocld12repositories12cargo_config13list_by_cargo0s_00Bb_
FN:190,_RNvNtNtCsaS3fY9lrCeZ_7nanocld12repositories12cargo_config13list_by_cargo
FN:109,_RNvNtNtCsaS3fY9lrCeZ_7nanocld12repositories12cargo_config11find_by_key
FN:64,_RNCNCNvNtNtCsaS3fY9lrCeZ_7nanocld12repositories12cargo_config6create0s_0B9_
FN:170,_RNCNvNtNtCsaS3fY9lrCeZ_7nanocld12repositories12cargo_config19delete_by_cargo_key0B7_
FN:40,_RNvNtNtCsaS3fY9lrCeZ_7nanocld12repositories12cargo_config6create
FN:118,_RNCNCNvNtNtCsaS3fY9lrCeZ_7nanocld12repositories12cargo_config11find_by_key00B9_
FN:193,_RNCNvNtNtCsaS3fY9lrCeZ_7nanocld12repositories12cargo_config13list_by_cargo0B7_
FN:112,_RNCNvNtNtCsaS3fY9lrCeZ_7nanocld12repositories12cargo_config11find_by_key0B7_
FN:176,_RNCNCNvNtNtCsaS3fY9lrCeZ_7nanocld12repositories12cargo_config19delete_by_cargo_key00B9_
FN:45,_RNCNvNtNtCsaS3fY9lrCeZ_7nanocld12repositories12cargo_config6create0B7_
FN:57,_RNCNCNvNtNtCsaS3fY9lrCeZ_7nanocld12repositories12cargo_config6create00B9_
FNDA:0,_RNCNCNvNtNtCsaS3fY9lrCeZ_7nanocld12repositories12cargo_config11find_by_key0s_0B9_
FNDA:2,_RNCNCNvNtNtCsaS3fY9lrCeZ_7nanocld12repositories12cargo_config13list_by_cargo0s_0B9_
FNDA:1,_RNCNCNvNtNtCsaS3fY9lrCeZ_7nanocld12repositories12cargo_config13list_by_cargo00B9_
FNDA:4,_RNvNtNtCsaS3fY9lrCeZ_7nanocld12repositories12cargo_config19delete_by_cargo_key
FNDA:0,_RNCNCNCNvNtNtCsaS3fY9lrCeZ_7nanocld12repositories12cargo_config13list_by_cargo0s_00Bb_
FNDA:1,_RNvNtNtCsaS3fY9lrCeZ_7nanocld12repositories12cargo_config13list_by_cargo
FNDA:5,_RNvNtNtCsaS3fY9lrCeZ_7nanocld12repositories12cargo_config11find_by_key
FNDA:7,_RNCNCNvNtNtCsaS3fY9lrCeZ_7nanocld12repositories12cargo_config6create0s_0B9_
FNDA:4,_RNCNvNtNtCsaS3fY9lrCeZ_7nanocld12repositories12cargo_config19delete_by_cargo_key0B7_
FNDA:7,_RNvNtNtCsaS3fY9lrCeZ_7nanocld12repositories12cargo_config6create
FNDA:5,_RNCNCNvNtNtCsaS3fY9lrCeZ_7nanocld12repositories12cargo_config11find_by_key00B9_
FNDA:1,_RNCNvNtNtCsaS3fY9lrCeZ_7nanocld12repositories12cargo_config13list_by_cargo0B7_
FNDA:5,_RNCNvNtNtCsaS3fY9lrCeZ_7nanocld12repositories12cargo_config11find_by_key0B7_
FNDA:4,_RNCNCNvNtNtCsaS3fY9lrCeZ_7nanocld12repositories12cargo_config19delete_by_cargo_key00B9_
FNDA:7,_RNCNvNtNtCsaS3fY9lrCeZ_7nanocld12repositories12cargo_config6create0B7_
FNDA:0,_RNCNCNvNtNtCsaS3fY9lrCeZ_7nanocld12repositories12cargo_config6create00B9_
FNF:16
FNH:13
DA:40,7
DA:41,7
DA:42,7
DA:43,7
DA:44,7
DA:45,7
DA:46,7
DA:47,7
DA:48,7
DA:49,7
DA:50,7
DA:51,7
DA:52,7
DA:53,7
DA:54,7
DA:55,7
DA:56,7
DA:57,7
DA:58,0
DA:59,0
DA:60,0
DA:61,0
DA:62,7
DA:64,7
DA:65,7
DA:66,7
DA:67,7
DA:68,7
DA:69,7
DA:70,7
DA:71,7
DA:72,8
DA:73,7
DA:75,7
DA:76,7
DA:77,7
DA:78,7
DA:79,7
DA:80,7
DA:81,7
DA:82,7
DA:83,7
DA:84,7
DA:85,7
DA:86,7
DA:109,5
DA:110,5
DA:111,5
DA:112,5
DA:113,5
DA:114,5
DA:115,5
DA:116,5
DA:118,5
DA:119,5
DA:120,5
DA:121,5
DA:122,5
DA:123,5
DA:124,5
DA:125,5
DA:126,5
DA:127,5
DA:129,5
DA:130,5
DA:131,0
DA:132,0
DA:133,5
DA:135,5
DA:136,5
DA:137,5
DA:138,5
DA:139,5
DA:140,5
DA:141,5
DA:142,5
DA:143,5
DA:144,5
DA:167,4
DA:168,4
DA:169,4
DA:170,4
DA:171,4
DA:172,4
DA:173,4
DA:174,4
DA:176,4
DA:177,4
DA:178,4
DA:179,4
DA:180,4
DA:181,4
DA:182,4
DA:183,4
DA:184,4
DA:185,4
DA:187,4
DA:188,4
DA:190,1
DA:191,1
DA:192,1
DA:193,1
DA:194,1
DA:195,1
DA:196,1
DA:197,1
DA:199,1
DA:200,1
DA:201,1
DA:202,1
DA:203,1
DA:204,1
DA:205,1
DA:206,1
DA:207,1
DA:208,1
DA:210,1
DA:211,1
DA:212,2
DA:213,2
DA:214,2
DA:215,0
DA:216,0
DA:217,2
DA:219,2
DA:220,2
DA:221,2
DA:222,2
DA:223,2
DA:224,2
DA:225,2
DA:226,2
DA:227,2
DA:228,2
DA:229,1
DA:231,1
DA:232,1
BRF:0
BRH:0
LF:157
LH:143
end_of_record
SF:/home/leone/Documents/next-hat/nanocl/bin/nanocld/src/repositories/error.rs
FN:29,_RNCNvNtNtCsaS3fY9lrCeZ_7nanocld12repositories5error8db_error0B7_
FN:25,_RNvNtNtCsaS3fY9lrCeZ_7nanocld12repositories5error8db_error
FN:80,_RNvNtNtCsaS3fY9lrCeZ_7nanocld12repositories5error17db_blocking_error
FNDA:6,_RNCNvNtNtCsaS3fY9lrCeZ_7nanocld12repositories5error8db_error0B7_
FNDA:208,_RNvNtNtCsaS3fY9lrCeZ_7nanocld12repositories5error8db_error
FNDA:6,_RNvNtNtCsaS3fY9lrCeZ_7nanocld12repositories5error17db_blocking_error
FNF:3
FNH:3
DA:25,208
DA:26,208
DA:27,208
DA:28,208
DA:29,6
DA:30,6
DA:31,6
DA:32,6
DA:33,6
DA:34,6
DA:35,6
DA:36,0
DA:37,0
DA:39,0
DA:40,0
DA:41,0
DA:42,0
DA:43,0
DA:44,0
DA:45,0
DA:47,0
DA:49,6
DA:50,6
DA:51,6
DA:52,6
DA:53,0
DA:54,0
DA:55,0
DA:56,0
DA:57,0
DA:58,0
DA:59,0
DA:60,0
DA:61,0
DA:63,6
DA:64,208
DA:80,6
DA:81,6
DA:82,6
DA:83,6
DA:84,6
DA:85,0
DA:86,0
DA:87,0
DA:88,0
DA:90,6
BRF:0
BRH:0
LF:46
LH:23
end_of_record
SF:/home/leone/Documents/next-hat/nanocl/bin/nanocld/src/repositories/metric.rs
FN:19,_RNCNCNvNtNtCsaS3fY9lrCeZ_7nanocld12repositories6metric6create00B9_
FN:10,_RNvNtNtCsaS3fY9lrCeZ_7nanocld12repositories6metric6create
FN:13,_RNCNvNtNtCsaS3fY9lrCeZ_7nanocld12repositories6metric6create0B7_
FNDA:0,_RNCNCNvNtNtCsaS3fY9lrCeZ_7nanocld12repositories6metric6create00B9_
FNDA:0,_RNvNtNtCsaS3fY9lrCeZ_7nanocld12repositories6metric6create
FNDA:0,_RNCNvNtNtCsaS3fY9lrCeZ_7nanocld12repositories6metric6create0B7_
FNF:3
FNH:0
DA:10,0
DA:11,0
DA:12,0
DA:13,0
DA:14,0
DA:15,0
DA:16,0
DA:17,0
DA:19,0
DA:20,0
DA:21,0
DA:22,0
DA:23,0
DA:24,0
DA:25,0
DA:26,0
DA:27,0
DA:28,0
DA:30,0
DA:31,0
BRF:0
BRH:0
LF:23
LH:0
end_of_record
SF:/home/leone/Documents/next-hat/nanocl/bin/nanocld/src/repositories/namespace.rs
FN:53,_RNCNCNvNtNtCsaS3fY9lrCeZ_7nanocld12repositories9namespace6create00B9_
FN:99,_RNCNCNvNtNtCsaS3fY9lrCeZ_7nanocld12repositories9namespace4list00B9_
FN:44,_RNvNtNtCsaS3fY9lrCeZ_7nanocld12repositories9namespace6create
FN:95,_RNCNvNtNtCsaS3fY9lrCeZ_7nanocld12repositories9namespace4list0B7_
FN:226,_RNvNtNtCsaS3fY9lrCeZ_7nanocld12repositories9namespace13exist_by_name
FN:138,_RNCNvNtNtCsaS3fY9lrCeZ_7nanocld12repositories9namespace14delete_by_name0B7_
FN:229,_RNCNvNtNtCsaS3fY9lrCeZ_7nanocld12repositories9namespace13exist_by_name0B7_
FN:180,_RNvNtNtCsaS3fY9lrCeZ_7nanocld12repositories9namespace12find_by_name
FN:189,_RNCNCNvNtNtCsaS3fY9lrCeZ_7nanocld12repositories9namespace12find_by_name00B9_
FN:183,_RNCNvNtNtCsaS3fY9lrCeZ_7nanocld12repositories9namespace12find_by_name0B7_
FN:93,_RNvNtNtCsaS3fY9lrCeZ_7nanocld12repositories9namespace4list
FN:235,_RNCNCNvNtNtCsaS3fY9lrCeZ_7nanocld12repositories9namespace13exist_by_name00B9_
FN:135,_RNvNtNtCsaS3fY9lrCeZ_7nanocld12repositories9namespace14delete_by_name
FN:144,_RNCNCNvNtNtCsaS3fY9lrCeZ_7nanocld12repositories9namespace14delete_by_name00B9_
FN:47,_RNCNvNtNtCsaS3fY9lrCeZ_7nanocld12repositories9namespace6create0B7_
FNDA:1,_RNCNCNvNtNtCsaS3fY9lrCeZ_7nanocld12repositories9namespace6create00B9_
FNDA:1,_RNCNCNvNtNtCsaS3fY9lrCeZ_7nanocld12repositories9namespace4list00B9_
FNDA:1,_RNvNtNtCsaS3fY9lrCeZ_7nanocld12repositories9namespace6create
FNDA:1,_RNCNvNtNtCsaS3fY9lrCeZ_7nanocld12repositories9namespace4list0B7_
FNDA:15,_RNvNtNtCsaS3fY9lrCeZ_7nanocld12repositories9namespace13exist_by_name
FNDA:1,_RNCNvNtNtCsaS3fY9lrCeZ_7nanocld12repositories9namespace14delete_by_name0B7_
FNDA:15,_RNCNvNtNtCsaS3fY9lrCeZ_7nanocld12repositories9namespace13exist_by_name0B7_
FNDA:7,_RNvNtNtCsaS3fY9lrCeZ_7nanocld12repositories9namespace12find_by_name
FNDA:7,_RNCNCNvNtNtCsaS3fY9lrCeZ_7nanocld12repositories9namespace12find_by_name00B9_
FNDA:7,_RNCNvNtNtCsaS3fY9lrCeZ_7nanocld12repositories9namespace12find_by_name0B7_
FNDA:1,_RNvNtNtCsaS3fY9lrCeZ_7nanocld12repositories9namespace4list
FNDA:15,_RNCNCNvNtNtCsaS3fY9lrCeZ_7nanocld12repositories9namespace13exist_by_name00B9_
FNDA:1,_RNvNtNtCsaS3fY9lrCeZ_7nanocld12repositories9namespace14delete_by_name
FNDA:1,_RNCNCNvNtNtCsaS3fY9lrCeZ_7nanocld12repositories9namespace14delete_by_name00B9_
FNDA:1,_RNCNvNtNtCsaS3fY9lrCeZ_7nanocld12repositories9namespace6create0B7_
FNF:15
FNH:15
DA:44,1
DA:45,1
DA:46,1
DA:47,1
DA:48,1
DA:49,1
DA:50,1
DA:51,1
DA:53,1
DA:54,1
DA:55,1
DA:56,1
DA:57,1
DA:58,1
DA:59,1
DA:60,1
DA:61,1
DA:62,1
DA:63,1
DA:64,1
DA:65,1
DA:66,1
DA:68,1
DA:69,1
DA:93,1
DA:94,1
DA:95,1
DA:96,1
DA:97,1
DA:98,1
DA:99,1
DA:100,1
DA:101,1
DA:102,1
DA:103,1
DA:104,1
DA:105,1
DA:106,1
DA:107,1
DA:109,1
DA:110,1
DA:135,1
DA:136,1
DA:137,1
DA:138,1
DA:139,1
DA:140,1
DA:141,1
DA:142,1
DA:144,1
DA:145,1
DA:146,1
DA:147,1
DA:148,1
DA:149,1
DA:150,1
DA:151,1
DA:152,1
DA:154,1
DA:155,1
DA:180,7
DA:181,7
DA:182,7
DA:183,7
DA:184,7
DA:185,7
DA:186,7
DA:187,7
DA:189,7
DA:190,7
DA:191,7
DA:192,7
DA:193,7
DA:194,7
DA:195,7
DA:196,7
DA:197,10
DA:198,7
DA:200,7
DA:201,7
DA:226,15
DA:227,15
DA:228,15
DA:229,15
DA:230,15
DA:231,15
DA:232,15
DA:233,15
DA:235,15
DA:236,15
DA:237,15
DA:238,15
DA:239,15
DA:240,15
DA:241,15
DA:242,15
DA:243,15
DA:244,16
DA:245,15
DA:247,15
DA:248,15
BRF:0
BRH:0
LF:116
LH:116
end_of_record
SF:/home/leone/Documents/next-hat/nanocl/bin/nanocld/src/repositories/node.rs
FN:57,_RNvNtNtCsaS3fY9lrCeZ_7nanocld12repositories4node20create_if_not_exists
FN:61,_RNCNvNtNtCsaS3fY9lrCeZ_7nanocld12repositories4node20create_if_not_exists0B7_
FN:13,_RNCNvNtNtCsaS3fY9lrCeZ_7nanocld12repositories4node6create0B7_
FN:88,_RNCNvNtNtCsaS3fY9lrCeZ_7nanocld12repositories4node11list_unless0B7_
FN:85,_RNvNtNtCsaS3fY9lrCeZ_7nanocld12repositories4node11list_unless
FN:93,_RNCNCNvNtNtCsaS3fY9lrCeZ_7nanocld12repositories4node11list_unless00B9_
FN:19,_RNCNCNvNtNtCsaS3fY9lrCeZ_7nanocld12repositories4node6create00B9_
FN:34,_RNvNtNtCsaS3fY9lrCeZ_7nanocld12repositories4node12find_by_name
FN:42,_RNCNCNvNtNtCsaS3fY9lrCeZ_7nanocld12repositories4node12find_by_name00B9_
FN:10,_RNvNtNtCsaS3fY9lrCeZ_7nanocld12repositories4node6create
FN:67,_RNCNvNtNtCsaS3fY9lrCeZ_7nanocld12repositories4node4list0B7_
FN:37,_RNCNvNtNtCsaS3fY9lrCeZ_7nanocld12repositories4node12find_by_name0B7_
FN:67,_RNvNtNtCsaS3fY9lrCeZ_7nanocld12repositories4node4list
FN:71,_RNCNCNvNtNtCsaS3fY9lrCeZ_7nanocld12repositories4node4list00B9_
FNDA:7,_RNvNtNtCsaS3fY9lrCeZ_7nanocld12repositories4node20create_if_not_exists
FNDA:7,_RNCNvNtNtCsaS3fY9lrCeZ_7nanocld12repositories4node20create_if_not_exists0B7_
FNDA:0,_RNCNvNtNtCsaS3fY9lrCeZ_7nanocld12repositories4node6create0B7_
FNDA:27,_RNCNvNtNtCsaS3fY9lrCeZ_7nanocld12repositories4node11list_unless0B7_
FNDA:27,_RNvNtNtCsaS3fY9lrCeZ_7nanocld12repositories4node11list_unless
FNDA:27,_RNCNCNvNtNtCsaS3fY9lrCeZ_7nanocld12repositories4node11list_unless00B9_
FNDA:0,_RNCNCNvNtNtCsaS3fY9lrCeZ_7nanocld12repositories4node6create00B9_
FNDA:7,_RNvNtNtCsaS3fY9lrCeZ_7nanocld12repositories4node12find_by_name
FNDA:7,_RNCNCNvNtNtCsaS3fY9lrCeZ_7nanocld12repositories4node12find_by_name00B9_
FNDA:0,_RNvNtNtCsaS3fY9lrCeZ_7nanocld12repositories4node6create
FNDA:0,_RNCNvNtNtCsaS3fY9lrCeZ_7nanocld12repositories4node4list0B7_
FNDA:7,_RNCNvNtNtCsaS3fY9lrCeZ_7nanocld12repositories4node12find_by_name0B7_
FNDA:0,_RNvNtNtCsaS3fY9lrCeZ_7nanocld12repositories4node4list
FNDA:0,_RNCNCNvNtNtCsaS3fY9lrCeZ_7nanocld12repositories4node4list00B9_
FNF:14
FNH:8
DA:10,0
DA:11,0
DA:12,0
DA:13,0
DA:14,0
DA:15,0
DA:16,0
DA:17,0
DA:19,0
DA:20,0
DA:21,0
DA:22,0
DA:23,0
DA:24,0
DA:26,0
DA:27,0
DA:28,0
DA:29,0
DA:31,0
DA:32,0
DA:34,7
DA:35,7
DA:36,7
DA:37,7
DA:38,7
DA:39,7
DA:40,7
DA:41,7
DA:42,7
DA:43,7
DA:44,7
DA:45,7
DA:46,7
DA:47,7
DA:49,7
DA:50,7
DA:51,7
DA:52,7
DA:54,7
DA:55,7
DA:57,7
DA:58,7
DA:59,7
DA:60,7
DA:61,7
DA:62,0
DA:63,7
DA:65,7
DA:67,0
DA:68,0
DA:69,0
DA:70,0
DA:71,0
DA:72,0
DA:73,0
DA:74,0
DA:75,0
DA:77,0
DA:78,0
DA:79,0
DA:80,0
DA:82,0
DA:83,0
DA:85,27
DA:86,27
DA:87,27
DA:88,27
DA:89,27
DA:90,27
DA:91,27
DA:92,27
DA:93,27
DA:94,27
DA:95,27
DA:96,27
DA:97,27
DA:98,27
DA:100,27
DA:101,27
DA:102,27
DA:103,27
DA:105,27
DA:106,27
BRF:0
BRH:0
LF:95
LH:53
end_of_record
SF:/home/leone/Documents/next-hat/nanocl/bin/nanocld/src/repositories/resource.rs
FN:47,_RNvNtNtCsaS3fY9lrCeZ_7nanocld12repositories8resource6create
FN:257,_RNCNCNvNtNtCsaS3fY9lrCeZ_7nanocld12repositories8resource14inspect_by_key00B9_
FN:309,_RNCNvNtNtCsaS3fY9lrCeZ_7nanocld12repositories8resource5patch0B7_
FN:71,_RNCNCNvNtNtCsaS3fY9lrCeZ_7nanocld12repositories8resource6create00B9_
FN:360,_RNCNvNtNtCsaS3fY9lrCeZ_7nanocld12repositories8resource15create_or_patch0B7_
FN:332,_RNCNCNvNtNtCsaS3fY9lrCeZ_7nanocld12repositories8resource5patch00B9_
FN:166,_RNCNvNtNtCsaS3fY9lrCeZ_7nanocld12repositories8resource4find0B7_
FN:121,_RNCNvNtNtCsaS3fY9lrCeZ_7nanocld12repositories8resource13delete_by_key0B7_
FN:247,_RNvNtNtCsaS3fY9lrCeZ_7nanocld12repositories8resource14inspect_by_key
FN:184,_RNCNCNCNvNtNtCsaS3fY9lrCeZ_7nanocld12repositories8resource4find000Bb_
FN:163,_RNvNtNtCsaS3fY9lrCeZ_7nanocld12repositories8resource4find
FN:356,_RNvNtNtCsaS3fY9lrCeZ_7nanocld12repositories8resource15create_or_patch
FN:127,_RNCNCNvNtNtCsaS3fY9lrCeZ_7nanocld12repositories8resource13delete_by_key00B9_
FN:207,_RNCNCNvNtNtCsaS3fY9lrCeZ_7nanocld12repositories8resource4find0s_0B9_
FN:50,_RNCNvNtNtCsaS3fY9lrCeZ_7nanocld12repositories8resource6create0B7_
FN:250,_RNCNvNtNtCsaS3fY9lrCeZ_7nanocld12repositories8resource14inspect_by_key0B7_
FN:118,_RNvNtNtCsaS3fY9lrCeZ_7nanocld12repositories8resource13delete_by_key
FN:306,_RNvNtNtCsaS3fY9lrCeZ_7nanocld12repositories8resource5patch
FN:172,_RNCNCNvNtNtCsaS3fY9lrCeZ_7nanocld12repositories8resource4find00B9_
FNDA:3,_RNvNtNtCsaS3fY9lrCeZ_7nanocld12repositories8resource6create
FNDA:13,_RNCNCNvNtNtCsaS3fY9lrCeZ_7nanocld12repositories8resource14inspect_by_key00B9_
FNDA:2,_RNCNvNtNtCsaS3fY9lrCeZ_7nanocld12repositories8resource5patch0B7_
FNDA:3,_RNCNCNvNtNtCsaS3fY9lrCeZ_7nanocld12repositories8resource6create00B9_
FNDA:3,_RNCNvNtNtCsaS3fY9lrCeZ_7nanocld12repositories8resource15create_or_patch0B7_
FNDA:2,_RNCNCNvNtNtCsaS3fY9lrCeZ_7nanocld12repositories8resource5patch00B9_
FNDA:1,_RNCNvNtNtCsaS3fY9lrCeZ_7nanocld12repositories8resource4find0B7_
FNDA:3,_RNCNvNtNtCsaS3fY9lrCeZ_7nanocld12repositories8resource13delete_by_key0B7_
FNDA:13,_RNvNtNtCsaS3fY9lrCeZ_7nanocld12repositories8resource14inspect_by_key
FNDA:0,_RNCNCNCNvNtNtCsaS3fY9lrCeZ_7nanocld12repositories8resource4find000Bb_
FNDA:1,_RNvNtNtCsaS3fY9lrCeZ_7nanocld12repositories8resource4find
FNDA:3,_RNvNtNtCsaS3fY9lrCeZ_7nanocld12repositories8resource15create_or_patch
FNDA:3,_RNCNCNvNtNtCsaS3fY9lrCeZ_7nanocld12repositories8resource13delete_by_key00B9_
FNDA:1,_RNCNCNvNtNtCsaS3fY9lrCeZ_7nanocld12repositories8resource4find0s_0B9_
FNDA:3,_RNCNvNtNtCsaS3fY9lrCeZ_7nanocld12repositories8resource6create0B7_
FNDA:13,_RNCNvNtNtCsaS3fY9lrCeZ_7nanocld12repositories8resource14inspect_by_key0B7_
FNDA:3,_RNvNtNtCsaS3fY9lrCeZ_7nanocld12repositories8resource13delete_by_key
FNDA:2,_RNvNtNtCsaS3fY9lrCeZ_7nanocld12repositories8resource5patch
FNDA:1,_RNCNCNvNtNtCsaS3fY9lrCeZ_7nanocld12repositories8resource4find00B9_
FNF:19
FNH:18
DA:47,3
DA:48,3
DA:49,3
DA:50,3
DA:51,3
DA:52,3
DA:53,3
DA:54,3
DA:55,3
DA:56,3
DA:57,3
DA:58,3
DA:59,3
DA:60,3
DA:62,3
DA:64,3
DA:65,3
DA:66,3
DA:67,3
DA:68,3
DA:69,3
DA:71,3
DA:72,3
DA:73,3
DA:74,3
DA:75,3
DA:76,3
DA:77,3
DA:78,3
DA:79,3
DA:80,3
DA:82,3
DA:83,3
DA:84,3
DA:85,3
DA:86,3
DA:87,3
DA:88,3
DA:89,3
DA:90,3
DA:91,3
DA:92,3
DA:93,3
DA:118,3
DA:119,3
DA:120,3
DA:121,3
DA:122,3
DA:123,3
DA:124,3
DA:125,3
DA:127,3
DA:128,3
DA:129,3
DA:130,3
DA:131,3
DA:132,3
DA:133,3
DA:134,3
DA:135,3
DA:136,3
DA:138,3
DA:139,3
DA:163,1
DA:164,1
DA:165,1
DA:166,1
DA:167,1
DA:168,1
DA:169,1
DA:170,1
DA:171,1
DA:172,1
DA:173,1
DA:174,1
DA:175,1
DA:176,1
DA:177,1
DA:178,1
DA:179,1
DA:180,0
DA:181,1
DA:182,1
DA:183,0
DA:184,0
DA:185,0
DA:186,0
DA:187,0
DA:188,0
DA:189,1
DA:191,1
DA:193,0
DA:194,0
DA:195,0
DA:198,1
DA:200,1
DA:201,1
DA:202,1
DA:203,1
DA:205,1
DA:206,1
DA:207,1
DA:208,1
DA:209,1
DA:210,1
DA:211,1
DA:212,1
DA:213,1
DA:214,1
DA:215,1
DA:216,1
DA:217,1
DA:218,1
DA:219,1
DA:220,1
DA:221,1
DA:222,1
DA:247,13
DA:248,13
DA:249,13
DA:250,13
DA:251,13
DA:252,13
DA:253,13
DA:254,13
DA:255,13
DA:257,13
DA:258,13
DA:259,13
DA:260,13
DA:261,13
DA:262,13
DA:263,13
DA:264,11
DA:265,13
DA:266,15
DA:267,13
DA:269,11
DA:270,11
DA:271,11
DA:272,11
DA:273,11
DA:274,11
DA:275,11
DA:276,11
DA:277,11
DA:278,11
DA:279,11
DA:280,13
DA:306,2
DA:307,2
DA:308,2
DA:309,2
DA:310,2
DA:311,2
DA:312,2
DA:313,2
DA:314,2
DA:315,2
DA:317,2
DA:318,2
DA:319,2
DA:320,2
DA:321,2
DA:322,2
DA:323,2
DA:325,2
DA:327,2
DA:328,2
DA:329,2
DA:330,2
DA:331,2
DA:332,2
DA:333,2
DA:334,2
DA:335,2
DA:336,2
DA:337,2
DA:338,2
DA:339,2
DA:340,2
DA:341,2
DA:342,2
DA:344,2
DA:345,2
DA:346,2
DA:347,2
DA:348,2
DA:349,2
DA:350,2
DA:351,2
DA:352,2
DA:353,2
DA:354,2
DA:356,3
DA:357,3
DA:358,3
DA:359,3
DA:360,3
DA:361,3
DA:362,2
DA:363,4
DA:364,3
BRF:0
BRH:0
LF:222
LH:210
end_of_record
SF:/home/leone/Documents/next-hat/nanocl/bin/nanocld/src/repositories/resource_config.rs
FN:48,_RNCNCNvNtNtCsaS3fY9lrCeZ_7nanocld12repositories15resource_config6create00B9_
FN:116,_RNCNCNvNtNtCsaS3fY9lrCeZ_7nanocld12repositories15resource_config16list_by_resource00B9_
FN:107,_RNvNtNtCsaS3fY9lrCeZ_7nanocld12repositories15resource_config16list_by_resource
FN:135,_RNvNtNtCsaS3fY9lrCeZ_7nanocld12repositories15resource_config11find_by_key
FN:88,_RNCNvNtNtCsaS3fY9lrCeZ_7nanocld12repositories15resource_config22delete_by_resource_key0B7_
FN:110,_RNCNvNtNtCsaS3fY9lrCeZ_7nanocld12repositories15resource_config16list_by_resource0B7_
FN:85,_RNvNtNtCsaS3fY9lrCeZ_7nanocld12repositories15resource_config22delete_by_resource_key
FN:138,_RNCNvNtNtCsaS3fY9lrCeZ_7nanocld12repositories15resource_config11find_by_key0B7_
FN:42,_RNCNvNtNtCsaS3fY9lrCeZ_7nanocld12repositories15resource_config6create0B7_
FN:144,_RNCNCNvNtNtCsaS3fY9lrCeZ_7nanocld12repositories15resource_config11find_by_key00B9_
FN:39,_RNvNtNtCsaS3fY9lrCeZ_7nanocld12repositories15resource_config6create
FN:94,_RNCNCNvNtNtCsaS3fY9lrCeZ_7nanocld12repositories15resource_config22delete_by_resource_key00B9_
FNDA:5,_RNCNCNvNtNtCsaS3fY9lrCeZ_7nanocld12repositories15resource_config6create00B9_
FNDA:1,_RNCNCNvNtNtCsaS3fY9lrCeZ_7nanocld12repositories15resource_config16list_by_resource00B9_
FNDA:1,_RNvNtNtCsaS3fY9lrCeZ_7nanocld12repositories15resource_config16list_by_resource
FNDA:0,_RNvNtNtCsaS3fY9lrCeZ_7nanocld12repositories15resource_config11find_by_key
FNDA:3,_RNCNvNtNtCsaS3fY9lrCeZ_7nanocld12repositories15resource_config22delete_by_resource_key0B7_
FNDA:1,_RNCNvNtNtCsaS3fY9lrCeZ_7nanocld12repositories15resource_config16list_by_resource0B7_
FNDA:3,_RNvNtNtCsaS3fY9lrCeZ_7nanocld12repositories15resource_config22delete_by_resource_key
FNDA:0,_RNCNvNtNtCsaS3fY9lrCeZ_7nanocld12repositories15resource_config11find_by_key0B7_
FNDA:5,_RNCNvNtNtCsaS3fY9lrCeZ_7nanocld12repositories15resource_config6create0B7_
FNDA:0,_RNCNCNvNtNtCsaS3fY9lrCeZ_7nanocld12repositories15resource_config11find_by_key00B9_
FNDA:5,_RNvNtNtCsaS3fY9lrCeZ_7nanocld12repositories15resource_config6create
FNDA:3,_RNCNCNvNtNtCsaS3fY9lrCeZ_7nanocld12repositories15resource_config22delete_by_resource_key00B9_
FNF:12
FNH:9
DA:39,5
DA:40,5
DA:41,5
DA:42,5
DA:43,5
DA:44,5
DA:45,5
DA:46,5
DA:48,5
DA:49,5
DA:50,5
DA:51,5
DA:52,5
DA:53,5
DA:54,5
DA:55,5
DA:56,5
DA:57,5
DA:59,5
DA:60,5
DA:85,3
DA:86,3
DA:87,3
DA:88,3
DA:89,3
DA:90,3
DA:91,3
DA:92,3
DA:93,3
DA:94,3
DA:95,3
DA:96,3
DA:97,3
DA:98,3
DA:99,3
DA:100,3
DA:101,3
DA:102,3
DA:104,3
DA:105,3
DA:107,1
DA:108,1
DA:109,1
DA:110,1
DA:111,1
DA:112,1
DA:113,1
DA:114,1
DA:116,1
DA:117,1
DA:118,1
DA:119,1
DA:120,1
DA:121,1
DA:122,1
DA:123,1
DA:124,1
DA:125,1
DA:127,1
DA:128,1
DA:129,1
DA:130,1
DA:131,1
DA:132,1
DA:133,1
DA:135,0
DA:136,0
DA:137,0
DA:138,0
DA:139,0
DA:140,0
DA:141,0
DA:142,0
DA:144,0
DA:145,0
DA:146,0
DA:147,0
DA:148,0
DA:149,0
DA:150,0
DA:151,0
DA:152,0
DA:153,0
DA:155,0
DA:156,0
BRF:0
BRH:0
LF:97
LH:74
end_of_record
SF:/home/leone/Documents/next-hat/nanocl/bin/nanocld/src/repositories/resource_kind.rs
FN:25,_RNCNCNvNtNtCsaS3fY9lrCeZ_7nanocld12repositories13resource_kind14create_version00B9_
FN:63,_RNvNtNtCsaS3fY9lrCeZ_7nanocld12repositories13resource_kind12find_by_name
FN:12,_RNvNtNtCsaS3fY9lrCeZ_7nanocld12repositories13resource_kind14create_version
FN:49,_RNCNCNvNtNtCsaS3fY9lrCeZ_7nanocld12repositories13resource_kind11get_version00B9_
FN:109,_RNvNtNtCsaS3fY9lrCeZ_7nanocld12repositories13resource_kind14delete_version
FN:117,_RNCNCNvNtNtCsaS3fY9lrCeZ_7nanocld12repositories13resource_kind14delete_version00B9_
FN:39,_RNvNtNtCsaS3fY9lrCeZ_7nanocld12repositories13resource_kind11get_version
FN:132,_RNvNtNtCsaS3fY9lrCeZ_7nanocld12repositories13resource_kind6delete
FN:71,_RNCNCNvNtNtCsaS3fY9lrCeZ_7nanocld12repositories13resource_kind12find_by_name00B9_
FN:15,_RNCNvNtNtCsaS3fY9lrCeZ_7nanocld12repositories13resource_kind14create_version0B7_
FN:43,_RNCNvNtNtCsaS3fY9lrCeZ_7nanocld12repositories13resource_kind11get_version0B7_
FN:95,_RNCNCNvNtNtCsaS3fY9lrCeZ_7nanocld12repositories13resource_kind6create00B9_
FN:132,_RNCNvNtNtCsaS3fY9lrCeZ_7nanocld12repositories13resource_kind6delete0B7_
FN:84,_RNvNtNtCsaS3fY9lrCeZ_7nanocld12repositories13resource_kind6create
FN:137,_RNCNCNvNtNtCsaS3fY9lrCeZ_7nanocld12repositories13resource_kind6delete00B9_
FN:112,_RNCNvNtNtCsaS3fY9lrCeZ_7nanocld12repositories13resource_kind14delete_version0B7_
FN:66,_RNCNvNtNtCsaS3fY9lrCeZ_7nanocld12repositories13resource_kind12find_by_name0B7_
FN:87,_RNCNvNtNtCsaS3fY9lrCeZ_7nanocld12repositories13resource_kind6create0B7_
FNDA:2,_RNCNCNvNtNtCsaS3fY9lrCeZ_7nanocld12repositories13resource_kind14create_version00B9_
FNDA:2,_RNvNtNtCsaS3fY9lrCeZ_7nanocld12repositories13resource_kind12find_by_name
FNDA:2,_RNvNtNtCsaS3fY9lrCeZ_7nanocld12repositories13resource_kind14create_version
FNDA:0,_RNCNCNvNtNtCsaS3fY9lrCeZ_7nanocld12repositories13resource_kind11get_version00B9_
FNDA:1,_RNvNtNtCsaS3fY9lrCeZ_7nanocld12repositories13resource_kind14delete_version
FNDA:1,_RNCNCNvNtNtCsaS3fY9lrCeZ_7nanocld12repositories13resource_kind14delete_version00B9_
FNDA:0,_RNvNtNtCsaS3fY9lrCeZ_7nanocld12repositories13resource_kind11get_version
FNDA:1,_RNvNtNtCsaS3fY9lrCeZ_7nanocld12repositories13resource_kind6delete
FNDA:2,_RNCNCNvNtNtCsaS3fY9lrCeZ_7nanocld12repositories13resource_kind12find_by_name00B9_
FNDA:2,_RNCNvNtNtCsaS3fY9lrCeZ_7nanocld12repositories13resource_kind14create_version0B7_
FNDA:0,_RNCNvNtNtCsaS3fY9lrCeZ_7nanocld12repositories13resource_kind11get_version0B7_
FNDA:1,_RNCNCNvNtNtCsaS3fY9lrCeZ_7nanocld12repositories13resource_kind6create00B9_
FNDA:1,_RNCNvNtNtCsaS3fY9lrCeZ_7nanocld12repositories13resource_kind6delete0B7_
FNDA:1,_RNvNtNtCsaS3fY9lrCeZ_7nanocld12repositories13resource_kind6create
FNDA:1,_RNCNCNvNtNtCsaS3fY9lrCeZ_7nanocld12repositories13resource_kind6delete00B9_
FNDA:1,_RNCNvNtNtCsaS3fY9lrCeZ_7nanocld12repositories13resource_kind14delete_version0B7_
FNDA:2,_RNCNvNtNtCsaS3fY9lrCeZ_7nanocld12repositories13resource_kind12find_by_name0B7_
FNDA:1,_RNCNvNtNtCsaS3fY9lrCeZ_7nanocld12repositories13resource_kind6create0B7_
FNF:18
FNH:15
DA:12,2
DA:13,2
DA:14,2
DA:15,2
DA:16,2
DA:17,2
DA:18,2
DA:19,2
DA:20,2
DA:21,2
DA:22,2
DA:23,2
DA:24,2
DA:25,2
DA:26,2
DA:27,2
DA:28,2
DA:29,2
DA:30,2
DA:31,2
DA:32,2
DA:33,2
DA:34,2
DA:36,2
DA:37,2
DA:39,0
DA:40,0
DA:41,0
DA:42,0
DA:43,0
DA:44,0
DA:45,0
DA:46,0
DA:47,0
DA:48,0
DA:49,0
DA:50,0
DA:51,0
DA:52,0
DA:53,0
DA:54,0
DA:55,0
DA:56,0
DA:57,0
DA:58,0
DA:60,0
DA:61,0
DA:63,2
DA:64,2
DA:65,2
DA:66,2
DA:67,2
DA:68,2
DA:69,2
DA:70,2
DA:71,2
DA:72,2
DA:73,2
DA:74,2
DA:75,2
DA:76,2
DA:77,2
DA:78,3
DA:79,2
DA:81,1
DA:82,2
DA:84,1
DA:85,1
DA:86,1
DA:87,1
DA:88,1
DA:89,1
DA:90,1
DA:91,1
DA:92,1
DA:93,1
DA:94,1
DA:95,1
DA:96,1
DA:97,1
DA:98,1
DA:99,1
DA:100,1
DA:101,1
DA:102,1
DA:103,1
DA:104,1
DA:106,1
DA:107,1
DA:109,1
DA:110,1
DA:111,1
DA:112,1
DA:113,1
DA:114,1
DA:115,1
DA:116,1
DA:117,1
DA:118,1
DA:119,1
DA:120,1
DA:121,1
DA:122,1
DA:123,1
DA:124,1
DA:125,1
DA:126,1
DA:127,1
DA:129,1
DA:130,1
DA:132,1
DA:133,1
DA:134,1
DA:135,1
DA:136,1
DA:137,1
DA:138,1
DA:139,1
DA:140,1
DA:141,1
DA:142,1
DA:143,1
DA:144,1
DA:145,1
DA:147,1
DA:148,1
BRF:0
BRH:0
LF:144
LH:119
end_of_record
SF:/home/leone/Documents/next-hat/nanocl/bin/nanocld/src/repositories/vm.rs
FN:180,_RNCNCNvNtNtCsaS3fY9lrCeZ_7nanocld12repositories2vm13delete_by_key00B9_
FN:289,_RNCNCNvNtNtCsaS3fY9lrCeZ_7nanocld12repositories2vm13update_by_key00B9_
FN:274,_RNCNvNtNtCsaS3fY9lrCeZ_7nanocld12repositories2vm13update_by_key0B7_
FN:52,_RNCNCNvNtNtCsaS3fY9lrCeZ_7nanocld12repositories2vm17find_by_namespace00B9_
FN:97,_RNvNtNtCsaS3fY9lrCeZ_7nanocld12repositories2vm6create
FN:355,_RNvNtNtCsaS3fY9lrCeZ_7nanocld12repositories2vm14inspect_by_key
FN:129,_RNCNCNvNtNtCsaS3fY9lrCeZ_7nanocld12repositories2vm6create00B9_
FN:49,_RNCNvNtNtCsaS3fY9lrCeZ_7nanocld12repositories2vm17find_by_namespace0B7_
FN:269,_RNvNtNtCsaS3fY9lrCeZ_7nanocld12repositories2vm13update_by_key
FN:172,_RNvNtNtCsaS3fY9lrCeZ_7nanocld12repositories2vm13delete_by_key
FN:218,_RNCNvNtNtCsaS3fY9lrCeZ_7nanocld12repositories2vm11find_by_key0B7_
FN:358,_RNCNvNtNtCsaS3fY9lrCeZ_7nanocld12repositories2vm14inspect_by_key0B7_
FN:377,_RNCNCNvNtNtCsaS3fY9lrCeZ_7nanocld12repositories2vm14inspect_by_key0s_0B9_
FN:46,_RNvNtNtCsaS3fY9lrCeZ_7nanocld12repositories2vm17find_by_namespace
FN:102,_RNCNvNtNtCsaS3fY9lrCeZ_7nanocld12repositories2vm6create0B7_
FN:223,_RNCNCNvNtNtCsaS3fY9lrCeZ_7nanocld12repositories2vm11find_by_key00B9_
FN:215,_RNvNtNtCsaS3fY9lrCeZ_7nanocld12repositories2vm11find_by_key
FN:364,_RNCNCNvNtNtCsaS3fY9lrCeZ_7nanocld12repositories2vm14inspect_by_key00B9_
FN:175,_RNCNvNtNtCsaS3fY9lrCeZ_7nanocld12repositories2vm13delete_by_key0B7_
FNDA:0,_RNCNCNvNtNtCsaS3fY9lrCeZ_7nanocld12repositories2vm13delete_by_key00B9_
FNDA:0,_RNCNCNvNtNtCsaS3fY9lrCeZ_7nanocld12repositories2vm13update_by_key00B9_
FNDA:0,_RNCNvNtNtCsaS3fY9lrCeZ_7nanocld12repositories2vm13update_by_key0B7_
FNDA:1,_RNCNCNvNtNtCsaS3fY9lrCeZ_7nanocld12repositories2vm17find_by_namespace00B9_
FNDA:0,_RNvNtNtCsaS3fY9lrCeZ_7nanocld12repositories2vm6create
FNDA:0,_RNvNtNtCsaS3fY9lrCeZ_7nanocld12repositories2vm14inspect_by_key
FNDA:0,_RNCNCNvNtNtCsaS3fY9lrCeZ_7nanocld12repositories2vm6create00B9_
FNDA:1,_RNCNvNtNtCsaS3fY9lrCeZ_7nanocld12repositories2vm17find_by_namespace0B7_
FNDA:0,_RNvNtNtCsaS3fY9lrCeZ_7nanocld12repositories2vm13update_by_key
FNDA:0,_RNvNtNtCsaS3fY9lrCeZ_7nanocld12repositories2vm13delete_by_key
FNDA:0,_RNCNvNtNtCsaS3fY9lrCeZ_7nanocld12repositories2vm11find_by_key0B7_
FNDA:0,_RNCNvNtNtCsaS3fY9lrCeZ_7nanocld12repositories2vm14inspect_by_key0B7_
FNDA:0,_RNCNCNvNtNtCsaS3fY9lrCeZ_7nanocld12repositories2vm14inspect_by_key0s_0B9_
FNDA:1,_RNvNtNtCsaS3fY9lrCeZ_7nanocld12repositories2vm17find_by_namespace
FNDA:0,_RNCNvNtNtCsaS3fY9lrCeZ_7nanocld12repositories2vm6create0B7_
FNDA:0,_RNCNCNvNtNtCsaS3fY9lrCeZ_7nanocld12repositories2vm11find_by_key00B9_
FNDA:0,_RNvNtNtCsaS3fY9lrCeZ_7nanocld12repositories2vm11find_by_key
FNDA:0,_RNCNCNvNtNtCsaS3fY9lrCeZ_7nanocld12repositories2vm14inspect_by_key00B9_
FNDA:0,_RNCNvNtNtCsaS3fY9lrCeZ_7nanocld12repositories2vm13delete_by_key0B7_
FNF:19
FNH:3
DA:46,1
DA:47,1
DA:48,1
DA:49,1
DA:50,1
DA:51,1
DA:52,1
DA:53,1
DA:54,1
DA:55,1
DA:56,1
DA:57,1
DA:58,1
DA:59,1
DA:60,1
DA:61,1
DA:62,1
DA:97,0
DA:98,0
DA:99,0
DA:100,0
DA:101,0
DA:102,0
DA:103,0
DA:104,0
DA:105,0
DA:106,0
DA:107,0
DA:108,0
DA:109,0
DA:110,0
DA:111,0
DA:112,0
DA:113,0
DA:114,0
DA:115,0
DA:116,0
DA:118,0
DA:120,0
DA:121,0
DA:122,0
DA:123,0
DA:124,0
DA:125,0
DA:126,0
DA:127,0
DA:129,0
DA:130,0
DA:131,0
DA:132,0
DA:133,0
DA:134,0
DA:135,0
DA:136,0
DA:137,0
DA:138,0
DA:140,0
DA:141,0
DA:142,0
DA:143,0
DA:144,0
DA:145,0
DA:146,0
DA:147,0
DA:148,0
DA:149,0
DA:172,0
DA:173,0
DA:174,0
DA:175,0
DA:176,0
DA:177,0
DA:178,0
DA:179,0
DA:180,0
DA:181,0
DA:182,0
DA:183,0
DA:184,0
DA:185,0
DA:186,0
DA:187,0
DA:188,0
DA:189,0
DA:191,0
DA:192,0
DA:215,0
DA:216,0
DA:217,0
DA:218,0
DA:219,0
DA:220,0
DA:221,0
DA:222,0
DA:223,0
DA:224,0
DA:225,0
DA:226,0
DA:227,0
DA:228,0
DA:229,0
DA:230,0
DA:231,0
DA:232,0
DA:234,0
DA:235,0
DA:269,0
DA:270,0
DA:271,0
DA:272,0
DA:273,0
DA:274,0
DA:275,0
DA:276,0
DA:277,0
DA:278,0
DA:280,0
DA:281,0
DA:283,0
DA:284,0
DA:285,0
DA:286,0
DA:287,0
DA:288,0
DA:289,0
DA:290,0
DA:291,0
DA:292,0
DA:293,0
DA:294,0
DA:295,0
DA:296,0
DA:297,0
DA:298,0
DA:300,0
DA:301,0
DA:302,0
DA:303,0
DA:304,0
DA:305,0
DA:306,0
DA:307,0
DA:308,0
DA:309,0
DA:355,0
DA:356,0
DA:357,0
DA:358,0
DA:359,0
DA:360,0
DA:361,0
DA:362,0
DA:363,0
DA:364,0
DA:365,0
DA:366,0
DA:367,0
DA:368,0
DA:369,0
DA:370,0
DA:371,0
DA:372,0
DA:373,0
DA:374,0
DA:376,0
DA:377,0
DA:378,0
DA:379,0
DA:380,0
DA:382,0
DA:383,0
DA:384,0
DA:385,0
DA:386,0
DA:387,0
DA:388,0
DA:389,0
DA:390,0
DA:391,0
DA:392,0
DA:393,0
DA:394,0
DA:395,0
DA:396,0
DA:397,0
DA:398,0
DA:399,0
DA:400,0
DA:401,0
DA:402,0
DA:403,0
DA:404,0
DA:405,0
DA:406,0
DA:407,0
BRF:0
BRH:0
LF:215
LH:20
end_of_record
SF:/home/leone/Documents/next-hat/nanocl/bin/nanocld/src/repositories/vm_config.rs
FN:185,_RNCNCNvNtNtCsaS3fY9lrCeZ_7nanocld12repositories9vm_config16delete_by_vm_key00B9_
FN:115,_RNCNvNtNtCsaS3fY9lrCeZ_7nanocld12repositories9vm_config11find_by_key0B7_
FN:176,_RNvNtNtCsaS3fY9lrCeZ_7nanocld12repositories9vm_config16delete_by_vm_key
FN:112,_RNvNtNtCsaS3fY9lrCeZ_7nanocld12repositories9vm_config11find_by_key
FN:133,_RNCNCNvNtNtCsaS3fY9lrCeZ_7nanocld12repositories9vm_config11find_by_key0s_0B9_
FN:40,_RNvNtNtCsaS3fY9lrCeZ_7nanocld12repositories9vm_config6create
FN:179,_RNCNvNtNtCsaS3fY9lrCeZ_7nanocld12repositories9vm_config16delete_by_vm_key0B7_
FN:61,_RNCNCNvNtNtCsaS3fY9lrCeZ_7nanocld12repositories9vm_config6create0s_0B9_
FN:54,_RNCNCNvNtNtCsaS3fY9lrCeZ_7nanocld12repositories9vm_config6create00B9_
FN:223,_RNCNCNCNvNtNtCsaS3fY9lrCeZ_7nanocld12repositories9vm_config10list_by_vm0s_00Bb_
FN:45,_RNCNvNtNtCsaS3fY9lrCeZ_7nanocld12repositories9vm_config6create0B7_
FN:208,_RNCNCNvNtNtCsaS3fY9lrCeZ_7nanocld12repositories9vm_config10list_by_vm00B9_
FN:121,_RNCNCNvNtNtCsaS3fY9lrCeZ_7nanocld12repositories9vm_config11find_by_key00B9_
FN:202,_RNCNvNtNtCsaS3fY9lrCeZ_7nanocld12repositories9vm_config10list_by_vm0B7_
FN:221,_RNCNCNvNtNtCsaS3fY9lrCeZ_7nanocld12repositories9vm_config10list_by_vm0s_0B9_
FN:199,_RNvNtNtCsaS3fY9lrCeZ_7nanocld12repositories9vm_config10list_by_vm
FNDA:0,_RNCNCNvNtNtCsaS3fY9lrCeZ_7nanocld12repositories9vm_config16delete_by_vm_key00B9_
FNDA:0,_RNCNvNtNtCsaS3fY9lrCeZ_7nanocld12repositories9vm_config11find_by_key0B7_
FNDA:0,_RNvNtNtCsaS3fY9lrCeZ_7nanocld12repositories9vm_config16delete_by_vm_key
FNDA:0,_RNvNtNtCsaS3fY9lrCeZ_7nanocld12repositories9vm_config11find_by_key
FNDA:0,_RNCNCNvNtNtCsaS3fY9lrCeZ_7nanocld12repositories9vm_config11find_by_key0s_0B9_
FNDA:0,_RNvNtNtCsaS3fY9lrCeZ_7nanocld12repositories9vm_config6create
FNDA:0,_RNCNvNtNtCsaS3fY9lrCeZ_7nanocld12repositories9vm_config16delete_by_vm_key0B7_
FNDA:0,_RNCNCNvNtNtCsaS3fY9lrCeZ_7nanocld12repositories9vm_config6create0s_0B9_
FNDA:0,_RNCNCNvNtNtCsaS3fY9lrCeZ_7nanocld12repositories9vm_config6create00B9_
FNDA:0,_RNCNCNCNvNtNtCsaS3fY9lrCeZ_7nanocld12repositories9vm_config10list_by_vm0s_00Bb_
FNDA:0,_RNCNvNtNtCsaS3fY9lrCeZ_7nanocld12repositories9vm_config6create0B7_
FNDA:0,_RNCNCNvNtNtCsaS3fY9lrCeZ_7nanocld12repositories9vm_config10list_by_vm00B9_
FNDA:0,_RNCNCNvNtNtCsaS3fY9lrCeZ_7nanocld12repositories9vm_config11find_by_key00B9_
FNDA:0,_RNCNvNtNtCsaS3fY9lrCeZ_7nanocld12repositories9vm_config10list_by_vm0B7_
FNDA:0,_RNCNCNvNtNtCsaS3fY9lrCeZ_7nanocld12repositories9vm_config10list_by_vm0s_0B9_
FNDA:0,_RNvNtNtCsaS3fY9lrCeZ_7nanocld12repositories9vm_config10list_by_vm
FNF:16
FNH:0
DA:40,0
DA:41,0
DA:42,0
DA:43,0
DA:44,0
DA:45,0
DA:46,0
DA:47,0
DA:48,0
DA:49,0
DA:50,0
DA:51,0
DA:52,0
DA:53,0
DA:54,0
DA:55,0
DA:56,0
DA:57,0
DA:58,0
DA:59,0
DA:61,0
DA:62,0
DA:63,0
DA:64,0
DA:65,0
DA:66,0
DA:67,0
DA:68,0
DA:69,0
DA:70,0
DA:72,0
DA:73,0
DA:74,0
DA:75,0
DA:76,0
DA:77,0
DA:78,0
DA:79,0
DA:80,0
DA:81,0
DA:82,0
DA:83,0
DA:84,0
DA:85,0
DA:86,0
DA:87,0
DA:88,0
DA:89,0
DA:112,0
DA:113,0
DA:114,0
DA:115,0
DA:116,0
DA:117,0
DA:118,0
DA:119,0
DA:121,0
DA:122,0
DA:123,0
DA:124,0
DA:125,0
DA:126,0
DA:127,0
DA:128,0
DA:129,0
DA:130,0
DA:132,0
DA:133,0
DA:134,0
DA:135,0
DA:136,0
DA:138,0
DA:139,0
DA:140,0
DA:141,0
DA:142,0
DA:143,0
DA:144,0
DA:145,0
DA:146,0
DA:147,0
DA:148,0
DA:149,0
DA:150,0
DA:151,0
DA:152,0
DA:153,0
DA:176,0
DA:177,0
DA:178,0
DA:179,0
DA:180,0
DA:181,0
DA:182,0
DA:183,0
DA:185,0
DA:186,0
DA:187,0
DA:188,0
DA:189,0
DA:190,0
DA:191,0
DA:192,0
DA:193,0
DA:194,0
DA:196,0
DA:197,0
DA:199,0
DA:200,0
DA:201,0
DA:202,0
DA:203,0
DA:204,0
DA:205,0
DA:206,0
DA:208,0
DA:209,0
DA:210,0
DA:211,0
DA:212,0
DA:213,0
DA:214,0
DA:215,0
DA:216,0
DA:217,0
DA:219,0
DA:220,0
DA:221,0
DA:222,0
DA:223,0
DA:224,0
DA:225,0
DA:226,0
DA:228,0
DA:229,0
DA:230,0
DA:231,0
DA:232,0
DA:233,0
DA:234,0
DA:235,0
DA:236,0
DA:237,0
DA:238,0
DA:239,0
DA:240,0
DA:241,0
DA:242,0
DA:243,0
DA:244,0
DA:246,0
DA:247,0
BRF:0
BRH:0
LF:172
LH:0
end_of_record
SF:/home/leone/Documents/next-hat/nanocl/bin/nanocld/src/repositories/vm_image.rs
FN:39,_RNCNCNvNtNtCsaS3fY9lrCeZ_7nanocld12repositories8vm_image12find_by_name00B9_
FN:55,_RNCNvNtNtCsaS3fY9lrCeZ_7nanocld12repositories8vm_image14find_by_parent0B7_
FN:111,_RNvNtNtCsaS3fY9lrCeZ_7nanocld12repositories8vm_image14update_by_name
FN:12,_RNCNvNtNtCsaS3fY9lrCeZ_7nanocld12repositories8vm_image6create0B7_
FN:95,_RNCNvNtNtCsaS3fY9lrCeZ_7nanocld12repositories8vm_image4list0B7_
FN:9,_RNvNtNtCsaS3fY9lrCeZ_7nanocld12repositories8vm_image6create
FN:18,_RNCNCNvNtNtCsaS3fY9lrCeZ_7nanocld12repositories8vm_image6create00B9_
FN:81,_RNCNCNvNtNtCsaS3fY9lrCeZ_7nanocld12repositories8vm_image14delete_by_name00B9_
FN:34,_RNCNvNtNtCsaS3fY9lrCeZ_7nanocld12repositories8vm_image12find_by_name0B7_
FN:121,_RNCNCNvNtNtCsaS3fY9lrCeZ_7nanocld12repositories8vm_image14update_by_name00B9_
FN:76,_RNCNvNtNtCsaS3fY9lrCeZ_7nanocld12repositories8vm_image14delete_by_name0B7_
FN:52,_RNvNtNtCsaS3fY9lrCeZ_7nanocld12repositories8vm_image14find_by_parent
FN:93,_RNvNtNtCsaS3fY9lrCeZ_7nanocld12repositories8vm_image4list
FN:60,_RNCNCNvNtNtCsaS3fY9lrCeZ_7nanocld12repositories8vm_image14find_by_parent00B9_
FN:99,_RNCNCNvNtNtCsaS3fY9lrCeZ_7nanocld12repositories8vm_image4list00B9_
FN:115,_RNCNvNtNtCsaS3fY9lrCeZ_7nanocld12repositories8vm_image14update_by_name0B7_
FN:31,_RNvNtNtCsaS3fY9lrCeZ_7nanocld12repositories8vm_image12find_by_name
FN:73,_RNvNtNtCsaS3fY9lrCeZ_7nanocld12repositories8vm_image14delete_by_name
FNDA:0,_RNCNCNvNtNtCsaS3fY9lrCeZ_7nanocld12repositories8vm_image12find_by_name00B9_
FNDA:0,_RNCNvNtNtCsaS3fY9lrCeZ_7nanocld12repositories8vm_image14find_by_parent0B7_
FNDA:0,_RNvNtNtCsaS3fY9lrCeZ_7nanocld12repositories8vm_image14update_by_name
FNDA:0,_RNCNvNtNtCsaS3fY9lrCeZ_7nanocld12repositories8vm_image6create0B7_
FNDA:0,_RNCNvNtNtCsaS3fY9lrCeZ_7nanocld12repositories8vm_image4list0B7_
FNDA:0,_RNvNtNtCsaS3fY9lrCeZ_7nanocld12repositories8vm_image6create
FNDA:0,_RNCNCNvNtNtCsaS3fY9lrCeZ_7nanocld12repositories8vm_image6create00B9_
FNDA:0,_RNCNCNvNtNtCsaS3fY9lrCeZ_7nanocld12repositories8vm_image14delete_by_name00B9_
FNDA:0,_RNCNvNtNtCsaS3fY9lrCeZ_7nanocld12repositories8vm_image12find_by_name0B7_
FNDA:0,_RNCNCNvNtNtCsaS3fY9lrCeZ_7nanocld12repositories8vm_image14update_by_name00B9_
FNDA:0,_RNCNvNtNtCsaS3fY9lrCeZ_7nanocld12repositories8vm_image14delete_by_name0B7_
FNDA:0,_RNvNtNtCsaS3fY9lrCeZ_7nanocld12repositories8vm_image14find_by_parent
FNDA:0,_RNvNtNtCsaS3fY9lrCeZ_7nanocld12repositories8vm_image4list
FNDA:0,_RNCNCNvNtNtCsaS3fY9lrCeZ_7nanocld12repositories8vm_image14find_by_parent00B9_
FNDA:0,_RNCNCNvNtNtCsaS3fY9lrCeZ_7nanocld12repositories8vm_image4list00B9_
FNDA:0,_RNCNvNtNtCsaS3fY9lrCeZ_7nanocld12repositories8vm_image14update_by_name0B7_
FNDA:0,_RNvNtNtCsaS3fY9lrCeZ_7nanocld12repositories8vm_image12find_by_name
FNDA:0,_RNvNtNtCsaS3fY9lrCeZ_7nanocld12repositories8vm_image14delete_by_name
FNF:18
FNH:0
DA:9,0
DA:10,0
DA:11,0
DA:12,0
DA:13,0
DA:14,0
DA:15,0
DA:16,0
DA:17,0
DA:18,0
DA:19,0
DA:20,0
DA:21,0
DA:22,0
DA:23,0
DA:24,0
DA:25,0
DA:26,0
DA:27,0
DA:28,0
DA:29,0
DA:31,0
DA:32,0
DA:33,0
DA:34,0
DA:35,0
DA:36,0
DA:37,0
DA:38,0
DA:39,0
DA:40,0
DA:41,0
DA:42,0
DA:43,0
DA:44,0
DA:45,0
DA:46,0
DA:47,0
DA:48,0
DA:49,0
DA:50,0
DA:52,0
DA:53,0
DA:54,0
DA:55,0
DA:56,0
DA:57,0
DA:58,0
DA:59,0
DA:60,0
DA:61,0
DA:62,0
DA:63,0
DA:64,0
DA:65,0
DA:66,0
DA:67,0
DA:68,0
DA:69,0
DA:70,0
DA:71,0
DA:73,0
DA:74,0
DA:75,0
DA:76,0
DA:77,0
DA:78,0
DA:79,0
DA:80,0
DA:81,0
DA:82,0
DA:83,0
DA:84,0
DA:85,0
DA:86,0
DA:87,0
DA:88,0
DA:89,0
DA:90,0
DA:91,0
DA:93,0
DA:94,0
DA:95,0
DA:96,0
DA:97,0
DA:98,0
DA:99,0
DA:100,0
DA:101,0
DA:102,0
DA:103,0
DA:104,0
DA:105,0
DA:106,0
DA:107,0
DA:108,0
DA:109,0
DA:111,0
DA:112,0
DA:113,0
DA:114,0
DA:115,0
DA:116,0
DA:117,0
DA:118,0
DA:119,0
DA:120,0
DA:121,0
DA:122,0
DA:123,0
DA:124,0
DA:125,0
DA:126,0
DA:127,0
DA:128,0
DA:129,0
DA:130,0
DA:131,0
DA:132,0
BRF:0
BRH:0
LF:137
LH:0
end_of_record
SF:/home/leone/Documents/next-hat/nanocl/bin/nanocld/src/server.rs
FN:11,_RNCNCNvNtCsaS3fY9lrCeZ_7nanocld6server8generate00B7_
FN:6,_RNvNtCsaS3fY9lrCeZ_7nanocld6server8generate
FN:9,_RNCNvNtCsaS3fY9lrCeZ_7nanocld6server8generate0B5_
FN:129,_RNCNvNtNtCsaS3fY9lrCeZ_7nanocld6server5tests29server_on_invalid_unix_socket0B7_
FN:129,_RNCNvNtNtCsaS3fY9lrCeZ_7nanocld6server5testss_29server_on_invalid_unix_socket0B7_
FN:93,_RNCNvNtNtCsaS3fY9lrCeZ_7nanocld6server5testss_20server_on_tcp_socket0B7_
FN:108,_RNCNvNtNtCsaS3fY9lrCeZ_7nanocld6server5tests25server_on_same_tcp_socket0B7_
FN:78,_RNvNtNtCsaS3fY9lrCeZ_7nanocld6server5testss_25server_on_tmp_unix_socket
FN:108,_RNvNtNtCsaS3fY9lrCeZ_7nanocld6server5testss_25server_on_same_tcp_socket
FN:93,_RNvNtNtCsaS3fY9lrCeZ_7nanocld6server5testss_20server_on_tcp_socket
FN:78,_RNCNvNtNtCsaS3fY9lrCeZ_7nanocld6server5testss_25server_on_tmp_unix_socket0B7_
FN:78,_RNCNvNtNtCsaS3fY9lrCeZ_7nanocld6server5tests25server_on_tmp_unix_socket0B7_
FN:93,_RNCNvNtNtCsaS3fY9lrCeZ_7nanocld6server5tests20server_on_tcp_socket0B7_
FN:108,_RNCNvNtNtCsaS3fY9lrCeZ_7nanocld6server5testss_25server_on_same_tcp_socket0B7_
FN:144,_RNCNvNtNtCsaS3fY9lrCeZ_7nanocld6server5testss_22server_on_invalid_host0B7_
FN:144,_RNvNtNtCsaS3fY9lrCeZ_7nanocld6server5testss_22server_on_invalid_host
FN:144,_RNCNvNtNtCsaS3fY9lrCeZ_7nanocld6server5tests22server_on_invalid_host0B7_
FN:129,_RNvNtNtCsaS3fY9lrCeZ_7nanocld6server5testss_29server_on_invalid_unix_socket
FNDA:23,_RNCNCNvNtCsaS3fY9lrCeZ_7nanocld6server8generate00B7_
FNDA:6,_RNvNtCsaS3fY9lrCeZ_7nanocld6server8generate
FNDA:6,_RNCNvNtCsaS3fY9lrCeZ_7nanocld6server8generate0B5_
FNDA:1,_RNCNvNtNtCsaS3fY9lrCeZ_7nanocld6server5tests29server_on_invalid_unix_socket0B7_
FNDA:1,_RNCNvNtNtCsaS3fY9lrCeZ_7nanocld6server5testss_29server_on_invalid_unix_socket0B7_
FNDA:1,_RNCNvNtNtCsaS3fY9lrCeZ_7nanocld6server5testss_20server_on_tcp_socket0B7_
FNDA:1,_RNCNvNtNtCsaS3fY9lrCeZ_7nanocld6server5tests25server_on_same_tcp_socket0B7_
FNDA:1,_RNvNtNtCsaS3fY9lrCeZ_7nanocld6server5testss_25server_on_tmp_unix_socket
FNDA:1,_RNvNtNtCsaS3fY9lrCeZ_7nanocld6server5testss_25server_on_same_tcp_socket
FNDA:1,_RNvNtNtCsaS3fY9lrCeZ_7nanocld6server5testss_20server_on_tcp_socket
FNDA:1,_RNCNvNtNtCsaS3fY9lrCeZ_7nanocld6server5testss_25server_on_tmp_unix_socket0B7_
FNDA:1,_RNCNvNtNtCsaS3fY9lrCeZ_7nanocld6server5tests25server_on_tmp_unix_socket0B7_
FNDA:1,_RNCNvNtNtCsaS3fY9lrCeZ_7nanocld6server5tests20server_on_tcp_socket0B7_
FNDA:1,_RNCNvNtNtCsaS3fY9lrCeZ_7nanocld6server5testss_25server_on_same_tcp_socket0B7_
FNDA:1,_RNCNvNtNtCsaS3fY9lrCeZ_7nanocld6server5testss_22server_on_invalid_host0B7_
FNDA:1,_RNvNtNtCsaS3fY9lrCeZ_7nanocld6server5testss_22server_on_invalid_host
FNDA:1,_RNCNvNtNtCsaS3fY9lrCeZ_7nanocld6server5tests22server_on_invalid_host0B7_
FNDA:1,_RNvNtNtCsaS3fY9lrCeZ_7nanocld6server5testss_29server_on_invalid_unix_socket
FNF:8
FNH:8
DA:6,6
DA:7,6
DA:8,6
DA:9,6
DA:10,6
DA:11,23
DA:12,23
DA:13,23
DA:14,23
DA:15,23
DA:16,23
DA:17,23
DA:18,23
DA:19,23
DA:20,23
DA:21,23
DA:22,23
DA:23,23
DA:24,23
DA:25,6
DA:26,6
DA:27,9
DA:28,6
DA:29,6
DA:30,2
DA:31,2
DA:32,1
DA:33,1
DA:34,1
DA:36,1
DA:38,1
DA:39,4
DA:40,3
DA:41,3
DA:42,1
DA:43,1
DA:44,1
DA:46,2
DA:48,2
DA:51,1
DA:54,1
DA:55,1
DA:56,1
DA:57,1
DA:59,3
DA:61,3
DA:62,3
DA:63,6
DA:78,1
DA:93,1
DA:108,1
DA:129,1
DA:144,1
BRF:0
BRH:0
LF:55
LH:55
end_of_record
SF:/home/leone/Documents/next-hat/nanocl/bin/nanocld/src/services/cargo.rs
FN:207,_RNvNvXs8_NtNtCsaS3fY9lrCeZ_7nanocld8services5cargoNtB7_10kill_cargoINtNtNtCsUwcWOEjd2I_4ntex3web7service17WebServiceFactoryNtNtB18_13error_default12DefaultErrorE8register10kill_cargo
FN:212,_RNCNvNvXs8_NtNtCsaS3fY9lrCeZ_7nanocld8services5cargoNtB9_10kill_cargoINtNtNtCsUwcWOEjd2I_4ntex3web7service17WebServiceFactoryNtNtB1a_13error_default12DefaultErrorE8register10kill_cargo0Bd_
FN:206,_RNvXs8_NtNtCsaS3fY9lrCeZ_7nanocld8services5cargoNtB5_10kill_cargoINtNtNtCsUwcWOEjd2I_4ntex3web7service17WebServiceFactoryNtNtB16_13error_default12DefaultErrorE8register
FN:424,_RNvNtNtNtCsaS3fY9lrCeZ_7nanocld8services5cargo5testss_4exec
FN:316,_RNCNvNtNtNtCsaS3fY9lrCeZ_7nanocld8services5cargo5testss_5basic0B9_
FN:458,_RNCNvNtNtNtCsaS3fY9lrCeZ_7nanocld8services5cargo5testss_4logs0B9_
FN:316,_RNvNtNtNtCsaS3fY9lrCeZ_7nanocld8services5cargo5testss_5basic
FN:458,_RNCNvNtNtNtCsaS3fY9lrCeZ_7nanocld8services5cargo5tests4logs0B9_
FN:458,_RNvNtNtNtCsaS3fY9lrCeZ_7nanocld8services5cargo5testss_4logs
FN:316,_RNCNvNtNtNtCsaS3fY9lrCeZ_7nanocld8services5cargo5tests5basic0B9_
FN:424,_RNCNvNtNtNtCsaS3fY9lrCeZ_7nanocld8services5cargo5testss_4exec0B9_
FN:424,_RNCNvNtNtNtCsaS3fY9lrCeZ_7nanocld8services5cargo5tests4exec0B9_
FN:233,_RNvXsa_NtNtCsaS3fY9lrCeZ_7nanocld8services5cargoNtB5_11reset_cargoINtNtNtCsUwcWOEjd2I_4ntex3web7service17WebServiceFactoryNtNtB17_13error_default12DefaultErrorE8register
FN:167,_RNCNvNvXs5_NtNtCsaS3fY9lrCeZ_7nanocld8services5cargoNtB9_20list_cargo_instancesINtNtNtCsUwcWOEjd2I_4ntex3web7service17WebServiceFactoryNtNtB1k_13error_default12DefaultErrorE8register20list_cargo_instances0Bd_
FN:64,_RNvNvXs0_NtNtCsaS3fY9lrCeZ_7nanocld8services5cargoNtB7_11start_cargoINtNtNtCsUwcWOEjd2I_4ntex3web7service17WebServiceFactoryNtNtB19_13error_default12DefaultErrorE8register11start_cargo
FN:243,_RNCNCNvNvXsa_NtNtCsaS3fY9lrCeZ_7nanocld8services5cargoNtBb_11reset_cargoINtNtNtCsUwcWOEjd2I_4ntex3web7service17WebServiceFactoryNtNtB1d_13error_default12DefaultErrorE8register11reset_cargo00Bf_
FN:112,_RNCNvNvXs2_NtNtCsaS3fY9lrCeZ_7nanocld8services5cargoNtB9_9put_cargoINtNtNtCsUwcWOEjd2I_4ntex3web7service17WebServiceFactoryNtNtB18_13error_default12DefaultErrorE8register9put_cargo0Bd_
FN:221,_RNvNvXs9_NtNtCsaS3fY9lrCeZ_7nanocld8services5cargoNtB7_18list_cargo_historyINtNtNtCsUwcWOEjd2I_4ntex3web7service17WebServiceFactoryNtNtB1g_13error_default12DefaultErrorE8register18list_cargo_history
FN:24,_RNCNvNvXNtNtCsaS3fY9lrCeZ_7nanocld8services5cargoNtB6_12create_cargoINtNtNtCsUwcWOEjd2I_4ntex3web7service17WebServiceFactoryNtNtB19_13error_default12DefaultErrorE8register12create_cargo0Ba_
FN:31,_RNCNCNvNvXNtNtCsaS3fY9lrCeZ_7nanocld8services5cargoNtB8_12create_cargoINtNtNtCsUwcWOEjd2I_4ntex3web7service17WebServiceFactoryNtNtB1b_13error_default12DefaultErrorE8register12create_cargo00Bc_
FN:84,_RNvXs1_NtNtCsaS3fY9lrCeZ_7nanocld8services5cargoNtB5_10stop_cargoINtNtNtCsUwcWOEjd2I_4ntex3web7service17WebServiceFactoryNtNtB16_13error_default12DefaultErrorE8register
FN:185,_RNCNvNvXs6_NtNtCsaS3fY9lrCeZ_7nanocld8services5cargoNtB9_13inspect_cargoINtNtNtCsUwcWOEjd2I_4ntex3web7service17WebServiceFactoryNtNtB1d_13error_default12DefaultErrorE8register13inspect_cargo0Bd_
FN:129,_RNvNvXs3_NtNtCsaS3fY9lrCeZ_7nanocld8services5cargoNtB7_11patch_cargoINtNtNtCsUwcWOEjd2I_4ntex3web7service17WebServiceFactoryNtNtB19_13error_default12DefaultErrorE8register11patch_cargo
FN:234,_RNvNvXsa_NtNtCsaS3fY9lrCeZ_7nanocld8services5cargoNtB7_11reset_cargoINtNtNtCsUwcWOEjd2I_4ntex3web7service17WebServiceFactoryNtNtB19_13error_default12DefaultErrorE8register11reset_cargo
FN:43,_RNvNvXs_NtNtCsaS3fY9lrCeZ_7nanocld8services5cargoNtB6_12delete_cargoINtNtNtCsUwcWOEjd2I_4ntex3web7service17WebServiceFactoryNtNtB19_13error_default12DefaultErrorE8register12delete_cargo
FN:18,_RNvXNtNtCsaS3fY9lrCeZ_7nanocld8services5cargoNtB2_12create_cargoINtNtNtCsUwcWOEjd2I_4ntex3web7service17WebServiceFactoryNtNtB15_13error_default12DefaultErrorE8register
FN:225,_RNCNvNvXs9_NtNtCsaS3fY9lrCeZ_7nanocld8services5cargoNtB9_18list_cargo_historyINtNtNtCsUwcWOEjd2I_4ntex3web7service17WebServiceFactoryNtNtB1i_13error_default12DefaultErrorE8register18list_cargo_history0Bd_
FN:42,_RNvXs_NtNtCsaS3fY9lrCeZ_7nanocld8services5cargoNtB4_12delete_cargoINtNtNtCsUwcWOEjd2I_4ntex3web7service17WebServiceFactoryNtNtB17_13error_default12DefaultErrorE8register
FN:282,_RNvNtNtCsaS3fY9lrCeZ_7nanocld8services5cargo11ntex_config
FN:150,_RNvXs4_NtNtCsaS3fY9lrCeZ_7nanocld8services5cargoNtB5_10list_cargoINtNtNtCsUwcWOEjd2I_4ntex3web7service17WebServiceFactoryNtNtB16_13error_default12DefaultErrorE8register
FN:139,_RNCNCNvNvXs3_NtNtCsaS3fY9lrCeZ_7nanocld8services5cargoNtBb_11patch_cargoINtNtNtCsUwcWOEjd2I_4ntex3web7service17WebServiceFactoryNtNtB1d_13error_default12DefaultErrorE8register11patch_cargo00Bf_
FN:154,_RNCNvNvXs4_NtNtCsaS3fY9lrCeZ_7nanocld8services5cargoNtB9_10list_cargoINtNtNtCsUwcWOEjd2I_4ntex3web7service17WebServiceFactoryNtNtB1a_13error_default12DefaultErrorE8register10list_cargo0Bd_
FN:117,_RNCNCNvNvXs2_NtNtCsaS3fY9lrCeZ_7nanocld8services5cargoNtBb_9put_cargoINtNtNtCsUwcWOEjd2I_4ntex3web7service17WebServiceFactoryNtNtB1a_13error_default12DefaultErrorE8register9put_cargo00Bf_
FN:257,_RNCNCNvNvXsa_NtNtCsaS3fY9lrCeZ_7nanocld8services5cargoNtBb_11reset_cargoINtNtNtCsUwcWOEjd2I_4ntex3web7service17WebServiceFactoryNtNtB1d_13error_default12DefaultErrorE8register11reset_cargo0s_0Bf_
FN:89,_RNCNvNvXs1_NtNtCsaS3fY9lrCeZ_7nanocld8services5cargoNtB9_10stop_cargoINtNtNtCsUwcWOEjd2I_4ntex3web7service17WebServiceFactoryNtNtB1a_13error_default12DefaultErrorE8register10stop_cargo0Bd_
FN:107,_RNvNvXs2_NtNtCsaS3fY9lrCeZ_7nanocld8services5cargoNtB7_9put_cargoINtNtNtCsUwcWOEjd2I_4ntex3web7service17WebServiceFactoryNtNtB16_13error_default12DefaultErrorE8register9put_cargo
FN:134,_RNCNvNvXs3_NtNtCsaS3fY9lrCeZ_7nanocld8services5cargoNtB9_11patch_cargoINtNtNtCsUwcWOEjd2I_4ntex3web7service17WebServiceFactoryNtNtB1b_13error_default12DefaultErrorE8register11patch_cargo0Bd_
FN:73,_RNCNCNvNvXs0_NtNtCsaS3fY9lrCeZ_7nanocld8services5cargoNtBb_11start_cargoINtNtNtCsUwcWOEjd2I_4ntex3web7service17WebServiceFactoryNtNtB1d_13error_default12DefaultErrorE8register11start_cargo00Bf_
FN:19,_RNvNvXNtNtCsaS3fY9lrCeZ_7nanocld8services5cargoNtB4_12create_cargoINtNtNtCsUwcWOEjd2I_4ntex3web7service17WebServiceFactoryNtNtB17_13error_default12DefaultErrorE8register12create_cargo
FN:220,_RNvXs9_NtNtCsaS3fY9lrCeZ_7nanocld8services5cargoNtB5_18list_cargo_historyINtNtNtCsUwcWOEjd2I_4ntex3web7service17WebServiceFactoryNtNtB1e_13error_default12DefaultErrorE8register
FN:181,_RNvNvXs6_NtNtCsaS3fY9lrCeZ_7nanocld8services5cargoNtB7_13inspect_cargoINtNtNtCsUwcWOEjd2I_4ntex3web7service17WebServiceFactoryNtNtB1b_13error_default12DefaultErrorE8register13inspect_cargo
FN:163,_RNvNvXs5_NtNtCsaS3fY9lrCeZ_7nanocld8services5cargoNtB7_20list_cargo_instancesINtNtNtCsUwcWOEjd2I_4ntex3web7service17WebServiceFactoryNtNtB1i_13error_default12DefaultErrorE8register20list_cargo_instances
FN:274,_RNCNvNvXsb_NtNtCsaS3fY9lrCeZ_7nanocld8services5cargoNtB9_10logs_cargoINtNtNtCsUwcWOEjd2I_4ntex3web7service17WebServiceFactoryNtNtB1a_13error_default12DefaultErrorE8register10logs_cargo0Bd_
FN:162,_RNvXs5_NtNtCsaS3fY9lrCeZ_7nanocld8services5cargoNtB5_20list_cargo_instancesINtNtNtCsUwcWOEjd2I_4ntex3web7service17WebServiceFactoryNtNtB1g_13error_default12DefaultErrorE8register
FN:128,_RNvXs3_NtNtCsaS3fY9lrCeZ_7nanocld8services5cargoNtB5_11patch_cargoINtNtNtCsUwcWOEjd2I_4ntex3web7service17WebServiceFactoryNtNtB17_13error_default12DefaultErrorE8register
FN:151,_RNvNvXs4_NtNtCsaS3fY9lrCeZ_7nanocld8services5cargoNtB7_10list_cargoINtNtNtCsUwcWOEjd2I_4ntex3web7service17WebServiceFactoryNtNtB18_13error_default12DefaultErrorE8register10list_cargo
FN:194,_RNvNvXs7_NtNtCsaS3fY9lrCeZ_7nanocld8services5cargoNtB7_12exec_commandINtNtNtCsUwcWOEjd2I_4ntex3web7service17WebServiceFactoryNtNtB1a_13error_default12DefaultErrorE8register12exec_command
FN:106,_RNvXs2_NtNtCsaS3fY9lrCeZ_7nanocld8services5cargoNtB5_9put_cargoINtNtNtCsUwcWOEjd2I_4ntex3web7service17WebServiceFactoryNtNtB14_13error_default12DefaultErrorE8register
FN:63,_RNvXs0_NtNtCsaS3fY9lrCeZ_7nanocld8services5cargoNtB5_11start_cargoINtNtNtCsUwcWOEjd2I_4ntex3web7service17WebServiceFactoryNtNtB17_13error_default12DefaultErrorE8register
FN:238,_RNCNvNvXsa_NtNtCsaS3fY9lrCeZ_7nanocld8services5cargoNtB9_11reset_cargoINtNtNtCsUwcWOEjd2I_4ntex3web7service17WebServiceFactoryNtNtB1b_13error_default12DefaultErrorE8register11reset_cargo0Bd_
FN:270,_RNvNvXsb_NtNtCsaS3fY9lrCeZ_7nanocld8services5cargoNtB7_10logs_cargoINtNtNtCsUwcWOEjd2I_4ntex3web7service17WebServiceFactoryNtNtB18_13error_default12DefaultErrorE8register10logs_cargo
FN:85,_RNvNvXs1_NtNtCsaS3fY9lrCeZ_7nanocld8services5cargoNtB7_10stop_cargoINtNtNtCsUwcWOEjd2I_4ntex3web7service17WebServiceFactoryNtNtB18_13error_default12DefaultErrorE8register10stop_cargo
FN:180,_RNvXs6_NtNtCsaS3fY9lrCeZ_7nanocld8services5cargoNtB5_13inspect_cargoINtNtNtCsUwcWOEjd2I_4ntex3web7service17WebServiceFactoryNtNtB19_13error_default12DefaultErrorE8register
FN:47,_RNCNvNvXs_NtNtCsaS3fY9lrCeZ_7nanocld8services5cargoNtB8_12delete_cargoINtNtNtCsUwcWOEjd2I_4ntex3web7service17WebServiceFactoryNtNtB1b_13error_default12DefaultErrorE8register12delete_cargo0Bc_
FN:199,_RNCNvNvXs7_NtNtCsaS3fY9lrCeZ_7nanocld8services5cargoNtB9_12exec_commandINtNtNtCsUwcWOEjd2I_4ntex3web7service17WebServiceFactoryNtNtB1c_13error_default12DefaultErrorE8register12exec_command0Bd_
FN:269,_RNvXsb_NtNtCsaS3fY9lrCeZ_7nanocld8services5cargoNtB5_10logs_cargoINtNtNtCsUwcWOEjd2I_4ntex3web7service17WebServiceFactoryNtNtB16_13error_default12DefaultErrorE8register
FN:53,_RNCNCNvNvXs_NtNtCsaS3fY9lrCeZ_7nanocld8services5cargoNtBa_12delete_cargoINtNtNtCsUwcWOEjd2I_4ntex3web7service17WebServiceFactoryNtNtB1d_13error_default12DefaultErrorE8register12delete_cargo00Be_
FN:95,_RNCNCNvNvXs1_NtNtCsaS3fY9lrCeZ_7nanocld8services5cargoNtBb_10stop_cargoINtNtNtCsUwcWOEjd2I_4ntex3web7service17WebServiceFactoryNtNtB1c_13error_default12DefaultErrorE8register10stop_cargo00Bf_
FN:68,_RNCNvNvXs0_NtNtCsaS3fY9lrCeZ_7nanocld8services5cargoNtB9_11start_cargoINtNtNtCsUwcWOEjd2I_4ntex3web7service17WebServiceFactoryNtNtB1b_13error_default12DefaultErrorE8register11start_cargo0Bd_
FN:193,_RNvXs7_NtNtCsaS3fY9lrCeZ_7nanocld8services5cargoNtB5_12exec_commandINtNtNtCsUwcWOEjd2I_4ntex3web7service17WebServiceFactoryNtNtB18_13error_default12DefaultErrorE8register
FNDA:0,_RNvNvXs8_NtNtCsaS3fY9lrCeZ_7nanocld8services5cargoNtB7_10kill_cargoINtNtNtCsUwcWOEjd2I_4ntex3web7service17WebServiceFactoryNtNtB18_13error_default12DefaultErrorE8register10kill_cargo
FNDA:0,_RNCNvNvXs8_NtNtCsaS3fY9lrCeZ_7nanocld8services5cargoNtB9_10kill_cargoINtNtNtCsUwcWOEjd2I_4ntex3web7service17WebServiceFactoryNtNtB1a_13error_default12DefaultErrorE8register10kill_cargo0Bd_
FNDA:0,_RNvXs8_NtNtCsaS3fY9lrCeZ_7nanocld8services5cargoNtB5_10kill_cargoINtNtNtCsUwcWOEjd2I_4ntex3web7service17WebServiceFactoryNtNtB16_13error_default12DefaultErrorE8register
FNDA:1,_RNvNtNtNtCsaS3fY9lrCeZ_7nanocld8services5cargo5testss_4exec
FNDA:1,_RNCNvNtNtNtCsaS3fY9lrCeZ_7nanocld8services5cargo5testss_5basic0B9_
FNDA:1,_RNCNvNtNtNtCsaS3fY9lrCeZ_7nanocld8services5cargo5testss_4logs0B9_
FNDA:1,_RNvNtNtNtCsaS3fY9lrCeZ_7nanocld8services5cargo5testss_5basic
FNDA:1,_RNCNvNtNtNtCsaS3fY9lrCeZ_7nanocld8services5cargo5tests4logs0B9_
FNDA:1,_RNvNtNtNtCsaS3fY9lrCeZ_7nanocld8services5cargo5testss_4logs
FNDA:1,_RNCNvNtNtNtCsaS3fY9lrCeZ_7nanocld8services5cargo5tests5basic0B9_
FNDA:1,_RNCNvNtNtNtCsaS3fY9lrCeZ_7nanocld8services5cargo5testss_4exec0B9_
FNDA:1,_RNCNvNtNtNtCsaS3fY9lrCeZ_7nanocld8services5cargo5tests4exec0B9_
FNDA:34,_RNvXsa_NtNtCsaS3fY9lrCeZ_7nanocld8services5cargoNtB5_11reset_cargoINtNtNtCsUwcWOEjd2I_4ntex3web7service17WebServiceFactoryNtNtB17_13error_default12DefaultErrorE8register
FNDA:0,_RNCNvNvXs5_NtNtCsaS3fY9lrCeZ_7nanocld8services5cargoNtB9_20list_cargo_instancesINtNtNtCsUwcWOEjd2I_4ntex3web7service17WebServiceFactoryNtNtB1k_13error_default12DefaultErrorE8register20list_cargo_instances0Bd_
FNDA:1,_RNvNvXs0_NtNtCsaS3fY9lrCeZ_7nanocld8services5cargoNtB7_11start_cargoINtNtNtCsUwcWOEjd2I_4ntex3web7service17WebServiceFactoryNtNtB19_13error_default12DefaultErrorE8register11start_cargo
FNDA:0,_RNCNCNvNvXsa_NtNtCsaS3fY9lrCeZ_7nanocld8services5cargoNtBb_11reset_cargoINtNtNtCsUwcWOEjd2I_4ntex3web7service17WebServiceFactoryNtNtB1d_13error_default12DefaultErrorE8register11reset_cargo00Bf_
FNDA:1,_RNCNvNvXs2_NtNtCsaS3fY9lrCeZ_7nanocld8services5cargoNtB9_9put_cargoINtNtNtCsUwcWOEjd2I_4ntex3web7service17WebServiceFactoryNtNtB18_13error_default12DefaultErrorE8register9put_cargo0Bd_
FNDA:1,_RNvNvXs9_NtNtCsaS3fY9lrCeZ_7nanocld8services5cargoNtB7_18list_cargo_historyINtNtNtCsUwcWOEjd2I_4ntex3web7service17WebServiceFactoryNtNtB1g_13error_default12DefaultErrorE8register18list_cargo_history
FNDA:1,_RNCNvNvXNtNtCsaS3fY9lrCeZ_7nanocld8services5cargoNtB6_12create_cargoINtNtNtCsUwcWOEjd2I_4ntex3web7service17WebServiceFactoryNtNtB19_13error_default12DefaultErrorE8register12create_cargo0Ba_
FNDA:1,_RNCNCNvNvXNtNtCsaS3fY9lrCeZ_7nanocld8services5cargoNtB8_12create_cargoINtNtNtCsUwcWOEjd2I_4ntex3web7service17WebServiceFactoryNtNtB1b_13error_default12DefaultErrorE8register12create_cargo00Bc_
FNDA:36,_RNvXs1_NtNtCsaS3fY9lrCeZ_7nanocld8services5cargoNtB5_10stop_cargoINtNtNtCsUwcWOEjd2I_4ntex3web7service17WebServiceFactoryNtNtB16_13error_default12DefaultErrorE8register
FNDA:1,_RNCNvNvXs6_NtNtCsaS3fY9lrCeZ_7nanocld8services5cargoNtB9_13inspect_cargoINtNtNtCsUwcWOEjd2I_4ntex3web7service17WebServiceFactoryNtNtB1d_13error_default12DefaultErrorE8register13inspect_cargo0Bd_
FNDA:0,_RNvNvXs3_NtNtCsaS3fY9lrCeZ_7nanocld8services5cargoNtB7_11patch_cargoINtNtNtCsUwcWOEjd2I_4ntex3web7service17WebServiceFactoryNtNtB19_13error_default12DefaultErrorE8register11patch_cargo
FNDA:1,_RNvNvXsa_NtNtCsaS3fY9lrCeZ_7nanocld8services5cargoNtB7_11reset_cargoINtNtNtCsUwcWOEjd2I_4ntex3web7service17WebServiceFactoryNtNtB19_13error_default12DefaultErrorE8register11reset_cargo
FNDA:1,_RNvNvXs_NtNtCsaS3fY9lrCeZ_7nanocld8services5cargoNtB6_12delete_cargoINtNtNtCsUwcWOEjd2I_4ntex3web7service17WebServiceFactoryNtNtB19_13error_default12DefaultErrorE8register12delete_cargo
FNDA:36,_RNvXNtNtCsaS3fY9lrCeZ_7nanocld8services5cargoNtB2_12create_cargoINtNtNtCsUwcWOEjd2I_4ntex3web7service17WebServiceFactoryNtNtB15_13error_default12DefaultErrorE8register
FNDA:1,_RNCNvNvXs9_NtNtCsaS3fY9lrCeZ_7nanocld8services5cargoNtB9_18list_cargo_historyINtNtNtCsUwcWOEjd2I_4ntex3web7service17WebServiceFactoryNtNtB1i_13error_default12DefaultErrorE8register18list_cargo_history0Bd_
FNDA:36,_RNvXs_NtNtCsaS3fY9lrCeZ_7nanocld8services5cargoNtB4_12delete_cargoINtNtNtCsUwcWOEjd2I_4ntex3web7service17WebServiceFactoryNtNtB17_13error_default12DefaultErrorE8register
FNDA:39,_RNvNtNtCsaS3fY9lrCeZ_7nanocld8services5cargo11ntex_config
FNDA:35,_RNvXs4_NtNtCsaS3fY9lrCeZ_7nanocld8services5cargoNtB5_10list_cargoINtNtNtCsUwcWOEjd2I_4ntex3web7service17WebServiceFactoryNtNtB16_13error_default12DefaultErrorE8register
FNDA:0,_RNCNCNvNvXs3_NtNtCsaS3fY9lrCeZ_7nanocld8services5cargoNtBb_11patch_cargoINtNtNtCsUwcWOEjd2I_4ntex3web7service17WebServiceFactoryNtNtB1d_13error_default12DefaultErrorE8register11patch_cargo00Bf_
FNDA:1,_RNCNvNvXs4_NtNtCsaS3fY9lrCeZ_7nanocld8services5cargoNtB9_10list_cargoINtNtNtCsUwcWOEjd2I_4ntex3web7service17WebServiceFactoryNtNtB1a_13error_default12DefaultErrorE8register10list_cargo0Bd_
FNDA:1,_RNCNCNvNvXs2_NtNtCsaS3fY9lrCeZ_7nanocld8services5cargoNtBb_9put_cargoINtNtNtCsUwcWOEjd2I_4ntex3web7service17WebServiceFactoryNtNtB1a_13error_default12DefaultErrorE8register9put_cargo00Bf_
FNDA:1,_RNCNCNvNvXsa_NtNtCsaS3fY9lrCeZ_7nanocld8services5cargoNtBb_11reset_cargoINtNtNtCsUwcWOEjd2I_4ntex3web7service17WebServiceFactoryNtNtB1d_13error_default12DefaultErrorE8register11reset_cargo0s_0Bf_
FNDA:1,_RNCNvNvXs1_NtNtCsaS3fY9lrCeZ_7nanocld8services5cargoNtB9_10stop_cargoINtNtNtCsUwcWOEjd2I_4ntex3web7service17WebServiceFactoryNtNtB1a_13error_default12DefaultErrorE8register10stop_cargo0Bd_
FNDA:1,_RNvNvXs2_NtNtCsaS3fY9lrCeZ_7nanocld8services5cargoNtB7_9put_cargoINtNtNtCsUwcWOEjd2I_4ntex3web7service17WebServiceFactoryNtNtB16_13error_default12DefaultErrorE8register9put_cargo
FNDA:0,_RNCNvNvXs3_NtNtCsaS3fY9lrCeZ_7nanocld8services5cargoNtB9_11patch_cargoINtNtNtCsUwcWOEjd2I_4ntex3web7service17WebServiceFactoryNtNtB1b_13error_default12DefaultErrorE8register11patch_cargo0Bd_
FNDA:1,_RNCNCNvNvXs0_NtNtCsaS3fY9lrCeZ_7nanocld8services5cargoNtBb_11start_cargoINtNtNtCsUwcWOEjd2I_4ntex3web7service17WebServiceFactoryNtNtB1d_13error_default12DefaultErrorE8register11start_cargo00Bf_
FNDA:1,_RNvNvXNtNtCsaS3fY9lrCeZ_7nanocld8services5cargoNtB4_12create_cargoINtNtNtCsUwcWOEjd2I_4ntex3web7service17WebServiceFactoryNtNtB17_13error_default12DefaultErrorE8register12create_cargo
FNDA:35,_RNvXs9_NtNtCsaS3fY9lrCeZ_7nanocld8services5cargoNtB5_18list_cargo_historyINtNtNtCsUwcWOEjd2I_4ntex3web7service17WebServiceFactoryNtNtB1e_13error_default12DefaultErrorE8register
FNDA:1,_RNvNvXs6_NtNtCsaS3fY9lrCeZ_7nanocld8services5cargoNtB7_13inspect_cargoINtNtNtCsUwcWOEjd2I_4ntex3web7service17WebServiceFactoryNtNtB1b_13error_default12DefaultErrorE8register13inspect_cargo
FNDA:0,_RNvNvXs5_NtNtCsaS3fY9lrCeZ_7nanocld8services5cargoNtB7_20list_cargo_instancesINtNtNtCsUwcWOEjd2I_4ntex3web7service17WebServiceFactoryNtNtB1i_13error_default12DefaultErrorE8register20list_cargo_instances
FNDA:1,_RNCNvNvXsb_NtNtCsaS3fY9lrCeZ_7nanocld8services5cargoNtB9_10logs_cargoINtNtNtCsUwcWOEjd2I_4ntex3web7service17WebServiceFactoryNtNtB1a_13error_default12DefaultErrorE8register10logs_cargo0Bd_
FNDA:34,_RNvXs5_NtNtCsaS3fY9lrCeZ_7nanocld8services5cargoNtB5_20list_cargo_instancesINtNtNtCsUwcWOEjd2I_4ntex3web7service17WebServiceFactoryNtNtB1g_13error_default12DefaultErrorE8register
FNDA:36,_RNvXs3_NtNtCsaS3fY9lrCeZ_7nanocld8services5cargoNtB5_11patch_cargoINtNtNtCsUwcWOEjd2I_4ntex3web7service17WebServiceFactoryNtNtB17_13error_default12DefaultErrorE8register
FNDA:1,_RNvNvXs4_NtNtCsaS3fY9lrCeZ_7nanocld8services5cargoNtB7_10list_cargoINtNtNtCsUwcWOEjd2I_4ntex3web7service17WebServiceFactoryNtNtB18_13error_default12DefaultErrorE8register10list_cargo
FNDA:1,_RNvNvXs7_NtNtCsaS3fY9lrCeZ_7nanocld8services5cargoNtB7_12exec_commandINtNtNtCsUwcWOEjd2I_4ntex3web7service17WebServiceFactoryNtNtB1a_13error_default12DefaultErrorE8register12exec_command
FNDA:35,_RNvXs2_NtNtCsaS3fY9lrCeZ_7nanocld8services5cargoNtB5_9put_cargoINtNtNtCsUwcWOEjd2I_4ntex3web7service17WebServiceFactoryNtNtB14_13error_default12DefaultErrorE8register
FNDA:36,_RNvXs0_NtNtCsaS3fY9lrCeZ_7nanocld8services5cargoNtB5_11start_cargoINtNtNtCsUwcWOEjd2I_4ntex3web7service17WebServiceFactoryNtNtB17_13error_default12DefaultErrorE8register
FNDA:1,_RNCNvNvXsa_NtNtCsaS3fY9lrCeZ_7nanocld8services5cargoNtB9_11reset_cargoINtNtNtCsUwcWOEjd2I_4ntex3web7service17WebServiceFactoryNtNtB1b_13error_default12DefaultErrorE8register11reset_cargo0Bd_
FNDA:1,_RNvNvXsb_NtNtCsaS3fY9lrCeZ_7nanocld8services5cargoNtB7_10logs_cargoINtNtNtCsUwcWOEjd2I_4ntex3web7service17WebServiceFactoryNtNtB18_13error_default12DefaultErrorE8register10logs_cargo
FNDA:1,_RNvNvXs1_NtNtCsaS3fY9lrCeZ_7nanocld8services5cargoNtB7_10stop_cargoINtNtNtCsUwcWOEjd2I_4ntex3web7service17WebServiceFactoryNtNtB18_13error_default12DefaultErrorE8register10stop_cargo
FNDA:35,_RNvXs6_NtNtCsaS3fY9lrCeZ_7nanocld8services5cargoNtB5_13inspect_cargoINtNtNtCsUwcWOEjd2I_4ntex3web7service17WebServiceFactoryNtNtB19_13error_default12DefaultErrorE8register
FNDA:1,_RNCNvNvXs_NtNtCsaS3fY9lrCeZ_7nanocld8services5cargoNtB8_12delete_cargoINtNtNtCsUwcWOEjd2I_4ntex3web7service17WebServiceFactoryNtNtB1b_13error_default12DefaultErrorE8register12delete_cargo0Bc_
FNDA:1,_RNCNvNvXs7_NtNtCsaS3fY9lrCeZ_7nanocld8services5cargoNtB9_12exec_commandINtNtNtCsUwcWOEjd2I_4ntex3web7service17WebServiceFactoryNtNtB1c_13error_default12DefaultErrorE8register12exec_command0Bd_
FNDA:34,_RNvXsb_NtNtCsaS3fY9lrCeZ_7nanocld8services5cargoNtB5_10logs_cargoINtNtNtCsUwcWOEjd2I_4ntex3web7service17WebServiceFactoryNtNtB16_13error_default12DefaultErrorE8register
FNDA:1,_RNCNCNvNvXs_NtNtCsaS3fY9lrCeZ_7nanocld8services5cargoNtBa_12delete_cargoINtNtNtCsUwcWOEjd2I_4ntex3web7service17WebServiceFactoryNtNtB1d_13error_default12DefaultErrorE8register12delete_cargo00Be_
FNDA:1,_RNCNCNvNvXs1_NtNtCsaS3fY9lrCeZ_7nanocld8services5cargoNtBb_10stop_cargoINtNtNtCsUwcWOEjd2I_4ntex3web7service17WebServiceFactoryNtNtB1c_13error_default12DefaultErrorE8register10stop_cargo00Bf_
FNDA:1,_RNCNvNvXs0_NtNtCsaS3fY9lrCeZ_7nanocld8services5cargoNtB9_11start_cargoINtNtNtCsUwcWOEjd2I_4ntex3web7service17WebServiceFactoryNtNtB1b_13error_default12DefaultErrorE8register11start_cargo0Bd_
FNDA:34,_RNvXs7_NtNtCsaS3fY9lrCeZ_7nanocld8services5cargoNtB5_12exec_commandINtNtNtCsUwcWOEjd2I_4ntex3web7service17WebServiceFactoryNtNtB18_13error_default12DefaultErrorE8register
FNF:54
FNH:45
DA:18,36
DA:19,1
DA:20,1
DA:21,1
DA:22,1
DA:23,1
DA:24,1
DA:25,1
DA:26,1
DA:27,1
DA:28,6
DA:29,1
DA:30,1
DA:31,1
DA:32,6
DA:33,1
DA:34,1
DA:35,1
DA:36,1
DA:37,1
DA:38,1
DA:39,1
DA:40,1
DA:42,36
DA:43,1
DA:44,1
DA:45,1
DA:46,1
DA:47,1
DA:48,1
DA:49,1
DA:50,1
DA:51,6
DA:52,8
DA:53,1
DA:54,1
DA:55,1
DA:56,1
DA:57,1
DA:58,1
DA:59,1
DA:60,1
DA:61,1
DA:63,36
DA:64,1
DA:65,1
DA:66,1
DA:67,1
DA:68,1
DA:69,1
DA:70,1
DA:71,1
DA:72,7
DA:73,1
DA:74,6
DA:75,1
DA:76,1
DA:77,1
DA:78,1
DA:79,1
DA:80,1
DA:81,1
DA:82,1
DA:84,36
DA:85,1
DA:86,1
DA:87,1
DA:88,1
DA:89,1
DA:90,1
DA:91,1
DA:92,1
DA:93,6
DA:94,6
DA:95,1
DA:96,6
DA:97,1
DA:98,1
DA:99,1
DA:100,1
DA:101,1
DA:102,1
DA:103,1
DA:104,1
DA:106,35
DA:107,1
DA:108,1
DA:109,1
DA:110,1
DA:111,1
DA:112,1
DA:113,1
DA:114,1
DA:115,1
DA:116,28
DA:117,1
DA:118,6
DA:119,1
DA:120,1
DA:121,1
DA:122,1
DA:123,1
DA:124,1
DA:125,1
DA:126,1
DA:128,36
DA:129,0
DA:130,0
DA:131,0
DA:132,0
DA:133,0
DA:134,0
DA:135,0
DA:136,0
DA:137,0
DA:138,0
DA:139,0
DA:140,0
DA:141,0
DA:142,0
DA:143,0
DA:144,0
DA:145,0
DA:146,0
DA:147,0
DA:148,0
DA:150,35
DA:151,1
DA:152,1
DA:153,1
DA:154,1
DA:155,1
DA:156,1
DA:157,8
DA:158,1
DA:159,1
DA:160,1
DA:162,34
DA:163,0
DA:164,0
DA:165,0
DA:166,0
DA:167,0
DA:168,0
DA:169,0
DA:170,0
DA:171,0
DA:173,0
DA:174,0
DA:175,0
DA:177,0
DA:178,0
DA:180,35
DA:181,1
DA:182,1
DA:183,1
DA:184,1
DA:185,1
DA:186,1
DA:187,1
DA:188,1
DA:189,6
DA:190,1
DA:191,1
DA:193,34
DA:194,1
DA:195,1
DA:196,1
DA:197,1
DA:198,1
DA:199,1
DA:200,1
DA:201,1
DA:202,1
DA:203,7
DA:204,1
DA:206,0
DA:207,0
DA:208,0
DA:209,0
DA:210,0
DA:211,0
DA:212,0
DA:213,0
DA:214,0
DA:215,0
DA:216,0
DA:217,0
DA:218,0
DA:220,35
DA:221,1
DA:222,1
DA:223,1
DA:224,1
DA:225,1
DA:226,1
DA:227,1
DA:228,1
DA:229,1
DA:230,1
DA:231,1
DA:233,34
DA:234,1
DA:235,1
DA:236,1
DA:237,1
DA:238,1
DA:239,1
DA:240,1
DA:241,1
DA:242,1
DA:243,1
DA:244,0
DA:245,0
DA:246,1
DA:247,1
DA:248,1
DA:249,1
DA:250,1
DA:251,1
DA:252,1
DA:253,1
DA:254,1
DA:255,27
DA:256,1
DA:257,1
DA:258,6
DA:259,1
DA:260,1
DA:261,1
DA:262,1
DA:263,1
DA:264,1
DA:265,1
DA:266,1
DA:267,1
DA:269,34
DA:270,1
DA:271,1
DA:272,1
DA:273,1
DA:274,1
DA:275,1
DA:276,1
DA:277,1
DA:278,1
DA:279,1
DA:280,1
DA:282,39
DA:283,39
DA:284,39
DA:285,39
DA:286,39
DA:287,39
DA:288,39
DA:289,39
DA:290,39
DA:291,39
DA:292,39
DA:293,39
DA:294,39
DA:295,39
DA:296,39
DA:316,1
DA:424,1
DA:458,1
BRF:0
BRH:0
LF:296
LH:240
end_of_record
SF:/home/leone/Documents/next-hat/nanocl/bin/nanocld/src/services/cargo_image.rs
FN:66,_RNvNvXs2_NtNtCsaS3fY9lrCeZ_7nanocld8services11cargo_imageNtB7_13import_imagesINtNtNtCsUwcWOEjd2I_4ntex3web7service17WebServiceFactoryNtNtB1i_13error_default12DefaultErrorE8register13import_images
FN:21,_RNvXNtNtCsaS3fY9lrCeZ_7nanocld8services11cargo_imageNtB2_16list_cargo_imageINtNtNtCsUwcWOEjd2I_4ntex3web7service17WebServiceFactoryNtNtB1g_13error_default12DefaultErrorE8register
FN:65,_RNvXs2_NtNtCsaS3fY9lrCeZ_7nanocld8services11cargo_imageNtB5_13import_imagesINtNtNtCsUwcWOEjd2I_4ntex3web7service17WebServiceFactoryNtNtB1g_13error_default12DefaultErrorE8register
FN:61,_RNCNvNvXs1_NtNtCsaS3fY9lrCeZ_7nanocld8services11cargo_imageNtB9_26delete_cargo_image_by_nameINtNtNtCsUwcWOEjd2I_4ntex3web7service17WebServiceFactoryNtNtB1x_13error_default12DefaultErrorE8register26delete_cargo_image_by_name0Bd_
FN:31,_RNvXs_NtNtCsaS3fY9lrCeZ_7nanocld8services11cargo_imageNtB4_19inspect_cargo_imageINtNtNtCsUwcWOEjd2I_4ntex3web7service17WebServiceFactoryNtNtB1l_13error_default12DefaultErrorE8register
FN:36,_RNCNvNvXs_NtNtCsaS3fY9lrCeZ_7nanocld8services11cargo_imageNtB8_19inspect_cargo_imageINtNtNtCsUwcWOEjd2I_4ntex3web7service17WebServiceFactoryNtNtB1p_13error_default12DefaultErrorE8register19inspect_cargo_image0Bc_
FN:22,_RNvNvXNtNtCsaS3fY9lrCeZ_7nanocld8services11cargo_imageNtB4_16list_cargo_imageINtNtNtCsUwcWOEjd2I_4ntex3web7service17WebServiceFactoryNtNtB1i_13error_default12DefaultErrorE8register16list_cargo_image
FN:118,_RNCNCNvNvXs2_NtNtCsaS3fY9lrCeZ_7nanocld8services11cargo_imageNtBb_13import_imagesINtNtNtCsUwcWOEjd2I_4ntex3web7service17WebServiceFactoryNtNtB1m_13error_default12DefaultErrorE8register13import_images0s4_0Bf_
FN:41,_RNvXs0_NtNtCsaS3fY9lrCeZ_7nanocld8services11cargo_imageNtB5_18create_cargo_imageINtNtNtCsUwcWOEjd2I_4ntex3web7service17WebServiceFactoryNtNtB1l_13error_default12DefaultErrorE8register
FN:46,_RNCNvNvXs0_NtNtCsaS3fY9lrCeZ_7nanocld8services11cargo_imageNtB9_18create_cargo_imageINtNtNtCsUwcWOEjd2I_4ntex3web7service17WebServiceFactoryNtNtB1p_13error_default12DefaultErrorE8register18create_cargo_image0Bd_
FN:56,_RNvXs1_NtNtCsaS3fY9lrCeZ_7nanocld8services11cargo_imageNtB5_26delete_cargo_image_by_nameINtNtNtCsUwcWOEjd2I_4ntex3web7service17WebServiceFactoryNtNtB1t_13error_default12DefaultErrorE8register
FN:93,_RNCNCNvNvXs2_NtNtCsaS3fY9lrCeZ_7nanocld8services11cargo_imageNtBb_13import_imagesINtNtNtCsUwcWOEjd2I_4ntex3web7service17WebServiceFactoryNtNtB1m_13error_default12DefaultErrorE8register13import_images0s1_0Bf_
FN:131,_RNvNtNtCsaS3fY9lrCeZ_7nanocld8services11cargo_image11ntex_config
FN:32,_RNvNvXs_NtNtCsaS3fY9lrCeZ_7nanocld8services11cargo_imageNtB6_19inspect_cargo_imageINtNtNtCsUwcWOEjd2I_4ntex3web7service17WebServiceFactoryNtNtB1n_13error_default12DefaultErrorE8register19inspect_cargo_image
FN:42,_RNvNvXs0_NtNtCsaS3fY9lrCeZ_7nanocld8services11cargo_imageNtB7_18create_cargo_imageINtNtNtCsUwcWOEjd2I_4ntex3web7service17WebServiceFactoryNtNtB1n_13error_default12DefaultErrorE8register18create_cargo_image
FN:79,_RNCNCNvNvXs2_NtNtCsaS3fY9lrCeZ_7nanocld8services11cargo_imageNtBb_13import_imagesINtNtNtCsUwcWOEjd2I_4ntex3web7service17WebServiceFactoryNtNtB1m_13error_default12DefaultErrorE8register13import_images00Bf_
FN:108,_RNCNCNvNvXs2_NtNtCsaS3fY9lrCeZ_7nanocld8services11cargo_imageNtBb_13import_imagesINtNtNtCsUwcWOEjd2I_4ntex3web7service17WebServiceFactoryNtNtB1m_13error_default12DefaultErrorE8register13import_images0s3_0Bf_
FN:57,_RNvNvXs1_NtNtCsaS3fY9lrCeZ_7nanocld8services11cargo_imageNtB7_26delete_cargo_image_by_nameINtNtNtCsUwcWOEjd2I_4ntex3web7service17WebServiceFactoryNtNtB1v_13error_default12DefaultErrorE8register26delete_cargo_image_by_name
FN:84,_RNCNCNvNvXs2_NtNtCsaS3fY9lrCeZ_7nanocld8services11cargo_imageNtBb_13import_imagesINtNtNtCsUwcWOEjd2I_4ntex3web7service17WebServiceFactoryNtNtB1m_13error_default12DefaultErrorE8register13import_images0s_0Bf_
FN:88,_RNCNCNvNvXs2_NtNtCsaS3fY9lrCeZ_7nanocld8services11cargo_imageNtBb_13import_imagesINtNtNtCsUwcWOEjd2I_4ntex3web7service17WebServiceFactoryNtNtB1m_13error_default12DefaultErrorE8register13import_images0s0_0Bf_
FN:70,_RNCNvNvXs2_NtNtCsaS3fY9lrCeZ_7nanocld8services11cargo_imageNtB9_13import_imagesINtNtNtCsUwcWOEjd2I_4ntex3web7service17WebServiceFactoryNtNtB1k_13error_default12DefaultErrorE8register13import_images0Bd_
FN:26,_RNCNvNvXNtNtCsaS3fY9lrCeZ_7nanocld8services11cargo_imageNtB6_16list_cargo_imageINtNtNtCsUwcWOEjd2I_4ntex3web7service17WebServiceFactoryNtNtB1k_13error_default12DefaultErrorE8register16list_cargo_image0Ba_
FN:101,_RNCNCNvNvXs2_NtNtCsaS3fY9lrCeZ_7nanocld8services11cargo_imageNtBb_13import_imagesINtNtNtCsUwcWOEjd2I_4ntex3web7service17WebServiceFactoryNtNtB1m_13error_default12DefaultErrorE8register13import_images0s2_0Bf_
FN:177,_RNCNvNtNtNtCsaS3fY9lrCeZ_7nanocld8services11cargo_image5tests6delete0B9_
FN:184,_RNvNtNtNtCsaS3fY9lrCeZ_7nanocld8services11cargo_image5tests17ensure_test_image
FN:200,_RNCNvNtNtNtCsaS3fY9lrCeZ_7nanocld8services11cargo_image5tests10basic_list0B9_
FN:220,_RNvNtNtNtCsaS3fY9lrCeZ_7nanocld8services11cargo_image5testss_14upload_tarball
FN:156,_RNCNvNtNtNtCsaS3fY9lrCeZ_7nanocld8services11cargo_image5tests4list0B9_
FN:160,_RNvNtNtNtCsaS3fY9lrCeZ_7nanocld8services11cargo_image5tests6create
FN:247,_RNvNtNtNtCsaS3fY9lrCeZ_7nanocld8services11cargo_image5testss_23basic_create_wrong_name
FN:184,_RNCNvNtNtNtCsaS3fY9lrCeZ_7nanocld8services11cargo_image5tests17ensure_test_image0B9_
FN:164,_RNCNvNtNtNtCsaS3fY9lrCeZ_7nanocld8services11cargo_image5tests6create0B9_
FN:247,_RNCNvNtNtNtCsaS3fY9lrCeZ_7nanocld8services11cargo_image5testss_23basic_create_wrong_name0B9_
FN:220,_RNCNvNtNtNtCsaS3fY9lrCeZ_7nanocld8services11cargo_image5tests14upload_tarball0B9_
FN:200,_RNCNvNtNtNtCsaS3fY9lrCeZ_7nanocld8services11cargo_image5testss_10basic_list0B9_
FN:268,_RNCNvNtNtNtCsaS3fY9lrCeZ_7nanocld8services11cargo_image5tests5basic0B9_
FN:155,_RNvNtNtNtCsaS3fY9lrCeZ_7nanocld8services11cargo_image5tests4list
FN:268,_RNCNvNtNtNtCsaS3fY9lrCeZ_7nanocld8services11cargo_image5testss_5basic0B9_
FN:233,_RNCNCNvNtNtNtCsaS3fY9lrCeZ_7nanocld8services11cargo_image5testss_14upload_tarball00Bb_
FN:176,_RNvNtNtNtCsaS3fY9lrCeZ_7nanocld8services11cargo_image5tests6delete
FN:169,_RNCNvNtNtNtCsaS3fY9lrCeZ_7nanocld8services11cargo_image5tests7inspect0B9_
FN:220,_RNCNvNtNtNtCsaS3fY9lrCeZ_7nanocld8services11cargo_image5testss_14upload_tarball0B9_
FN:247,_RNCNvNtNtNtCsaS3fY9lrCeZ_7nanocld8services11cargo_image5tests23basic_create_wrong_name0B9_
FN:200,_RNvNtNtNtCsaS3fY9lrCeZ_7nanocld8services11cargo_image5testss_10basic_list
FN:268,_RNvNtNtNtCsaS3fY9lrCeZ_7nanocld8services11cargo_image5testss_5basic
FN:168,_RNvNtNtNtCsaS3fY9lrCeZ_7nanocld8services11cargo_image5tests7inspect
FNDA:1,_RNvNvXs2_NtNtCsaS3fY9lrCeZ_7nanocld8services11cargo_imageNtB7_13import_imagesINtNtNtCsUwcWOEjd2I_4ntex3web7service17WebServiceFactoryNtNtB1i_13error_default12DefaultErrorE8register13import_images
FNDA:37,_RNvXNtNtCsaS3fY9lrCeZ_7nanocld8services11cargo_imageNtB2_16list_cargo_imageINtNtNtCsUwcWOEjd2I_4ntex3web7service17WebServiceFactoryNtNtB1g_13error_default12DefaultErrorE8register
FNDA:36,_RNvXs2_NtNtCsaS3fY9lrCeZ_7nanocld8services11cargo_imageNtB5_13import_imagesINtNtNtCsUwcWOEjd2I_4ntex3web7service17WebServiceFactoryNtNtB1g_13error_default12DefaultErrorE8register
FNDA:1,_RNCNvNvXs1_NtNtCsaS3fY9lrCeZ_7nanocld8services11cargo_imageNtB9_26delete_cargo_image_by_nameINtNtNtCsUwcWOEjd2I_4ntex3web7service17WebServiceFactoryNtNtB1x_13error_default12DefaultErrorE8register26delete_cargo_image_by_name0Bd_
FNDA:36,_RNvXs_NtNtCsaS3fY9lrCeZ_7nanocld8services11cargo_imageNtB4_19inspect_cargo_imageINtNtNtCsUwcWOEjd2I_4ntex3web7service17WebServiceFactoryNtNtB1l_13error_default12DefaultErrorE8register
FNDA:1,_RNCNvNvXs_NtNtCsaS3fY9lrCeZ_7nanocld8services11cargo_imageNtB8_19inspect_cargo_imageINtNtNtCsUwcWOEjd2I_4ntex3web7service17WebServiceFactoryNtNtB1p_13error_default12DefaultErrorE8register19inspect_cargo_image0Bc_
FNDA:1,_RNvNvXNtNtCsaS3fY9lrCeZ_7nanocld8services11cargo_imageNtB4_16list_cargo_imageINtNtNtCsUwcWOEjd2I_4ntex3web7service17WebServiceFactoryNtNtB1i_13error_default12DefaultErrorE8register16list_cargo_image
FNDA:0,_RNCNCNvNvXs2_NtNtCsaS3fY9lrCeZ_7nanocld8services11cargo_imageNtBb_13import_imagesINtNtNtCsUwcWOEjd2I_4ntex3web7service17WebServiceFactoryNtNtB1m_13error_default12DefaultErrorE8register13import_images0s4_0Bf_
FNDA:37,_RNvXs0_NtNtCsaS3fY9lrCeZ_7nanocld8services11cargo_imageNtB5_18create_cargo_imageINtNtNtCsUwcWOEjd2I_4ntex3web7service17WebServiceFactoryNtNtB1l_13error_default12DefaultErrorE8register
FNDA:2,_RNCNvNvXs0_NtNtCsaS3fY9lrCeZ_7nanocld8services11cargo_imageNtB9_18create_cargo_imageINtNtNtCsUwcWOEjd2I_4ntex3web7service17WebServiceFactoryNtNtB1p_13error_default12DefaultErrorE8register18create_cargo_image0Bd_
FNDA:37,_RNvXs1_NtNtCsaS3fY9lrCeZ_7nanocld8services11cargo_imageNtB5_26delete_cargo_image_by_nameINtNtNtCsUwcWOEjd2I_4ntex3web7service17WebServiceFactoryNtNtB1t_13error_default12DefaultErrorE8register
FNDA:0,_RNCNCNvNvXs2_NtNtCsaS3fY9lrCeZ_7nanocld8services11cargo_imageNtBb_13import_imagesINtNtNtCsUwcWOEjd2I_4ntex3web7service17WebServiceFactoryNtNtB1m_13error_default12DefaultErrorE8register13import_images0s1_0Bf_
FNDA:39,_RNvNtNtCsaS3fY9lrCeZ_7nanocld8services11cargo_image11ntex_config
FNDA:1,_RNvNvXs_NtNtCsaS3fY9lrCeZ_7nanocld8services11cargo_imageNtB6_19inspect_cargo_imageINtNtNtCsUwcWOEjd2I_4ntex3web7service17WebServiceFactoryNtNtB1n_13error_default12DefaultErrorE8register19inspect_cargo_image
FNDA:3,_RNvNvXs0_NtNtCsaS3fY9lrCeZ_7nanocld8services11cargo_imageNtB7_18create_cargo_imageINtNtNtCsUwcWOEjd2I_4ntex3web7service17WebServiceFactoryNtNtB1n_13error_default12DefaultErrorE8register18create_cargo_image
FNDA:0,_RNCNCNvNvXs2_NtNtCsaS3fY9lrCeZ_7nanocld8services11cargo_imageNtBb_13import_imagesINtNtNtCsUwcWOEjd2I_4ntex3web7service17WebServiceFactoryNtNtB1m_13error_default12DefaultErrorE8register13import_images00Bf_
FNDA:309,_RNCNCNvNvXs2_NtNtCsaS3fY9lrCeZ_7nanocld8services11cargo_imageNtBb_13import_imagesINtNtNtCsUwcWOEjd2I_4ntex3web7service17WebServiceFactoryNtNtB1m_13error_default12DefaultErrorE8register13import_images0s3_0Bf_
FNDA:1,_RNvNvXs1_NtNtCsaS3fY9lrCeZ_7nanocld8services11cargo_imageNtB7_26delete_cargo_image_by_nameINtNtNtCsUwcWOEjd2I_4ntex3web7service17WebServiceFactoryNtNtB1v_13error_default12DefaultErrorE8register26delete_cargo_image_by_name
FNDA:0,_RNCNCNvNvXs2_NtNtCsaS3fY9lrCeZ_7nanocld8services11cargo_imageNtBb_13import_imagesINtNtNtCsUwcWOEjd2I_4ntex3web7service17WebServiceFactoryNtNtB1m_13error_default12DefaultErrorE8register13import_images0s_0Bf_
FNDA:0,_RNCNCNvNvXs2_NtNtCsaS3fY9lrCeZ_7nanocld8services11cargo_imageNtBb_13import_imagesINtNtNtCsUwcWOEjd2I_4ntex3web7service17WebServiceFactoryNtNtB1m_13error_default12DefaultErrorE8register13import_images0s0_0Bf_
FNDA:1,_RNCNvNvXs2_NtNtCsaS3fY9lrCeZ_7nanocld8services11cargo_imageNtB9_13import_imagesINtNtNtCsUwcWOEjd2I_4ntex3web7service17WebServiceFactoryNtNtB1k_13error_default12DefaultErrorE8register13import_images0Bd_
FNDA:1,_RNCNvNvXNtNtCsaS3fY9lrCeZ_7nanocld8services11cargo_imageNtB6_16list_cargo_imageINtNtNtCsUwcWOEjd2I_4ntex3web7service17WebServiceFactoryNtNtB1k_13error_default12DefaultErrorE8register16list_cargo_image0Ba_
FNDA:0,_RNCNCNvNvXs2_NtNtCsaS3fY9lrCeZ_7nanocld8services11cargo_imageNtBb_13import_imagesINtNtNtCsUwcWOEjd2I_4ntex3web7service17WebServiceFactoryNtNtB1m_13error_default12DefaultErrorE8register13import_images0s2_0Bf_
FNDA:1,_RNCNvNtNtNtCsaS3fY9lrCeZ_7nanocld8services11cargo_image5tests6delete0B9_
FNDA:1,_RNvNtNtNtCsaS3fY9lrCeZ_7nanocld8services11cargo_image5tests17ensure_test_image
FNDA:1,_RNCNvNtNtNtCsaS3fY9lrCeZ_7nanocld8services11cargo_image5tests10basic_list0B9_
FNDA:1,_RNvNtNtNtCsaS3fY9lrCeZ_7nanocld8services11cargo_image5testss_14upload_tarball
FNDA:1,_RNCNvNtNtNtCsaS3fY9lrCeZ_7nanocld8services11cargo_image5tests4list0B9_
FNDA:3,_RNvNtNtNtCsaS3fY9lrCeZ_7nanocld8services11cargo_image5tests6create
FNDA:1,_RNvNtNtNtCsaS3fY9lrCeZ_7nanocld8services11cargo_image5testss_23basic_create_wrong_name
FNDA:1,_RNCNvNtNtNtCsaS3fY9lrCeZ_7nanocld8services11cargo_image5tests17ensure_test_image0B9_
FNDA:3,_RNCNvNtNtNtCsaS3fY9lrCeZ_7nanocld8services11cargo_image5tests6create0B9_
FNDA:1,_RNCNvNtNtNtCsaS3fY9lrCeZ_7nanocld8services11cargo_image5testss_23basic_create_wrong_name0B9_
FNDA:1,_RNCNvNtNtNtCsaS3fY9lrCeZ_7nanocld8services11cargo_image5tests14upload_tarball0B9_
FNDA:1,_RNCNvNtNtNtCsaS3fY9lrCeZ_7nanocld8services11cargo_image5testss_10basic_list0B9_
FNDA:1,_RNCNvNtNtNtCsaS3fY9lrCeZ_7nanocld8services11cargo_image5tests5basic0B9_
FNDA:1,_RNvNtNtNtCsaS3fY9lrCeZ_7nanocld8services11cargo_image5tests4list
FNDA:1,_RNCNvNtNtNtCsaS3fY9lrCeZ_7nanocld8services11cargo_image5testss_5basic0B9_
FNDA:309,_RNCNCNvNtNtNtCsaS3fY9lrCeZ_7nanocld8services11cargo_image5testss_14upload_tarball00Bb_
FNDA:1,_RNvNtNtNtCsaS3fY9lrCeZ_7nanocld8services11cargo_image5tests6delete
FNDA:1,_RNCNvNtNtNtCsaS3fY9lrCeZ_7nanocld8services11cargo_image5tests7inspect0B9_
FNDA:1,_RNCNvNtNtNtCsaS3fY9lrCeZ_7nanocld8services11cargo_image5testss_14upload_tarball0B9_
FNDA:1,_RNCNvNtNtNtCsaS3fY9lrCeZ_7nanocld8services11cargo_image5tests23basic_create_wrong_name0B9_
FNDA:1,_RNvNtNtNtCsaS3fY9lrCeZ_7nanocld8services11cargo_image5testss_10basic_list
FNDA:1,_RNvNtNtNtCsaS3fY9lrCeZ_7nanocld8services11cargo_image5testss_5basic
FNDA:1,_RNvNtNtNtCsaS3fY9lrCeZ_7nanocld8services11cargo_image5tests7inspect
FNF:38
FNH:32
DA:21,37
DA:22,1
DA:23,1
DA:24,1
DA:25,1
DA:26,7
DA:28,1
DA:29,1
DA:31,36
DA:32,1
DA:33,1
DA:34,1
DA:35,1
DA:36,3
DA:38,1
DA:39,1
DA:41,37
DA:42,3
DA:43,3
DA:44,3
DA:45,3
DA:46,3
DA:47,2
DA:48,2
DA:49,2
DA:50,2
DA:51,2
DA:52,2
DA:53,2
DA:54,3
DA:56,37
DA:57,1
DA:58,1
DA:59,1
DA:60,1
DA:61,3
DA:62,1
DA:63,1
DA:65,36
DA:66,1
DA:67,1
DA:68,1
DA:69,1
DA:70,1
DA:71,1
DA:72,1
DA:73,1
DA:74,1
DA:75,1
DA:76,1
DA:77,1
DA:78,10
DA:79,1
DA:80,0
DA:81,0
DA:82,1
DA:83,926
DA:84,925
DA:85,0
DA:86,0
DA:87,925
DA:88,1148
DA:89,0
DA:90,0
DA:91,925
DA:93,1
DA:94,0
DA:95,0
DA:96,1
DA:97,1
DA:98,1
DA:99,1
DA:100,1
DA:101,1
DA:102,0
DA:103,0
DA:104,1
DA:107,1
DA:108,309
DA:109,309
DA:110,309
DA:111,309
DA:112,1
DA:113,1
DA:114,1
DA:115,1
DA:116,1
DA:117,4
DA:118,1
DA:119,0
DA:120,0
DA:121,1
DA:124,1
DA:125,0
DA:126,1
DA:128,1
DA:129,1
DA:131,39
DA:132,39
DA:133,39
DA:134,39
DA:135,39
DA:136,39
DA:137,39
DA:155,1
DA:156,8
DA:157,1
DA:160,3
DA:161,3
DA:162,3
DA:163,3
DA:164,27
DA:165,3
DA:168,1
DA:169,1
DA:170,1
DA:171,1
DA:172,7
DA:173,1
DA:176,1
DA:177,1
DA:178,1
DA:179,1
DA:180,4
DA:181,1
DA:184,1
DA:185,6
DA:186,1
DA:187,1
DA:188,1
DA:189,9
DA:190,1
DA:191,9
DA:192,3
DA:193,0
DA:194,3
DA:196,1
DA:197,1
DA:200,1
DA:220,3
DA:233,309
DA:234,309
DA:235,309
DA:236,309
DA:247,1
DA:268,1
BRF:0
BRH:0
LF:162
LH:136
end_of_record
SF:/home/leone/Documents/next-hat/nanocl/bin/nanocld/src/services/mod.rs
FN:192,_RNCNvNtNtCsaS3fY9lrCeZ_7nanocld8services5tests20test_unhandled_route0B7_
FN:67,_RNvNtCsaS3fY9lrCeZ_7nanocld8services4ping
FN:74,_RNvNvXs0_NtCsaS3fY9lrCeZ_7nanocld8servicesNtB7_11get_versionINtNtNtCsUwcWOEjd2I_4ntex3web7service17WebServiceFactoryNtNtB11_13error_default12DefaultErrorE8register11get_version
FN:162,_RNCNvNtNtCsaS3fY9lrCeZ_7nanocld8services5tests9test_ping0B7_
FN:125,_RNCNvNtNtCsaS3fY9lrCeZ_7nanocld8services5testss_11get_version0B7_
FN:73,_RNvXs0_NtCsaS3fY9lrCeZ_7nanocld8servicesNtB5_11get_versionINtNtNtCsUwcWOEjd2I_4ntex3web7service17WebServiceFactoryNtNtBZ_13error_default12DefaultErrorE8register
FN:192,_RNCNvNtNtCsaS3fY9lrCeZ_7nanocld8services5testss_20test_unhandled_route0B7_
FN:162,_RNvNtNtCsaS3fY9lrCeZ_7nanocld8services5testss_9test_ping
FN:125,_RNCNvNtNtCsaS3fY9lrCeZ_7nanocld8services5tests11get_version0B7_
FN:83,_RNCNvNtCsaS3fY9lrCeZ_7nanocld8services9unhandled0B5_
FN:67,_RNCNvNtCsaS3fY9lrCeZ_7nanocld8services4ping0B5_
FN:125,_RNvNtNtCsaS3fY9lrCeZ_7nanocld8services5testss_11get_version
FN:83,_RNvNtCsaS3fY9lrCeZ_7nanocld8services9unhandled
FN:162,_RNCNvNtNtCsaS3fY9lrCeZ_7nanocld8services5testss_9test_ping0B7_
FN:90,_RNvNtCsaS3fY9lrCeZ_7nanocld8services11ntex_config
FN:74,_RNCNvNvXs0_NtCsaS3fY9lrCeZ_7nanocld8servicesNtB9_11get_versionINtNtNtCsUwcWOEjd2I_4ntex3web7service17WebServiceFactoryNtNtB13_13error_default12DefaultErrorE8register11get_version0Bb_
FN:23,_RNvXNtCsaS3fY9lrCeZ_7nanocld8servicesNtB2_11VersionningINtNtCslVTwVINpRTJ_12ntex_service10middleware10MiddlewareINtNtNtCsUwcWOEjd2I_4ntex3web5scope12ScopeServiceINtNtB1R_3app6FilterNtNtB1R_13error_default12DefaultErrorEB2T_EE6createB4_
FN:43,_RNvXs_NtCsaS3fY9lrCeZ_7nanocld8servicesINtB4_21VersionningMiddlewareINtNtNtCsUwcWOEjd2I_4ntex3web5scope12ScopeServiceINtNtB19_3app6FilterNtNtB19_13error_default12DefaultErrorEB2b_EEINtCslVTwVINpRTJ_12ntex_service7ServiceINtNtB19_7request10WebRequestB2b_EE4callB6_
FN:192,_RNvNtNtCsaS3fY9lrCeZ_7nanocld8services5testss_20test_unhandled_route
FNDA:1,_RNCNvNtNtCsaS3fY9lrCeZ_7nanocld8services5tests20test_unhandled_route0B7_
FNDA:2,_RNvNtCsaS3fY9lrCeZ_7nanocld8services4ping
FNDA:1,_RNvNvXs0_NtCsaS3fY9lrCeZ_7nanocld8servicesNtB7_11get_versionINtNtNtCsUwcWOEjd2I_4ntex3web7service17WebServiceFactoryNtNtB11_13error_default12DefaultErrorE8register11get_version
FNDA:1,_RNCNvNtNtCsaS3fY9lrCeZ_7nanocld8services5tests9test_ping0B7_
FNDA:1,_RNCNvNtNtCsaS3fY9lrCeZ_7nanocld8services5testss_11get_version0B7_
FNDA:39,_RNvXs0_NtCsaS3fY9lrCeZ_7nanocld8servicesNtB5_11get_versionINtNtNtCsUwcWOEjd2I_4ntex3web7service17WebServiceFactoryNtNtBZ_13error_default12DefaultErrorE8register
FNDA:1,_RNCNvNtNtCsaS3fY9lrCeZ_7nanocld8services5testss_20test_unhandled_route0B7_
FNDA:1,_RNvNtNtCsaS3fY9lrCeZ_7nanocld8services5testss_9test_ping
FNDA:1,_RNCNvNtNtCsaS3fY9lrCeZ_7nanocld8services5tests11get_version0B7_
FNDA:0,_RNCNvNtCsaS3fY9lrCeZ_7nanocld8services9unhandled0B5_
FNDA:2,_RNCNvNtCsaS3fY9lrCeZ_7nanocld8services4ping0B5_
FNDA:1,_RNvNtNtCsaS3fY9lrCeZ_7nanocld8services5testss_11get_version
FNDA:0,_RNvNtCsaS3fY9lrCeZ_7nanocld8services9unhandled
FNDA:1,_RNCNvNtNtCsaS3fY9lrCeZ_7nanocld8services5testss_9test_ping0B7_
FNDA:39,_RNvNtCsaS3fY9lrCeZ_7nanocld8services11ntex_config
FNDA:1,_RNCNvNvXs0_NtCsaS3fY9lrCeZ_7nanocld8servicesNtB9_11get_versionINtNtNtCsUwcWOEjd2I_4ntex3web7service17WebServiceFactoryNtNtB13_13error_default12DefaultErrorE8register11get_version0Bb_
FNDA:34,_RNvXNtCsaS3fY9lrCeZ_7nanocld8servicesNtB2_11VersionningINtNtCslVTwVINpRTJ_12ntex_service10middleware10MiddlewareINtNtNtCsUwcWOEjd2I_4ntex3web5scope12ScopeServiceINtNtB1R_3app6FilterNtNtB1R_13error_default12DefaultErrorEB2T_EE6createB4_
FNDA:44,_RNvXs_NtCsaS3fY9lrCeZ_7nanocld8servicesINtB4_21VersionningMiddlewareINtNtNtCsUwcWOEjd2I_4ntex3web5scope12ScopeServiceINtNtB19_3app6FilterNtNtB19_13error_default12DefaultErrorEB2b_EEINtCslVTwVINpRTJ_12ntex_service7ServiceINtNtB19_7request10WebRequestB2b_EE4callB6_
FNDA:1,_RNvNtNtCsaS3fY9lrCeZ_7nanocld8services5testss_20test_unhandled_route
FNF:13
FNH:11
DA:23,34
DA:24,34
DA:25,34
DA:43,44
DA:44,44
DA:45,44
DA:46,0
DA:47,44
DA:48,44
DA:49,3
DA:50,3
DA:51,3
DA:52,3
DA:53,3
DA:54,3
DA:55,3
DA:56,3
DA:57,3
DA:58,3
DA:59,41
DA:62,41
DA:63,44
DA:67,2
DA:68,2
DA:69,2
DA:70,2
DA:71,2
DA:73,39
DA:74,1
DA:75,1
DA:76,1
DA:77,1
DA:78,1
DA:79,1
DA:80,1
DA:81,1
DA:83,0
DA:84,0
DA:85,0
DA:86,0
DA:87,0
DA:88,0
DA:90,39
DA:91,39
DA:92,39
DA:93,39
DA:94,39
DA:95,39
DA:96,39
DA:97,39
DA:98,39
DA:99,39
DA:100,39
DA:101,39
DA:102,39
DA:103,39
DA:104,39
DA:105,39
DA:106,39
DA:107,39
DA:108,39
DA:109,39
DA:110,39
DA:111,39
DA:112,39
DA:125,1
DA:162,1
DA:192,1
BRF:0
BRH:0
LF:71
LH:63
end_of_record
SF:/home/leone/Documents/next-hat/nanocl/bin/nanocld/src/services/namespace.rs
FN:93,_RNCNvNtNtNtCsaS3fY9lrCeZ_7nanocld8services9namespace14test_namespace16test_fail_create0B9_
FN:109,_RNCNvNtNtNtCsaS3fY9lrCeZ_7nanocld8services9namespace14test_namespace18test_inspect_by_id0B9_
FN:109,_RNvNtNtNtCsaS3fY9lrCeZ_7nanocld8services9namespace14test_namespace18test_inspect_by_id
FN:122,_RNvNtNtNtCsaS3fY9lrCeZ_7nanocld8services9namespace14test_namespace11test_delete
FN:72,_RNvNtNtNtCsaS3fY9lrCeZ_7nanocld8services9namespace14test_namespace9test_list
FN:122,_RNCNvNtNtNtCsaS3fY9lrCeZ_7nanocld8services9namespace14test_namespace11test_delete0B9_
FN:137,_RNCNvNtNtNtCsaS3fY9lrCeZ_7nanocld8services9namespace14test_namespace5basic0B9_
FN:79,_RNCNvNtNtNtCsaS3fY9lrCeZ_7nanocld8services9namespace14test_namespace11test_create0B9_
FN:93,_RNvNtNtNtCsaS3fY9lrCeZ_7nanocld8services9namespace14test_namespace16test_fail_create
FN:79,_RNvNtNtNtCsaS3fY9lrCeZ_7nanocld8services9namespace14test_namespace11test_create
FN:137,_RNCNvNtNtNtCsaS3fY9lrCeZ_7nanocld8services9namespace14test_namespaces_5basic0B9_
FN:72,_RNCNvNtNtNtCsaS3fY9lrCeZ_7nanocld8services9namespace14test_namespace9test_list0B9_
FN:137,_RNvNtNtNtCsaS3fY9lrCeZ_7nanocld8services9namespace14test_namespaces_5basic
FN:43,_RNvXs1_NtNtCsaS3fY9lrCeZ_7nanocld8services9namespaceNtB5_25inspect_namespace_by_nameINtNtNtCsUwcWOEjd2I_4ntex3web7service17WebServiceFactoryNtNtB1p_13error_default12DefaultErrorE8register
FN:32,_RNvXs0_NtNtCsaS3fY9lrCeZ_7nanocld8services9namespaceNtB5_24delete_namespace_by_nameINtNtNtCsUwcWOEjd2I_4ntex3web7service17WebServiceFactoryNtNtB1o_13error_default12DefaultErrorE8register
FN:48,_RNCNvNvXs1_NtNtCsaS3fY9lrCeZ_7nanocld8services9namespaceNtB9_25inspect_namespace_by_nameINtNtNtCsUwcWOEjd2I_4ntex3web7service17WebServiceFactoryNtNtB1t_13error_default12DefaultErrorE8register25inspect_namespace_by_name0Bd_
FN:13,_RNvXNtNtCsaS3fY9lrCeZ_7nanocld8services9namespaceNtB2_14list_namespaceINtNtNtCsUwcWOEjd2I_4ntex3web7service17WebServiceFactoryNtNtB1b_13error_default12DefaultErrorE8register
FN:33,_RNvNvXs0_NtNtCsaS3fY9lrCeZ_7nanocld8services9namespaceNtB7_24delete_namespace_by_nameINtNtNtCsUwcWOEjd2I_4ntex3web7service17WebServiceFactoryNtNtB1q_13error_default12DefaultErrorE8register24delete_namespace_by_name
FN:22,_RNvNvXs_NtNtCsaS3fY9lrCeZ_7nanocld8services9namespaceNtB6_16create_namespaceINtNtNtCsUwcWOEjd2I_4ntex3web7service17WebServiceFactoryNtNtB1h_13error_default12DefaultErrorE8register16create_namespace
FN:14,_RNvNvXNtNtCsaS3fY9lrCeZ_7nanocld8services9namespaceNtB4_14list_namespaceINtNtNtCsUwcWOEjd2I_4ntex3web7service17WebServiceFactoryNtNtB1d_13error_default12DefaultErrorE8register14list_namespace
FN:26,_RNCNvNvXs_NtNtCsaS3fY9lrCeZ_7nanocld8services9namespaceNtB8_16create_namespaceINtNtNtCsUwcWOEjd2I_4ntex3web7service17WebServiceFactoryNtNtB1j_13error_default12DefaultErrorE8register16create_namespace0Bc_
FN:17,_RNCNvNvXNtNtCsaS3fY9lrCeZ_7nanocld8services9namespaceNtB6_14list_namespaceINtNtNtCsUwcWOEjd2I_4ntex3web7service17WebServiceFactoryNtNtB1f_13error_default12DefaultErrorE8register14list_namespace0Ba_
FN:37,_RNCNvNvXs0_NtNtCsaS3fY9lrCeZ_7nanocld8services9namespaceNtB9_24delete_namespace_by_nameINtNtNtCsUwcWOEjd2I_4ntex3web7service17WebServiceFactoryNtNtB1s_13error_default12DefaultErrorE8register24delete_namespace_by_name0Bd_
FN:54,_RNvNtNtCsaS3fY9lrCeZ_7nanocld8services9namespace11ntex_config
FN:21,_RNvXs_NtNtCsaS3fY9lrCeZ_7nanocld8services9namespaceNtB4_16create_namespaceINtNtNtCsUwcWOEjd2I_4ntex3web7service17WebServiceFactoryNtNtB1f_13error_default12DefaultErrorE8register
FN:44,_RNvNvXs1_NtNtCsaS3fY9lrCeZ_7nanocld8services9namespaceNtB7_25inspect_namespace_by_nameINtNtNtCsUwcWOEjd2I_4ntex3web7service17WebServiceFactoryNtNtB1r_13error_default12DefaultErrorE8register25inspect_namespace_by_name
FNDA:1,_RNCNvNtNtNtCsaS3fY9lrCeZ_7nanocld8services9namespace14test_namespace16test_fail_create0B9_
FNDA:1,_RNCNvNtNtNtCsaS3fY9lrCeZ_7nanocld8services9namespace14test_namespace18test_inspect_by_id0B9_
FNDA:1,_RNvNtNtNtCsaS3fY9lrCeZ_7nanocld8services9namespace14test_namespace18test_inspect_by_id
FNDA:1,_RNvNtNtNtCsaS3fY9lrCeZ_7nanocld8services9namespace14test_namespace11test_delete
FNDA:1,_RNvNtNtNtCsaS3fY9lrCeZ_7nanocld8services9namespace14test_namespace9test_list
FNDA:1,_RNCNvNtNtNtCsaS3fY9lrCeZ_7nanocld8services9namespace14test_namespace11test_delete0B9_
FNDA:1,_RNCNvNtNtNtCsaS3fY9lrCeZ_7nanocld8services9namespace14test_namespace5basic0B9_
FNDA:1,_RNCNvNtNtNtCsaS3fY9lrCeZ_7nanocld8services9namespace14test_namespace11test_create0B9_
FNDA:1,_RNvNtNtNtCsaS3fY9lrCeZ_7nanocld8services9namespace14test_namespace16test_fail_create
FNDA:1,_RNvNtNtNtCsaS3fY9lrCeZ_7nanocld8services9namespace14test_namespace11test_create
FNDA:1,_RNCNvNtNtNtCsaS3fY9lrCeZ_7nanocld8services9namespace14test_namespaces_5basic0B9_
FNDA:1,_RNCNvNtNtNtCsaS3fY9lrCeZ_7nanocld8services9namespace14test_namespace9test_list0B9_
FNDA:1,_RNvNtNtNtCsaS3fY9lrCeZ_7nanocld8services9namespace14test_namespaces_5basic
FNDA:39,_RNvXs1_NtNtCsaS3fY9lrCeZ_7nanocld8services9namespaceNtB5_25inspect_namespace_by_nameINtNtNtCsUwcWOEjd2I_4ntex3web7service17WebServiceFactoryNtNtB1p_13error_default12DefaultErrorE8register
FNDA:39,_RNvXs0_NtNtCsaS3fY9lrCeZ_7nanocld8services9namespaceNtB5_24delete_namespace_by_nameINtNtNtCsUwcWOEjd2I_4ntex3web7service17WebServiceFactoryNtNtB1o_13error_default12DefaultErrorE8register
FNDA:1,_RNCNvNvXs1_NtNtCsaS3fY9lrCeZ_7nanocld8services9namespaceNtB9_25inspect_namespace_by_nameINtNtNtCsUwcWOEjd2I_4ntex3web7service17WebServiceFactoryNtNtB1t_13error_default12DefaultErrorE8register25inspect_namespace_by_name0Bd_
FNDA:39,_RNvXNtNtCsaS3fY9lrCeZ_7nanocld8services9namespaceNtB2_14list_namespaceINtNtNtCsUwcWOEjd2I_4ntex3web7service17WebServiceFactoryNtNtB1b_13error_default12DefaultErrorE8register
FNDA:1,_RNvNvXs0_NtNtCsaS3fY9lrCeZ_7nanocld8services9namespaceNtB7_24delete_namespace_by_nameINtNtNtCsUwcWOEjd2I_4ntex3web7service17WebServiceFactoryNtNtB1q_13error_default12DefaultErrorE8register24delete_namespace_by_name
FNDA:1,_RNvNvXs_NtNtCsaS3fY9lrCeZ_7nanocld8services9namespaceNtB6_16create_namespaceINtNtNtCsUwcWOEjd2I_4ntex3web7service17WebServiceFactoryNtNtB1h_13error_default12DefaultErrorE8register16create_namespace
FNDA:1,_RNvNvXNtNtCsaS3fY9lrCeZ_7nanocld8services9namespaceNtB4_14list_namespaceINtNtNtCsUwcWOEjd2I_4ntex3web7service17WebServiceFactoryNtNtB1d_13error_default12DefaultErrorE8register14list_namespace
FNDA:1,_RNCNvNvXs_NtNtCsaS3fY9lrCeZ_7nanocld8services9namespaceNtB8_16create_namespaceINtNtNtCsUwcWOEjd2I_4ntex3web7service17WebServiceFactoryNtNtB1j_13error_default12DefaultErrorE8register16create_namespace0Bc_
FNDA:1,_RNCNvNvXNtNtCsaS3fY9lrCeZ_7nanocld8services9namespaceNtB6_14list_namespaceINtNtNtCsUwcWOEjd2I_4ntex3web7service17WebServiceFactoryNtNtB1f_13error_default12DefaultErrorE8register14list_namespace0Ba_
FNDA:1,_RNCNvNvXs0_NtNtCsaS3fY9lrCeZ_7nanocld8services9namespaceNtB9_24delete_namespace_by_nameINtNtNtCsUwcWOEjd2I_4ntex3web7service17WebServiceFactoryNtNtB1s_13error_default12DefaultErrorE8register24delete_namespace_by_name0Bd_
FNDA:39,_RNvNtNtCsaS3fY9lrCeZ_7nanocld8services9namespace11ntex_config
FNDA:39,_RNvXs_NtNtCsaS3fY9lrCeZ_7nanocld8services9namespaceNtB4_16create_namespaceINtNtNtCsUwcWOEjd2I_4ntex3web7service17WebServiceFactoryNtNtB1f_13error_default12DefaultErrorE8register
FNDA:1,_RNvNvXs1_NtNtCsaS3fY9lrCeZ_7nanocld8services9namespaceNtB7_25inspect_namespace_by_nameINtNtNtCsUwcWOEjd2I_4ntex3web7service17WebServiceFactoryNtNtB1r_13error_default12DefaultErrorE8register25inspect_namespace_by_name
FNF:24
FNH:24
DA:13,39
DA:14,1
DA:15,1
DA:16,1
DA:17,17
DA:18,1
DA:19,1
DA:21,39
DA:22,1
DA:23,1
DA:24,1
DA:25,1
DA:26,1
DA:27,9
DA:28,1
DA:29,1
DA:30,1
DA:32,39
DA:33,1
DA:34,1
DA:35,1
DA:36,1
DA:37,1
DA:38,6
DA:39,1
DA:40,1
DA:41,1
DA:43,39
DA:44,1
DA:45,1
DA:46,1
DA:47,1
DA:48,1
DA:49,2
DA:50,1
DA:51,1
DA:52,1
DA:54,39
DA:55,39
DA:56,39
DA:57,39
DA:58,39
DA:59,39
DA:72,1
DA:73,8
DA:75,1
DA:76,1
DA:77,1
DA:79,1
DA:80,1
DA:81,1
DA:82,1
DA:84,1
DA:85,1
DA:86,1
DA:87,9
DA:89,1
DA:90,1
DA:91,1
DA:93,1
DA:94,1
DA:95,1
DA:96,1
DA:97,1
DA:98,1
DA:99,9
DA:101,1
DA:103,7
DA:105,1
DA:106,1
DA:107,1
DA:109,1
DA:110,1
DA:111,1
DA:112,1
DA:113,1
DA:114,1
DA:115,1
DA:116,7
DA:118,1
DA:119,1
DA:120,1
DA:122,1
DA:123,1
DA:124,1
DA:125,1
DA:126,1
DA:127,1
DA:128,1
DA:129,8
DA:131,1
DA:132,1
DA:133,1
DA:134,1
DA:135,1
DA:137,2
BRF:0
BRH:0
LF:101
LH:101
end_of_record
SF:/home/leone/Documents/next-hat/nanocl/bin/nanocld/src/services/node.rs
FN:83,_RNCNvNtNtCsaS3fY9lrCeZ_7nanocld8services4node7node_ws0B7_
FN:18,_RNvXNtNtCsaS3fY9lrCeZ_7nanocld8services4nodeNtB2_9list_nodeINtNtNtCsUwcWOEjd2I_4ntex3web7service17WebServiceFactoryNtNtB10_13error_default12DefaultErrorE8register
FN:32,_RNCNvNtNtCsaS3fY9lrCeZ_7nanocld8services4node15node_ws_service0B7_
FN:44,_RNCNCNvNtNtCsaS3fY9lrCeZ_7nanocld8services4node15node_ws_service00B9_
FN:79,_RNvNtNtCsaS3fY9lrCeZ_7nanocld8services4node7node_ws
FN:22,_RNCNvNvXNtNtCsaS3fY9lrCeZ_7nanocld8services4nodeNtB6_9list_nodeINtNtNtCsUwcWOEjd2I_4ntex3web7service17WebServiceFactoryNtNtB14_13error_default12DefaultErrorE8register9list_node0Ba_
FN:70,_RNCNCNvNtNtCsaS3fY9lrCeZ_7nanocld8services4node15node_ws_service0s_0B9_
FN:27,_RNvNtNtCsaS3fY9lrCeZ_7nanocld8services4node15node_ws_service
FN:86,_RNCNCNvNtNtCsaS3fY9lrCeZ_7nanocld8services4node7node_ws00B9_
FN:19,_RNvNvXNtNtCsaS3fY9lrCeZ_7nanocld8services4nodeNtB4_9list_nodeINtNtNtCsUwcWOEjd2I_4ntex3web7service17WebServiceFactoryNtNtB12_13error_default12DefaultErrorE8register9list_node
FN:93,_RNvNtNtCsaS3fY9lrCeZ_7nanocld8services4node11ntex_config
FNDA:0,_RNCNvNtNtCsaS3fY9lrCeZ_7nanocld8services4node7node_ws0B7_
FNDA:39,_RNvXNtNtCsaS3fY9lrCeZ_7nanocld8services4nodeNtB2_9list_nodeINtNtNtCsUwcWOEjd2I_4ntex3web7service17WebServiceFactoryNtNtB10_13error_default12DefaultErrorE8register
FNDA:0,_RNCNvNtNtCsaS3fY9lrCeZ_7nanocld8services4node15node_ws_service0B7_
FNDA:0,_RNCNCNvNtNtCsaS3fY9lrCeZ_7nanocld8services4node15node_ws_service00B9_
FNDA:0,_RNvNtNtCsaS3fY9lrCeZ_7nanocld8services4node7node_ws
FNDA:0,_RNCNvNvXNtNtCsaS3fY9lrCeZ_7nanocld8services4nodeNtB6_9list_nodeINtNtNtCsUwcWOEjd2I_4ntex3web7service17WebServiceFactoryNtNtB14_13error_default12DefaultErrorE8register9list_node0Ba_
FNDA:0,_RNCNCNvNtNtCsaS3fY9lrCeZ_7nanocld8services4node15node_ws_service0s_0B9_
FNDA:0,_RNvNtNtCsaS3fY9lrCeZ_7nanocld8services4node15node_ws_service
FNDA:0,_RNCNCNvNtNtCsaS3fY9lrCeZ_7nanocld8services4node7node_ws00B9_
FNDA:0,_RNvNvXNtNtCsaS3fY9lrCeZ_7nanocld8services4nodeNtB4_9list_nodeINtNtNtCsUwcWOEjd2I_4ntex3web7service17WebServiceFactoryNtNtB12_13error_default12DefaultErrorE8register9list_node
FNDA:39,_RNvNtNtCsaS3fY9lrCeZ_7nanocld8services4node11ntex_config
FNF:11
FNH:2
DA:18,39
DA:19,0
DA:20,0
DA:21,0
DA:22,0
DA:24,0
DA:25,0
DA:27,0
DA:28,0
DA:29,0
DA:30,0
DA:31,0
DA:32,0
DA:33,0
DA:34,0
DA:35,0
DA:36,0
DA:37,0
DA:38,0
DA:39,0
DA:40,0
DA:41,0
DA:44,0
DA:45,0
DA:46,0
DA:47,0
DA:48,0
DA:52,0
DA:53,0
DA:55,0
DA:56,0
DA:57,0
DA:59,0
DA:60,0
DA:61,0
DA:63,0
DA:64,0
DA:66,0
DA:67,0
DA:68,0
DA:69,0
DA:70,0
DA:71,0
DA:72,0
DA:73,0
DA:74,0
DA:75,0
DA:76,0
DA:79,0
DA:80,0
DA:81,0
DA:82,0
DA:83,0
DA:84,0
DA:85,0
DA:86,0
DA:87,0
DA:88,0
DA:89,0
DA:90,0
DA:91,0
DA:93,39
DA:94,39
DA:95,39
DA:96,39
BRF:0
BRH:0
LF:72
LH:5
end_of_record
SF:/home/leone/Documents/next-hat/nanocl/bin/nanocld/src/services/resource.rs
FN:111,_RNvXs3_NtNtCsaS3fY9lrCeZ_7nanocld8services8resourceNtB5_21list_resource_historyINtNtNtCsUwcWOEjd2I_4ntex3web7service17WebServiceFactoryNtNtB1k_13error_default12DefaultErrorE8register
FN:153,_RNvNtNtCsaS3fY9lrCeZ_7nanocld8services8resource11ntex_config
FN:129,_RNCNvNvXs4_NtNtCsaS3fY9lrCeZ_7nanocld8services8resourceNtB9_14reset_resourceINtNtNtCsUwcWOEjd2I_4ntex3web7service17WebServiceFactoryNtNtB1h_13error_default12DefaultErrorE8register14reset_resource0Bd_
FN:16,_RNvXNtNtCsaS3fY9lrCeZ_7nanocld8services8resourceNtB2_15create_resourceINtNtNtCsUwcWOEjd2I_4ntex3web7service17WebServiceFactoryNtNtB1b_13error_default12DefaultErrorE8register
FN:36,_RNvNvXs_NtNtCsaS3fY9lrCeZ_7nanocld8services8resourceNtB6_15delete_resourceINtNtNtCsUwcWOEjd2I_4ntex3web7service17WebServiceFactoryNtNtB1f_13error_default12DefaultErrorE8register15delete_resource
FN:125,_RNvNvXs4_NtNtCsaS3fY9lrCeZ_7nanocld8services8resourceNtB7_14reset_resourceINtNtNtCsUwcWOEjd2I_4ntex3web7service17WebServiceFactoryNtNtB1f_13error_default12DefaultErrorE8register14reset_resource
FN:59,_RNCNvNvXs0_NtNtCsaS3fY9lrCeZ_7nanocld8services8resourceNtB9_13list_resourceINtNtNtCsUwcWOEjd2I_4ntex3web7service17WebServiceFactoryNtNtB1g_13error_default12DefaultErrorE8register13list_resource0Bd_
FN:17,_RNvNvXNtNtCsaS3fY9lrCeZ_7nanocld8services8resourceNtB4_15create_resourceINtNtNtCsUwcWOEjd2I_4ntex3web7service17WebServiceFactoryNtNtB1d_13error_default12DefaultErrorE8register15create_resource
FN:70,_RNCNvNvXs1_NtNtCsaS3fY9lrCeZ_7nanocld8services8resourceNtB9_16inspect_resourceINtNtNtCsUwcWOEjd2I_4ntex3web7service17WebServiceFactoryNtNtB1j_13error_default12DefaultErrorE8register16inspect_resource0Bd_
FN:116,_RNCNvNvXs3_NtNtCsaS3fY9lrCeZ_7nanocld8services8resourceNtB9_21list_resource_historyINtNtNtCsUwcWOEjd2I_4ntex3web7service17WebServiceFactoryNtNtB1o_13error_default12DefaultErrorE8register21list_resource_history0Bd_
FN:25,_RNCNCNvNvXNtNtCsaS3fY9lrCeZ_7nanocld8services8resourceNtB8_15create_resourceINtNtNtCsUwcWOEjd2I_4ntex3web7service17WebServiceFactoryNtNtB1h_13error_default12DefaultErrorE8register15create_resource00Bc_
FN:112,_RNvNvXs3_NtNtCsaS3fY9lrCeZ_7nanocld8services8resourceNtB7_21list_resource_historyINtNtNtCsUwcWOEjd2I_4ntex3web7service17WebServiceFactoryNtNtB1m_13error_default12DefaultErrorE8register21list_resource_history
FN:77,_RNvXs2_NtNtCsaS3fY9lrCeZ_7nanocld8services8resourceNtB5_14patch_resourceINtNtNtCsUwcWOEjd2I_4ntex3web7service17WebServiceFactoryNtNtB1d_13error_default12DefaultErrorE8register
FN:101,_RNCNCNvNvXs2_NtNtCsaS3fY9lrCeZ_7nanocld8services8resourceNtBb_14patch_resourceINtNtNtCsUwcWOEjd2I_4ntex3web7service17WebServiceFactoryNtNtB1j_13error_default12DefaultErrorE8register14patch_resource00Bf_
FN:84,_RNCNvNvXs2_NtNtCsaS3fY9lrCeZ_7nanocld8services8resourceNtB9_14patch_resourceINtNtNtCsUwcWOEjd2I_4ntex3web7service17WebServiceFactoryNtNtB1h_13error_default12DefaultErrorE8register14patch_resource0Bd_
FN:66,_RNvNvXs1_NtNtCsaS3fY9lrCeZ_7nanocld8services8resourceNtB7_16inspect_resourceINtNtNtCsUwcWOEjd2I_4ntex3web7service17WebServiceFactoryNtNtB1h_13error_default12DefaultErrorE8register16inspect_resource
FN:21,_RNCNvNvXNtNtCsaS3fY9lrCeZ_7nanocld8services8resourceNtB6_15create_resourceINtNtNtCsUwcWOEjd2I_4ntex3web7service17WebServiceFactoryNtNtB1f_13error_default12DefaultErrorE8register15create_resource0Ba_
FN:55,_RNvNvXs0_NtNtCsaS3fY9lrCeZ_7nanocld8services8resourceNtB7_13list_resourceINtNtNtCsUwcWOEjd2I_4ntex3web7service17WebServiceFactoryNtNtB1e_13error_default12DefaultErrorE8register13list_resource
FN:124,_RNvXs4_NtNtCsaS3fY9lrCeZ_7nanocld8services8resourceNtB5_14reset_resourceINtNtNtCsUwcWOEjd2I_4ntex3web7service17WebServiceFactoryNtNtB1d_13error_default12DefaultErrorE8register
FN:54,_RNvXs0_NtNtCsaS3fY9lrCeZ_7nanocld8services8resourceNtB5_13list_resourceINtNtNtCsUwcWOEjd2I_4ntex3web7service17WebServiceFactoryNtNtB1c_13error_default12DefaultErrorE8register
FN:143,_RNCNCNvNvXs4_NtNtCsaS3fY9lrCeZ_7nanocld8services8resourceNtBb_14reset_resourceINtNtNtCsUwcWOEjd2I_4ntex3web7service17WebServiceFactoryNtNtB1j_13error_default12DefaultErrorE8register14reset_resource00Bf_
FN:40,_RNCNvNvXs_NtNtCsaS3fY9lrCeZ_7nanocld8services8resourceNtB8_15delete_resourceINtNtNtCsUwcWOEjd2I_4ntex3web7service17WebServiceFactoryNtNtB1h_13error_default12DefaultErrorE8register15delete_resource0Bc_
FN:78,_RNvNvXs2_NtNtCsaS3fY9lrCeZ_7nanocld8services8resourceNtB7_14patch_resourceINtNtNtCsUwcWOEjd2I_4ntex3web7service17WebServiceFactoryNtNtB1f_13error_default12DefaultErrorE8register14patch_resource
FN:35,_RNvXs_NtNtCsaS3fY9lrCeZ_7nanocld8services8resourceNtB4_15delete_resourceINtNtNtCsUwcWOEjd2I_4ntex3web7service17WebServiceFactoryNtNtB1d_13error_default12DefaultErrorE8register
FN:65,_RNvXs1_NtNtCsaS3fY9lrCeZ_7nanocld8services8resourceNtB5_16inspect_resourceINtNtNtCsUwcWOEjd2I_4ntex3web7service17WebServiceFactoryNtNtB1f_13error_default12DefaultErrorE8register
FN:44,_RNCNCNvNvXs_NtNtCsaS3fY9lrCeZ_7nanocld8services8resourceNtBa_15delete_resourceINtNtNtCsUwcWOEjd2I_4ntex3web7service17WebServiceFactoryNtNtB1j_13error_default12DefaultErrorE8register15delete_resource00Be_
FN:173,_RNCNvNtNtNtCsaS3fY9lrCeZ_7nanocld8services8resource5tests5basic0B9_
FN:173,_RNCNvNtNtNtCsaS3fY9lrCeZ_7nanocld8services8resource5testss_5basic0B9_
FN:173,_RNvNtNtNtCsaS3fY9lrCeZ_7nanocld8services8resource5testss_5basic
FNDA:38,_RNvXs3_NtNtCsaS3fY9lrCeZ_7nanocld8services8resourceNtB5_21list_resource_historyINtNtNtCsUwcWOEjd2I_4ntex3web7service17WebServiceFactoryNtNtB1k_13error_default12DefaultErrorE8register
FNDA:39,_RNvNtNtCsaS3fY9lrCeZ_7nanocld8services8resource11ntex_config
FNDA:0,_RNCNvNvXs4_NtNtCsaS3fY9lrCeZ_7nanocld8services8resourceNtB9_14reset_resourceINtNtNtCsUwcWOEjd2I_4ntex3web7service17WebServiceFactoryNtNtB1h_13error_default12DefaultErrorE8register14reset_resource0Bd_
FNDA:39,_RNvXNtNtCsaS3fY9lrCeZ_7nanocld8services8resourceNtB2_15create_resourceINtNtNtCsUwcWOEjd2I_4ntex3web7service17WebServiceFactoryNtNtB1b_13error_default12DefaultErrorE8register
FNDA:1,_RNvNvXs_NtNtCsaS3fY9lrCeZ_7nanocld8services8resourceNtB6_15delete_resourceINtNtNtCsUwcWOEjd2I_4ntex3web7service17WebServiceFactoryNtNtB1f_13error_default12DefaultErrorE8register15delete_resource
FNDA:0,_RNvNvXs4_NtNtCsaS3fY9lrCeZ_7nanocld8services8resourceNtB7_14reset_resourceINtNtNtCsUwcWOEjd2I_4ntex3web7service17WebServiceFactoryNtNtB1f_13error_default12DefaultErrorE8register14reset_resource
FNDA:1,_RNCNvNvXs0_NtNtCsaS3fY9lrCeZ_7nanocld8services8resourceNtB9_13list_resourceINtNtNtCsUwcWOEjd2I_4ntex3web7service17WebServiceFactoryNtNtB1g_13error_default12DefaultErrorE8register13list_resource0Bd_
FNDA:1,_RNvNvXNtNtCsaS3fY9lrCeZ_7nanocld8services8resourceNtB4_15create_resourceINtNtNtCsUwcWOEjd2I_4ntex3web7service17WebServiceFactoryNtNtB1d_13error_default12DefaultErrorE8register15create_resource
FNDA:1,_RNCNvNvXs1_NtNtCsaS3fY9lrCeZ_7nanocld8services8resourceNtB9_16inspect_resourceINtNtNtCsUwcWOEjd2I_4ntex3web7service17WebServiceFactoryNtNtB1j_13error_default12DefaultErrorE8register16inspect_resource0Bd_
FNDA:1,_RNCNvNvXs3_NtNtCsaS3fY9lrCeZ_7nanocld8services8resourceNtB9_21list_resource_historyINtNtNtCsUwcWOEjd2I_4ntex3web7service17WebServiceFactoryNtNtB1o_13error_default12DefaultErrorE8register21list_resource_history0Bd_
FNDA:1,_RNCNCNvNvXNtNtCsaS3fY9lrCeZ_7nanocld8services8resourceNtB8_15create_resourceINtNtNtCsUwcWOEjd2I_4ntex3web7service17WebServiceFactoryNtNtB1h_13error_default12DefaultErrorE8register15create_resource00Bc_
FNDA:1,_RNvNvXs3_NtNtCsaS3fY9lrCeZ_7nanocld8services8resourceNtB7_21list_resource_historyINtNtNtCsUwcWOEjd2I_4ntex3web7service17WebServiceFactoryNtNtB1m_13error_default12DefaultErrorE8register21list_resource_history
FNDA:39,_RNvXs2_NtNtCsaS3fY9lrCeZ_7nanocld8services8resourceNtB5_14patch_resourceINtNtNtCsUwcWOEjd2I_4ntex3web7service17WebServiceFactoryNtNtB1d_13error_default12DefaultErrorE8register
FNDA:1,_RNCNCNvNvXs2_NtNtCsaS3fY9lrCeZ_7nanocld8services8resourceNtBb_14patch_resourceINtNtNtCsUwcWOEjd2I_4ntex3web7service17WebServiceFactoryNtNtB1j_13error_default12DefaultErrorE8register14patch_resource00Bf_
FNDA:1,_RNCNvNvXs2_NtNtCsaS3fY9lrCeZ_7nanocld8services8resourceNtB9_14patch_resourceINtNtNtCsUwcWOEjd2I_4ntex3web7service17WebServiceFactoryNtNtB1h_13error_default12DefaultErrorE8register14patch_resource0Bd_
FNDA:1,_RNvNvXs1_NtNtCsaS3fY9lrCeZ_7nanocld8services8resourceNtB7_16inspect_resourceINtNtNtCsUwcWOEjd2I_4ntex3web7service17WebServiceFactoryNtNtB1h_13error_default12DefaultErrorE8register16inspect_resource
FNDA:1,_RNCNvNvXNtNtCsaS3fY9lrCeZ_7nanocld8services8resourceNtB6_15create_resourceINtNtNtCsUwcWOEjd2I_4ntex3web7service17WebServiceFactoryNtNtB1f_13error_default12DefaultErrorE8register15create_resource0Ba_
FNDA:1,_RNvNvXs0_NtNtCsaS3fY9lrCeZ_7nanocld8services8resourceNtB7_13list_resourceINtNtNtCsUwcWOEjd2I_4ntex3web7service17WebServiceFactoryNtNtB1e_13error_default12DefaultErrorE8register13list_resource
FNDA:38,_RNvXs4_NtNtCsaS3fY9lrCeZ_7nanocld8services8resourceNtB5_14reset_resourceINtNtNtCsUwcWOEjd2I_4ntex3web7service17WebServiceFactoryNtNtB1d_13error_default12DefaultErrorE8register
FNDA:39,_RNvXs0_NtNtCsaS3fY9lrCeZ_7nanocld8services8resourceNtB5_13list_resourceINtNtNtCsUwcWOEjd2I_4ntex3web7service17WebServiceFactoryNtNtB1c_13error_default12DefaultErrorE8register
FNDA:0,_RNCNCNvNvXs4_NtNtCsaS3fY9lrCeZ_7nanocld8services8resourceNtBb_14reset_resourceINtNtNtCsUwcWOEjd2I_4ntex3web7service17WebServiceFactoryNtNtB1j_13error_default12DefaultErrorE8register14reset_resource00Bf_
FNDA:1,_RNCNvNvXs_NtNtCsaS3fY9lrCeZ_7nanocld8services8resourceNtB8_15delete_resourceINtNtNtCsUwcWOEjd2I_4ntex3web7service17WebServiceFactoryNtNtB1h_13error_default12DefaultErrorE8register15delete_resource0Bc_
FNDA:1,_RNvNvXs2_NtNtCsaS3fY9lrCeZ_7nanocld8services8resourceNtB7_14patch_resourceINtNtNtCsUwcWOEjd2I_4ntex3web7service17WebServiceFactoryNtNtB1f_13error_default12DefaultErrorE8register14patch_resource
FNDA:39,_RNvXs_NtNtCsaS3fY9lrCeZ_7nanocld8services8resourceNtB4_15delete_resourceINtNtNtCsUwcWOEjd2I_4ntex3web7service17WebServiceFactoryNtNtB1d_13error_default12DefaultErrorE8register
FNDA:39,_RNvXs1_NtNtCsaS3fY9lrCeZ_7nanocld8services8resourceNtB5_16inspect_resourceINtNtNtCsUwcWOEjd2I_4ntex3web7service17WebServiceFactoryNtNtB1f_13error_default12DefaultErrorE8register
FNDA:1,_RNCNCNvNvXs_NtNtCsaS3fY9lrCeZ_7nanocld8services8resourceNtBa_15delete_resourceINtNtNtCsUwcWOEjd2I_4ntex3web7service17WebServiceFactoryNtNtB1j_13error_default12DefaultErrorE8register15delete_resource00Be_
FNDA:1,_RNCNvNtNtNtCsaS3fY9lrCeZ_7nanocld8services8resource5tests5basic0B9_
FNDA:1,_RNCNvNtNtNtCsaS3fY9lrCeZ_7nanocld8services8resource5testss_5basic0B9_
FNDA:1,_RNvNtNtNtCsaS3fY9lrCeZ_7nanocld8services8resource5testss_5basic
FNF:27
FNH:24
DA:16,39
DA:17,1
DA:18,1
DA:19,1
DA:20,1
DA:21,1
DA:22,6
DA:23,1
DA:24,1
DA:25,1
DA:26,1
DA:27,1
DA:28,1
DA:29,1
DA:30,1
DA:31,1
DA:32,1
DA:33,1
DA:35,39
DA:36,1
DA:37,1
DA:38,1
DA:39,1
DA:40,1
DA:41,1
DA:42,1
DA:43,4
DA:44,1
DA:45,1
DA:46,1
DA:47,1
DA:48,1
DA:49,1
DA:50,1
DA:51,1
DA:52,1
DA:54,39
DA:55,1
DA:56,1
DA:57,1
DA:58,1
DA:59,1
DA:60,1
DA:61,1
DA:62,1
DA:63,1
DA:65,39
DA:66,1
DA:67,1
DA:68,1
DA:69,1
DA:70,1
DA:71,1
DA:72,1
DA:73,1
DA:74,1
DA:75,1
DA:77,39
DA:78,1
DA:79,1
DA:80,1
DA:81,1
DA:82,1
DA:84,1
DA:85,1
DA:86,1
DA:89,1
DA:90,2
DA:92,1
DA:93,1
DA:94,1
DA:95,1
DA:96,1
DA:97,1
DA:98,5
DA:99,1
DA:100,1
DA:101,1
DA:102,1
DA:103,1
DA:104,1
DA:105,1
DA:106,1
DA:107,1
DA:108,1
DA:109,1
DA:111,38
DA:112,1
DA:113,1
DA:114,1
DA:115,1
DA:116,1
DA:117,1
DA:118,1
DA:119,1
DA:120,1
DA:121,1
DA:122,1
DA:124,38
DA:125,0
DA:126,0
DA:127,0
DA:128,0
DA:129,0
DA:130,0
DA:132,0
DA:133,0
DA:135,0
DA:136,0
DA:137,0
DA:138,0
DA:139,0
DA:140,0
DA:141,0
DA:142,0
DA:143,0
DA:144,0
DA:145,0
DA:146,0
DA:147,0
DA:148,0
DA:149,0
DA:150,0
DA:151,0
DA:153,39
DA:154,39
DA:155,39
DA:156,39
DA:157,39
DA:158,39
DA:159,39
DA:160,39
DA:161,39
DA:173,1
BRF:0
BRH:0
LF:142
LH:115
end_of_record
SF:/home/leone/Documents/next-hat/nanocl/bin/nanocld/src/services/state.rs
FN:7,_RNvXNtNtCsaS3fY9lrCeZ_7nanocld8services5stateNtB2_5applyINtNtNtCsUwcWOEjd2I_4ntex3web7service17WebServiceFactoryNtNtBX_13error_default12DefaultErrorE8register
FN:46,_RNvNtNtCsaS3fY9lrCeZ_7nanocld8services5state11ntex_config
FN:13,_RNCNvNvXNtNtCsaS3fY9lrCeZ_7nanocld8services5stateNtB6_5applyINtNtNtCsUwcWOEjd2I_4ntex3web7service17WebServiceFactoryNtNtB11_13error_default12DefaultErrorE8register5apply0Ba_
FN:27,_RNvXs_NtNtCsaS3fY9lrCeZ_7nanocld8services5stateNtB4_6revertINtNtNtCsUwcWOEjd2I_4ntex3web7service17WebServiceFactoryNtNtB10_13error_default12DefaultErrorE8register
FN:32,_RNCNvNvXs_NtNtCsaS3fY9lrCeZ_7nanocld8services5stateNtB8_6revertINtNtNtCsUwcWOEjd2I_4ntex3web7service17WebServiceFactoryNtNtB14_13error_default12DefaultErrorE8register6revert0Bc_
FN:8,_RNvNvXNtNtCsaS3fY9lrCeZ_7nanocld8services5stateNtB4_5applyINtNtNtCsUwcWOEjd2I_4ntex3web7service17WebServiceFactoryNtNtBZ_13error_default12DefaultErrorE8register5apply
FN:28,_RNvNvXs_NtNtCsaS3fY9lrCeZ_7nanocld8services5stateNtB6_6revertINtNtNtCsUwcWOEjd2I_4ntex3web7service17WebServiceFactoryNtNtB12_13error_default12DefaultErrorE8register6revert
FN:57,_RNvNtNtNtCsaS3fY9lrCeZ_7nanocld8services5state5testss_5basic
FN:57,_RNCNvNtNtNtCsaS3fY9lrCeZ_7nanocld8services5state5tests5basic0B9_
FN:57,_RNCNvNtNtNtCsaS3fY9lrCeZ_7nanocld8services5state5testss_5basic0B9_
FNDA:39,_RNvXNtNtCsaS3fY9lrCeZ_7nanocld8services5stateNtB2_5applyINtNtNtCsUwcWOEjd2I_4ntex3web7service17WebServiceFactoryNtNtBX_13error_default12DefaultErrorE8register
FNDA:39,_RNvNtNtCsaS3fY9lrCeZ_7nanocld8services5state11ntex_config
FNDA:5,_RNCNvNvXNtNtCsaS3fY9lrCeZ_7nanocld8services5stateNtB6_5applyINtNtNtCsUwcWOEjd2I_4ntex3web7service17WebServiceFactoryNtNtB11_13error_default12DefaultErrorE8register5apply0Ba_
FNDA:39,_RNvXs_NtNtCsaS3fY9lrCeZ_7nanocld8services5stateNtB4_6revertINtNtNtCsUwcWOEjd2I_4ntex3web7service17WebServiceFactoryNtNtB10_13error_default12DefaultErrorE8register
FNDA:3,_RNCNvNvXs_NtNtCsaS3fY9lrCeZ_7nanocld8services5stateNtB8_6revertINtNtNtCsUwcWOEjd2I_4ntex3web7service17WebServiceFactoryNtNtB14_13error_default12DefaultErrorE8register6revert0Bc_
FNDA:5,_RNvNvXNtNtCsaS3fY9lrCeZ_7nanocld8services5stateNtB4_5applyINtNtNtCsUwcWOEjd2I_4ntex3web7service17WebServiceFactoryNtNtBZ_13error_default12DefaultErrorE8register5apply
FNDA:3,_RNvNvXs_NtNtCsaS3fY9lrCeZ_7nanocld8services5stateNtB6_6revertINtNtNtCsUwcWOEjd2I_4ntex3web7service17WebServiceFactoryNtNtB12_13error_default12DefaultErrorE8register6revert
FNDA:1,_RNvNtNtNtCsaS3fY9lrCeZ_7nanocld8services5state5testss_5basic
FNDA:1,_RNCNvNtNtNtCsaS3fY9lrCeZ_7nanocld8services5state5tests5basic0B9_
FNDA:1,_RNCNvNtNtNtCsaS3fY9lrCeZ_7nanocld8services5state5testss_5basic0B9_
FNF:8
FNH:8
DA:7,39
DA:8,5
DA:9,5
DA:10,5
DA:11,5
DA:12,5
DA:13,5
DA:14,1
DA:15,49
DA:17,2
DA:18,59
DA:20,2
DA:21,17
DA:24,5
DA:25,5
DA:27,39
DA:28,3
DA:29,3
DA:30,3
DA:31,3
DA:32,3
DA:33,1
DA:34,35
DA:36,1
DA:37,15
DA:39,1
DA:40,7
DA:43,3
DA:44,3
DA:46,39
DA:47,39
DA:48,39
DA:49,39
DA:57,1
BRF:0
BRH:0
LF:34
LH:34
end_of_record
SF:/home/leone/Documents/next-hat/nanocl/bin/nanocld/src/services/system.rs
FN:114,_RNCNvNtNtNtCsaS3fY9lrCeZ_7nanocld8services6system5testss_12watch_events0B9_
FN:114,_RNvNtNtNtCsaS3fY9lrCeZ_7nanocld8services6system5testss_12watch_events
FN:148,_RNvNtNtNtCsaS3fY9lrCeZ_7nanocld8services6system5testss_13wrong_version
FN:129,_RNCNvNtNtNtCsaS3fY9lrCeZ_7nanocld8services6system5testss_11system_info0B9_
FN:129,_RNCNvNtNtNtCsaS3fY9lrCeZ_7nanocld8services6system5tests11system_info0B9_
FN:148,_RNCNvNtNtNtCsaS3fY9lrCeZ_7nanocld8services6system5tests13wrong_version0B9_
FN:129,_RNvNtNtNtCsaS3fY9lrCeZ_7nanocld8services6system5testss_11system_info
FN:114,_RNCNvNtNtNtCsaS3fY9lrCeZ_7nanocld8services6system5tests12watch_events0B9_
FN:148,_RNCNvNtNtNtCsaS3fY9lrCeZ_7nanocld8services6system5testss_13wrong_version0B9_
FN:99,_RNvNtNtCsaS3fY9lrCeZ_7nanocld8services6system11ntex_config
FN:46,_RNCNvNvXs0_NtNtCsaS3fY9lrCeZ_7nanocld8services6systemNtB9_13get_processesINtNtNtCsUwcWOEjd2I_4ntex3web7service17WebServiceFactoryNtNtB1e_13error_default12DefaultErrorE8register13get_processes0Bd_
FN:29,_RNvNvXs_NtNtCsaS3fY9lrCeZ_7nanocld8services6systemNtB6_12watch_eventsINtNtNtCsUwcWOEjd2I_4ntex3web7service17WebServiceFactoryNtNtB1a_13error_default12DefaultErrorE8register12watch_events
FN:43,_RNvNvXs0_NtNtCsaS3fY9lrCeZ_7nanocld8services6systemNtB7_13get_processesINtNtNtCsUwcWOEjd2I_4ntex3web7service17WebServiceFactoryNtNtB1c_13error_default12DefaultErrorE8register13get_processes
FN:42,_RNvXs0_NtNtCsaS3fY9lrCeZ_7nanocld8services6systemNtB5_13get_processesINtNtNtCsUwcWOEjd2I_4ntex3web7service17WebServiceFactoryNtNtB1a_13error_default12DefaultErrorE8register
FN:14,_RNvXNtNtCsaS3fY9lrCeZ_7nanocld8services6systemNtB2_8get_infoINtNtNtCsUwcWOEjd2I_4ntex3web7service17WebServiceFactoryNtNtB11_13error_default12DefaultErrorE8register
FN:15,_RNvNvXNtNtCsaS3fY9lrCeZ_7nanocld8services6systemNtB4_8get_infoINtNtNtCsUwcWOEjd2I_4ntex3web7service17WebServiceFactoryNtNtB13_13error_default12DefaultErrorE8register8get_info
FN:65,_RNCNCNvNvXs0_NtNtCsaS3fY9lrCeZ_7nanocld8services6systemNtBb_13get_processesINtNtNtCsUwcWOEjd2I_4ntex3web7service17WebServiceFactoryNtNtB1g_13error_default12DefaultErrorE8register13get_processes00Bf_
FN:31,_RNCNvNvXs_NtNtCsaS3fY9lrCeZ_7nanocld8services6systemNtB8_12watch_eventsINtNtNtCsUwcWOEjd2I_4ntex3web7service17WebServiceFactoryNtNtB1c_13error_default12DefaultErrorE8register12watch_events0Bc_
FN:28,_RNvXs_NtNtCsaS3fY9lrCeZ_7nanocld8services6systemNtB4_12watch_eventsINtNtNtCsUwcWOEjd2I_4ntex3web7service17WebServiceFactoryNtNtB18_13error_default12DefaultErrorE8register
FN:18,_RNCNvNvXNtNtCsaS3fY9lrCeZ_7nanocld8services6systemNtB6_8get_infoINtNtNtCsUwcWOEjd2I_4ntex3web7service17WebServiceFactoryNtNtB15_13error_default12DefaultErrorE8register8get_info0Ba_
FNDA:1,_RNCNvNtNtNtCsaS3fY9lrCeZ_7nanocld8services6system5testss_12watch_events0B9_
FNDA:1,_RNvNtNtNtCsaS3fY9lrCeZ_7nanocld8services6system5testss_12watch_events
FNDA:1,_RNvNtNtNtCsaS3fY9lrCeZ_7nanocld8services6system5testss_13wrong_version
FNDA:1,_RNCNvNtNtNtCsaS3fY9lrCeZ_7nanocld8services6system5testss_11system_info0B9_
FNDA:1,_RNCNvNtNtNtCsaS3fY9lrCeZ_7nanocld8services6system5tests11system_info0B9_
FNDA:1,_RNCNvNtNtNtCsaS3fY9lrCeZ_7nanocld8services6system5tests13wrong_version0B9_
FNDA:1,_RNvNtNtNtCsaS3fY9lrCeZ_7nanocld8services6system5testss_11system_info
FNDA:1,_RNCNvNtNtNtCsaS3fY9lrCeZ_7nanocld8services6system5tests12watch_events0B9_
FNDA:1,_RNCNvNtNtNtCsaS3fY9lrCeZ_7nanocld8services6system5testss_13wrong_version0B9_
FNDA:39,_RNvNtNtCsaS3fY9lrCeZ_7nanocld8services6system11ntex_config
FNDA:0,_RNCNvNvXs0_NtNtCsaS3fY9lrCeZ_7nanocld8services6systemNtB9_13get_processesINtNtNtCsUwcWOEjd2I_4ntex3web7service17WebServiceFactoryNtNtB1e_13error_default12DefaultErrorE8register13get_processes0Bd_
FNDA:1,_RNvNvXs_NtNtCsaS3fY9lrCeZ_7nanocld8services6systemNtB6_12watch_eventsINtNtNtCsUwcWOEjd2I_4ntex3web7service17WebServiceFactoryNtNtB1a_13error_default12DefaultErrorE8register12watch_events
FNDA:0,_RNvNvXs0_NtNtCsaS3fY9lrCeZ_7nanocld8services6systemNtB7_13get_processesINtNtNtCsUwcWOEjd2I_4ntex3web7service17WebServiceFactoryNtNtB1c_13error_default12DefaultErrorE8register13get_processes
FNDA:39,_RNvXs0_NtNtCsaS3fY9lrCeZ_7nanocld8services6systemNtB5_13get_processesINtNtNtCsUwcWOEjd2I_4ntex3web7service17WebServiceFactoryNtNtB1a_13error_default12DefaultErrorE8register
FNDA:39,_RNvXNtNtCsaS3fY9lrCeZ_7nanocld8services6systemNtB2_8get_infoINtNtNtCsUwcWOEjd2I_4ntex3web7service17WebServiceFactoryNtNtB11_13error_default12DefaultErrorE8register
FNDA:1,_RNvNvXNtNtCsaS3fY9lrCeZ_7nanocld8services6systemNtB4_8get_infoINtNtNtCsUwcWOEjd2I_4ntex3web7service17WebServiceFactoryNtNtB13_13error_default12DefaultErrorE8register8get_info
FNDA:0,_RNCNCNvNvXs0_NtNtCsaS3fY9lrCeZ_7nanocld8services6systemNtBb_13get_processesINtNtNtCsUwcWOEjd2I_4ntex3web7service17WebServiceFactoryNtNtB1g_13error_default12DefaultErrorE8register13get_processes00Bf_
FNDA:1,_RNCNvNvXs_NtNtCsaS3fY9lrCeZ_7nanocld8services6systemNtB8_12watch_eventsINtNtNtCsUwcWOEjd2I_4ntex3web7service17WebServiceFactoryNtNtB1c_13error_default12DefaultErrorE8register12watch_events0Bc_
FNDA:39,_RNvXs_NtNtCsaS3fY9lrCeZ_7nanocld8services6systemNtB4_12watch_eventsINtNtNtCsUwcWOEjd2I_4ntex3web7service17WebServiceFactoryNtNtB18_13error_default12DefaultErrorE8register
FNDA:1,_RNCNvNvXNtNtCsaS3fY9lrCeZ_7nanocld8services6systemNtB6_8get_infoINtNtNtCsUwcWOEjd2I_4ntex3web7service17WebServiceFactoryNtNtB15_13error_default12DefaultErrorE8register8get_info0Ba_
FNF:14
FNH:11
DA:14,39
DA:15,1
DA:16,1
DA:17,1
DA:18,4
DA:19,1
DA:20,1
DA:21,1
DA:22,1
DA:23,1
DA:24,1
DA:25,1
DA:28,39
DA:29,1
DA:30,1
DA:31,1
DA:32,1
DA:33,1
DA:34,1
DA:35,1
DA:36,1
DA:37,1
DA:38,1
DA:39,1
DA:40,1
DA:42,39
DA:43,0
DA:44,0
DA:45,0
DA:46,0
DA:47,0
DA:48,0
DA:49,0
DA:51,0
DA:52,0
DA:53,0
DA:54,0
DA:55,0
DA:57,0
DA:58,0
DA:59,0
DA:60,0
DA:61,0
DA:63,0
DA:64,0
DA:65,0
DA:66,0
DA:67,0
DA:68,0
DA:69,0
DA:70,0
DA:71,0
DA:72,0
DA:74,0
DA:75,0
DA:76,0
DA:78,0
DA:79,0
DA:80,0
DA:81,0
DA:82,0
DA:83,0
DA:84,0
DA:85,0
DA:86,0
DA:87,0
DA:89,0
DA:90,0
DA:92,0
DA:94,0
DA:96,0
DA:97,0
DA:99,39
DA:100,39
DA:101,39
DA:102,39
DA:103,39
DA:114,1
DA:129,1
DA:148,1
BRF:0
BRH:0
LF:84
LH:35
end_of_record
SF:/home/leone/Documents/next-hat/nanocl/bin/nanocld/src/services/vm.rs
FN:215,_RNCNCNvNtNtCsaS3fY9lrCeZ_7nanocld8services2vm17ws_attach_service0s0_0B9_
FN:30,_RNvXNtNtCsaS3fY9lrCeZ_7nanocld8services2vmNtB2_7list_vmINtNtNtCsUwcWOEjd2I_4ntex3web7service17WebServiceFactoryNtNtBW_13error_default12DefaultErrorE8register
FN:89,_RNvXs2_NtNtCsaS3fY9lrCeZ_7nanocld8services2vmNtB5_9delete_vmINtNtNtCsUwcWOEjd2I_4ntex3web7service17WebServiceFactoryNtNtB11_13error_default12DefaultErrorE8register
FN:110,_RNCNvNvXs3_NtNtCsaS3fY9lrCeZ_7nanocld8services2vmNtB9_9create_vmINtNtNtCsUwcWOEjd2I_4ntex3web7service17WebServiceFactoryNtNtB15_13error_default12DefaultErrorE8register9create_vm0Bd_
FN:176,_RNCNCNvNtNtCsaS3fY9lrCeZ_7nanocld8services2vm17ws_attach_service00B9_
FN:131,_RNvXs5_NtNtCsaS3fY9lrCeZ_7nanocld8services2vmNtB5_8patch_vmINtNtNtCsUwcWOEjd2I_4ntex3web7service17WebServiceFactoryNtNtB10_13error_default12DefaultErrorE8register
FN:74,_RNvNvXs1_NtNtCsaS3fY9lrCeZ_7nanocld8services2vmNtB7_7stop_vmINtNtNtCsUwcWOEjd2I_4ntex3web7service17WebServiceFactoryNtNtB11_13error_default12DefaultErrorE8register7stop_vm
FN:119,_RNvNvXs4_NtNtCsaS3fY9lrCeZ_7nanocld8services2vmNtB7_15list_vm_historyINtNtNtCsUwcWOEjd2I_4ntex3web7service17WebServiceFactoryNtNtB1a_13error_default12DefaultErrorE8register15list_vm_history
FN:34,_RNCNvNvXNtNtCsaS3fY9lrCeZ_7nanocld8services2vmNtB6_7list_vmINtNtNtCsUwcWOEjd2I_4ntex3web7service17WebServiceFactoryNtNtB10_13error_default12DefaultErrorE8register7list_vm0Ba_
FN:233,_RNCNCNvNtNtCsaS3fY9lrCeZ_7nanocld8services2vm17ws_attach_service0s1_0B9_
FN:31,_RNvNvXNtNtCsaS3fY9lrCeZ_7nanocld8services2vmNtB4_7list_vmINtNtNtCsUwcWOEjd2I_4ntex3web7service17WebServiceFactoryNtNtBY_13error_default12DefaultErrorE8register7list_vm
FN:94,_RNCNvNvXs2_NtNtCsaS3fY9lrCeZ_7nanocld8services2vmNtB9_9delete_vmINtNtNtCsUwcWOEjd2I_4ntex3web7service17WebServiceFactoryNtNtB15_13error_default12DefaultErrorE8register9delete_vm0Bd_
FN:270,_RNCNvNtNtCsaS3fY9lrCeZ_7nanocld8services2vm9vm_attach0B7_
FN:123,_RNCNvNvXs4_NtNtCsaS3fY9lrCeZ_7nanocld8services2vmNtB9_15list_vm_historyINtNtNtCsUwcWOEjd2I_4ntex3web7service17WebServiceFactoryNtNtB1c_13error_default12DefaultErrorE8register15list_vm_history0Bd_
FN:42,_RNvXs_NtNtCsaS3fY9lrCeZ_7nanocld8services2vmNtB4_10inspect_vmINtNtNtCsUwcWOEjd2I_4ntex3web7service17WebServiceFactoryNtNtB12_13error_default12DefaultErrorE8register
FN:104,_RNvXs3_NtNtCsaS3fY9lrCeZ_7nanocld8services2vmNtB5_9create_vmINtNtNtCsUwcWOEjd2I_4ntex3web7service17WebServiceFactoryNtNtB11_13error_default12DefaultErrorE8register
FN:265,_RNvNtNtCsaS3fY9lrCeZ_7nanocld8services2vm9vm_attach
FN:62,_RNCNvNvXs0_NtNtCsaS3fY9lrCeZ_7nanocld8services2vmNtB9_8start_vmINtNtNtCsUwcWOEjd2I_4ntex3web7service17WebServiceFactoryNtNtB14_13error_default12DefaultErrorE8register8start_vm0Bd_
FN:277,_RNCNCNvNtNtCsaS3fY9lrCeZ_7nanocld8services2vm9vm_attach00B9_
FN:256,_RNCNCNvNtNtCsaS3fY9lrCeZ_7nanocld8services2vm17ws_attach_service0s2_0B9_
FN:90,_RNvNvXs2_NtNtCsaS3fY9lrCeZ_7nanocld8services2vmNtB7_9delete_vmINtNtNtCsUwcWOEjd2I_4ntex3web7service17WebServiceFactoryNtNtB13_13error_default12DefaultErrorE8register9delete_vm
FN:181,_RNCNCNvNtNtCsaS3fY9lrCeZ_7nanocld8services2vm17ws_attach_service0s_0B9_
FN:78,_RNCNvNvXs1_NtNtCsaS3fY9lrCeZ_7nanocld8services2vmNtB9_7stop_vmINtNtNtCsUwcWOEjd2I_4ntex3web7service17WebServiceFactoryNtNtB13_13error_default12DefaultErrorE8register7stop_vm0Bd_
FN:132,_RNvNvXs5_NtNtCsaS3fY9lrCeZ_7nanocld8services2vmNtB7_8patch_vmINtNtNtCsUwcWOEjd2I_4ntex3web7service17WebServiceFactoryNtNtB12_13error_default12DefaultErrorE8register8patch_vm
FN:58,_RNvNvXs0_NtNtCsaS3fY9lrCeZ_7nanocld8services2vmNtB7_8start_vmINtNtNtCsUwcWOEjd2I_4ntex3web7service17WebServiceFactoryNtNtB12_13error_default12DefaultErrorE8register8start_vm
FN:43,_RNvNvXs_NtNtCsaS3fY9lrCeZ_7nanocld8services2vmNtB6_10inspect_vmINtNtNtCsUwcWOEjd2I_4ntex3web7service17WebServiceFactoryNtNtB14_13error_default12DefaultErrorE8register10inspect_vm
FN:137,_RNCNvNvXs5_NtNtCsaS3fY9lrCeZ_7nanocld8services2vmNtB9_8patch_vmINtNtNtCsUwcWOEjd2I_4ntex3web7service17WebServiceFactoryNtNtB14_13error_default12DefaultErrorE8register8patch_vm0Bd_
FN:105,_RNvNvXs3_NtNtCsaS3fY9lrCeZ_7nanocld8services2vmNtB7_9create_vmINtNtNtCsUwcWOEjd2I_4ntex3web7service17WebServiceFactoryNtNtB13_13error_default12DefaultErrorE8register9create_vm
FN:152,_RNCNvNtNtCsaS3fY9lrCeZ_7nanocld8services2vm17ws_attach_service0B7_
FN:57,_RNvXs0_NtNtCsaS3fY9lrCeZ_7nanocld8services2vmNtB5_8start_vmINtNtNtCsUwcWOEjd2I_4ntex3web7service17WebServiceFactoryNtNtB10_13error_default12DefaultErrorE8register
FN:118,_RNvXs4_NtNtCsaS3fY9lrCeZ_7nanocld8services2vmNtB5_15list_vm_historyINtNtNtCsUwcWOEjd2I_4ntex3web7service17WebServiceFactoryNtNtB18_13error_default12DefaultErrorE8register
FN:147,_RNvNtNtCsaS3fY9lrCeZ_7nanocld8services2vm17ws_attach_service
FN:284,_RNvNtNtCsaS3fY9lrCeZ_7nanocld8services2vm11ntex_config
FN:73,_RNvXs1_NtNtCsaS3fY9lrCeZ_7nanocld8services2vmNtB5_7stop_vmINtNtNtCsUwcWOEjd2I_4ntex3web7service17WebServiceFactoryNtNtBZ_13error_default12DefaultErrorE8register
FN:47,_RNCNvNvXs_NtNtCsaS3fY9lrCeZ_7nanocld8services2vmNtB8_10inspect_vmINtNtNtCsUwcWOEjd2I_4ntex3web7service17WebServiceFactoryNtNtB16_13error_default12DefaultErrorE8register10inspect_vm0Bc_
FN:306,_RNvNtNtNtCsaS3fY9lrCeZ_7nanocld8services2vm5testss_7list_vm
FN:306,_RNCNvNtNtNtCsaS3fY9lrCeZ_7nanocld8services2vm5testss_7list_vm0B9_
FN:306,_RNCNvNtNtNtCsaS3fY9lrCeZ_7nanocld8services2vm5tests7list_vm0B9_
FNDA:0,_RNCNCNvNtNtCsaS3fY9lrCeZ_7nanocld8services2vm17ws_attach_service0s0_0B9_
FNDA:34,_RNvXNtNtCsaS3fY9lrCeZ_7nanocld8services2vmNtB2_7list_vmINtNtNtCsUwcWOEjd2I_4ntex3web7service17WebServiceFactoryNtNtBW_13error_default12DefaultErrorE8register
FNDA:34,_RNvXs2_NtNtCsaS3fY9lrCeZ_7nanocld8services2vmNtB5_9delete_vmINtNtNtCsUwcWOEjd2I_4ntex3web7service17WebServiceFactoryNtNtB11_13error_default12DefaultErrorE8register
FNDA:0,_RNCNvNvXs3_NtNtCsaS3fY9lrCeZ_7nanocld8services2vmNtB9_9create_vmINtNtNtCsUwcWOEjd2I_4ntex3web7service17WebServiceFactoryNtNtB15_13error_default12DefaultErrorE8register9create_vm0Bd_
FNDA:0,_RNCNCNvNtNtCsaS3fY9lrCeZ_7nanocld8services2vm17ws_attach_service00B9_
FNDA:34,_RNvXs5_NtNtCsaS3fY9lrCeZ_7nanocld8services2vmNtB5_8patch_vmINtNtNtCsUwcWOEjd2I_4ntex3web7service17WebServiceFactoryNtNtB10_13error_default12DefaultErrorE8register
FNDA:0,_RNvNvXs1_NtNtCsaS3fY9lrCeZ_7nanocld8services2vmNtB7_7stop_vmINtNtNtCsUwcWOEjd2I_4ntex3web7service17WebServiceFactoryNtNtB11_13error_default12DefaultErrorE8register7stop_vm
FNDA:0,_RNvNvXs4_NtNtCsaS3fY9lrCeZ_7nanocld8services2vmNtB7_15list_vm_historyINtNtNtCsUwcWOEjd2I_4ntex3web7service17WebServiceFactoryNtNtB1a_13error_default12DefaultErrorE8register15list_vm_history
FNDA:1,_RNCNvNvXNtNtCsaS3fY9lrCeZ_7nanocld8services2vmNtB6_7list_vmINtNtNtCsUwcWOEjd2I_4ntex3web7service17WebServiceFactoryNtNtB10_13error_default12DefaultErrorE8register7list_vm0Ba_
FNDA:0,_RNCNCNvNtNtCsaS3fY9lrCeZ_7nanocld8services2vm17ws_attach_service0s1_0B9_
FNDA:1,_RNvNvXNtNtCsaS3fY9lrCeZ_7nanocld8services2vmNtB4_7list_vmINtNtNtCsUwcWOEjd2I_4ntex3web7service17WebServiceFactoryNtNtBY_13error_default12DefaultErrorE8register7list_vm
FNDA:0,_RNCNvNvXs2_NtNtCsaS3fY9lrCeZ_7nanocld8services2vmNtB9_9delete_vmINtNtNtCsUwcWOEjd2I_4ntex3web7service17WebServiceFactoryNtNtB15_13error_default12DefaultErrorE8register9delete_vm0Bd_
FNDA:0,_RNCNvNtNtCsaS3fY9lrCeZ_7nanocld8services2vm9vm_attach0B7_
FNDA:0,_RNCNvNvXs4_NtNtCsaS3fY9lrCeZ_7nanocld8services2vmNtB9_15list_vm_historyINtNtNtCsUwcWOEjd2I_4ntex3web7service17WebServiceFactoryNtNtB1c_13error_default12DefaultErrorE8register15list_vm_history0Bd_
FNDA:34,_RNvXs_NtNtCsaS3fY9lrCeZ_7nanocld8services2vmNtB4_10inspect_vmINtNtNtCsUwcWOEjd2I_4ntex3web7service17WebServiceFactoryNtNtB12_13error_default12DefaultErrorE8register
FNDA:34,_RNvXs3_NtNtCsaS3fY9lrCeZ_7nanocld8services2vmNtB5_9create_vmINtNtNtCsUwcWOEjd2I_4ntex3web7service17WebServiceFactoryNtNtB11_13error_default12DefaultErrorE8register
FNDA:0,_RNvNtNtCsaS3fY9lrCeZ_7nanocld8services2vm9vm_attach
FNDA:0,_RNCNvNvXs0_NtNtCsaS3fY9lrCeZ_7nanocld8services2vmNtB9_8start_vmINtNtNtCsUwcWOEjd2I_4ntex3web7service17WebServiceFactoryNtNtB14_13error_default12DefaultErrorE8register8start_vm0Bd_
FNDA:0,_RNCNCNvNtNtCsaS3fY9lrCeZ_7nanocld8services2vm9vm_attach00B9_
FNDA:0,_RNCNCNvNtNtCsaS3fY9lrCeZ_7nanocld8services2vm17ws_attach_service0s2_0B9_
FNDA:0,_RNvNvXs2_NtNtCsaS3fY9lrCeZ_7nanocld8services2vmNtB7_9delete_vmINtNtNtCsUwcWOEjd2I_4ntex3web7service17WebServiceFactoryNtNtB13_13error_default12DefaultErrorE8register9delete_vm
FNDA:0,_RNCNCNvNtNtCsaS3fY9lrCeZ_7nanocld8services2vm17ws_attach_service0s_0B9_
FNDA:0,_RNCNvNvXs1_NtNtCsaS3fY9lrCeZ_7nanocld8services2vmNtB9_7stop_vmINtNtNtCsUwcWOEjd2I_4ntex3web7service17WebServiceFactoryNtNtB13_13error_default12DefaultErrorE8register7stop_vm0Bd_
FNDA:0,_RNvNvXs5_NtNtCsaS3fY9lrCeZ_7nanocld8services2vmNtB7_8patch_vmINtNtNtCsUwcWOEjd2I_4ntex3web7service17WebServiceFactoryNtNtB12_13error_default12DefaultErrorE8register8patch_vm
FNDA:0,_RNvNvXs0_NtNtCsaS3fY9lrCeZ_7nanocld8services2vmNtB7_8start_vmINtNtNtCsUwcWOEjd2I_4ntex3web7service17WebServiceFactoryNtNtB12_13error_default12DefaultErrorE8register8start_vm
FNDA:0,_RNvNvXs_NtNtCsaS3fY9lrCeZ_7nanocld8services2vmNtB6_10inspect_vmINtNtNtCsUwcWOEjd2I_4ntex3web7service17WebServiceFactoryNtNtB14_13error_default12DefaultErrorE8register10inspect_vm
FNDA:0,_RNCNvNvXs5_NtNtCsaS3fY9lrCeZ_7nanocld8services2vmNtB9_8patch_vmINtNtNtCsUwcWOEjd2I_4ntex3web7service17WebServiceFactoryNtNtB14_13error_default12DefaultErrorE8register8patch_vm0Bd_
FNDA:0,_RNvNvXs3_NtNtCsaS3fY9lrCeZ_7nanocld8services2vmNtB7_9create_vmINtNtNtCsUwcWOEjd2I_4ntex3web7service17WebServiceFactoryNtNtB13_13error_default12DefaultErrorE8register9create_vm
FNDA:0,_RNCNvNtNtCsaS3fY9lrCeZ_7nanocld8services2vm17ws_attach_service0B7_
FNDA:34,_RNvXs0_NtNtCsaS3fY9lrCeZ_7nanocld8services2vmNtB5_8start_vmINtNtNtCsUwcWOEjd2I_4ntex3web7service17WebServiceFactoryNtNtB10_13error_default12DefaultErrorE8register
FNDA:34,_RNvXs4_NtNtCsaS3fY9lrCeZ_7nanocld8services2vmNtB5_15list_vm_historyINtNtNtCsUwcWOEjd2I_4ntex3web7service17WebServiceFactoryNtNtB18_13error_default12DefaultErrorE8register
FNDA:0,_RNvNtNtCsaS3fY9lrCeZ_7nanocld8services2vm17ws_attach_service
FNDA:39,_RNvNtNtCsaS3fY9lrCeZ_7nanocld8services2vm11ntex_config
FNDA:34,_RNvXs1_NtNtCsaS3fY9lrCeZ_7nanocld8services2vmNtB5_7stop_vmINtNtNtCsUwcWOEjd2I_4ntex3web7service17WebServiceFactoryNtNtBZ_13error_default12DefaultErrorE8register
FNDA:0,_RNCNvNvXs_NtNtCsaS3fY9lrCeZ_7nanocld8services2vmNtB8_10inspect_vmINtNtNtCsUwcWOEjd2I_4ntex3web7service17WebServiceFactoryNtNtB16_13error_default12DefaultErrorE8register10inspect_vm0Bc_
FNDA:1,_RNvNtNtNtCsaS3fY9lrCeZ_7nanocld8services2vm5testss_7list_vm
FNDA:1,_RNCNvNtNtNtCsaS3fY9lrCeZ_7nanocld8services2vm5testss_7list_vm0B9_
FNDA:1,_RNCNvNtNtNtCsaS3fY9lrCeZ_7nanocld8services2vm5tests7list_vm0B9_
FNF:36
FNH:12
DA:30,34
DA:31,1
DA:32,1
DA:33,1
DA:34,1
DA:35,1
DA:37,2
DA:39,1
DA:40,1
DA:42,34
DA:43,0
DA:44,0
DA:45,0
DA:46,0
DA:47,0
DA:48,0
DA:49,0
DA:50,0
DA:52,0
DA:54,0
DA:55,0
DA:57,34
DA:58,0
DA:59,0
DA:60,0
DA:61,0
DA:62,0
DA:63,0
DA:64,0
DA:65,0
DA:66,0
DA:67,0
DA:68,0
DA:70,0
DA:71,0
DA:73,34
DA:74,0
DA:75,0
DA:76,0
DA:77,0
DA:78,0
DA:79,0
DA:80,0
DA:81,0
DA:82,0
DA:83,0
DA:84,0
DA:86,0
DA:87,0
DA:89,34
DA:90,0
DA:91,0
DA:92,0
DA:93,0
DA:94,0
DA:95,0
DA:96,0
DA:97,0
DA:98,0
DA:99,0
DA:101,0
DA:102,0
DA:104,34
DA:105,0
DA:106,0
DA:107,0
DA:108,0
DA:109,0
DA:110,0
DA:111,0
DA:113,0
DA:115,0
DA:116,0
DA:118,34
DA:119,0
DA:120,0
DA:121,0
DA:122,0
DA:123,0
DA:124,0
DA:125,0
DA:126,0
DA:127,0
DA:128,0
DA:129,0
DA:131,34
DA:132,0
DA:133,0
DA:134,0
DA:135,0
DA:136,0
DA:137,0
DA:138,0
DA:139,0
DA:140,0
DA:142,0
DA:144,0
DA:145,0
DA:147,0
DA:148,0
DA:149,0
DA:150,0
DA:151,0
DA:152,0
DA:153,0
DA:154,0
DA:155,0
DA:156,0
DA:157,0
DA:158,0
DA:159,0
DA:160,0
DA:162,0
DA:163,0
DA:164,0
DA:165,0
DA:166,0
DA:167,0
DA:168,0
DA:169,0
DA:170,0
DA:171,0
DA:172,0
DA:173,0
DA:174,0
DA:175,0
DA:176,0
DA:177,0
DA:178,0
DA:179,0
DA:181,0
DA:182,0
DA:183,0
DA:184,0
DA:185,0
DA:186,0
DA:187,0
DA:188,0
DA:192,0
DA:193,0
DA:194,0
DA:195,0
DA:196,0
DA:198,0
DA:199,0
DA:200,0
DA:201,0
DA:202,0
DA:206,0
DA:207,0
DA:208,0
DA:209,0
DA:210,0
DA:211,0
DA:213,0
DA:214,0
DA:215,0
DA:216,0
DA:217,0
DA:218,0
DA:219,0
DA:220,0
DA:221,0
DA:222,0
DA:226,0
DA:227,0
DA:228,0
DA:230,0
DA:231,0
DA:232,0
DA:233,0
DA:234,0
DA:235,0
DA:236,0
DA:237,0
DA:241,0
DA:242,0
DA:244,0
DA:245,0
DA:246,0
DA:248,0
DA:249,0
DA:250,0
DA:252,0
DA:253,0
DA:254,0
DA:255,0
DA:256,0
DA:257,0
DA:258,0
DA:259,0
DA:260,0
DA:261,0
DA:262,0
DA:265,0
DA:266,0
DA:267,0
DA:268,0
DA:269,0
DA:270,0
DA:271,0
DA:272,0
DA:273,0
DA:274,0
DA:275,0
DA:276,0
DA:277,0
DA:278,0
DA:279,0
DA:280,0
DA:281,0
DA:282,0
DA:284,39
DA:285,39
DA:286,39
DA:287,39
DA:288,39
DA:289,39
DA:290,39
DA:291,39
DA:292,39
DA:293,39
DA:294,39
DA:295,39
DA:296,39
DA:306,1
BRF:0
BRH:0
LF:248
LH:31
end_of_record
SF:/home/leone/Documents/next-hat/nanocl/bin/nanocld/src/services/vm_image.rs
FN:49,_RNCNCNvNvXNtNtCsaS3fY9lrCeZ_7nanocld8services8vm_imageNtB8_15import_vm_imageINtNtNtCsUwcWOEjd2I_4ntex3web7service17WebServiceFactoryNtNtB1h_13error_default12DefaultErrorE8register15import_vm_image0s1_0Bc_
FN:121,_RNvXs2_NtNtCsaS3fY9lrCeZ_7nanocld8services8vm_imageNtB5_15resize_vm_imageINtNtNtCsUwcWOEjd2I_4ntex3web7service17WebServiceFactoryNtNtB1e_13error_default12DefaultErrorE8register
FN:49,_RNCNCNCNvNvXNtNtCsaS3fY9lrCeZ_7nanocld8services8vm_imageNtBa_15import_vm_imageINtNtNtCsUwcWOEjd2I_4ntex3web7service17WebServiceFactoryNtNtB1j_13error_default12DefaultErrorE8register15import_vm_image0s1_00Be_
FN:91,_RNvXs0_NtNtCsaS3fY9lrCeZ_7nanocld8services8vm_imageNtB5_24create_vm_image_snapshotINtNtNtCsUwcWOEjd2I_4ntex3web7service17WebServiceFactoryNtNtB1n_13error_default12DefaultErrorE8register
FN:147,_RNvNtNtCsaS3fY9lrCeZ_7nanocld8services8vm_image11ntex_config
FN:60,_RNCNCNvNvXNtNtCsaS3fY9lrCeZ_7nanocld8services8vm_imageNtB8_15import_vm_imageINtNtNtCsUwcWOEjd2I_4ntex3web7service17WebServiceFactoryNtNtB1h_13error_default12DefaultErrorE8register15import_vm_image0s3_0Bc_
FN:86,_RNCNvNvXs_NtNtCsaS3fY9lrCeZ_7nanocld8services8vm_imageNtB8_11list_imagesINtNtNtCsUwcWOEjd2I_4ntex3web7service17WebServiceFactoryNtNtB1d_13error_default12DefaultErrorE8register11list_images0Bc_
FN:38,_RNCNCNvNvXNtNtCsaS3fY9lrCeZ_7nanocld8services8vm_imageNtB8_15import_vm_imageINtNtNtCsUwcWOEjd2I_4ntex3web7service17WebServiceFactoryNtNtB1h_13error_default12DefaultErrorE8register15import_vm_image00Bc_
FN:13,_RNvXNtNtCsaS3fY9lrCeZ_7nanocld8services8vm_imageNtB2_15import_vm_imageINtNtNtCsUwcWOEjd2I_4ntex3web7service17WebServiceFactoryNtNtB1b_13error_default12DefaultErrorE8register
FN:122,_RNvNvXs2_NtNtCsaS3fY9lrCeZ_7nanocld8services8vm_imageNtB7_15resize_vm_imageINtNtNtCsUwcWOEjd2I_4ntex3web7service17WebServiceFactoryNtNtB1g_13error_default12DefaultErrorE8register15resize_vm_image
FN:95,_RNCNvNvXs0_NtNtCsaS3fY9lrCeZ_7nanocld8services8vm_imageNtB9_24create_vm_image_snapshotINtNtNtCsUwcWOEjd2I_4ntex3web7service17WebServiceFactoryNtNtB1r_13error_default12DefaultErrorE8register24create_vm_image_snapshot0Bd_
FN:92,_RNvNvXs0_NtNtCsaS3fY9lrCeZ_7nanocld8services8vm_imageNtB7_24create_vm_image_snapshotINtNtNtCsUwcWOEjd2I_4ntex3web7service17WebServiceFactoryNtNtB1p_13error_default12DefaultErrorE8register24create_vm_image_snapshot
FN:83,_RNvNvXs_NtNtCsaS3fY9lrCeZ_7nanocld8services8vm_imageNtB6_11list_imagesINtNtNtCsUwcWOEjd2I_4ntex3web7service17WebServiceFactoryNtNtB1b_13error_default12DefaultErrorE8register11list_images
FN:107,_RNvNvXs1_NtNtCsaS3fY9lrCeZ_7nanocld8services8vm_imageNtB7_14clone_vm_imageINtNtNtCsUwcWOEjd2I_4ntex3web7service17WebServiceFactoryNtNtB1f_13error_default12DefaultErrorE8register14clone_vm_image
FN:14,_RNvNvXNtNtCsaS3fY9lrCeZ_7nanocld8services8vm_imageNtB4_15import_vm_imageINtNtNtCsUwcWOEjd2I_4ntex3web7service17WebServiceFactoryNtNtB1d_13error_default12DefaultErrorE8register15import_vm_image
FN:106,_RNvXs1_NtNtCsaS3fY9lrCeZ_7nanocld8services8vm_imageNtB5_14clone_vm_imageINtNtNtCsUwcWOEjd2I_4ntex3web7service17WebServiceFactoryNtNtB1d_13error_default12DefaultErrorE8register
FN:45,_RNCNCNvNvXNtNtCsaS3fY9lrCeZ_7nanocld8services8vm_imageNtB8_15import_vm_imageINtNtNtCsUwcWOEjd2I_4ntex3web7service17WebServiceFactoryNtNtB1h_13error_default12DefaultErrorE8register15import_vm_image0s0_0Bc_
FN:18,_RNCNvNvXNtNtCsaS3fY9lrCeZ_7nanocld8services8vm_imageNtB6_15import_vm_imageINtNtNtCsUwcWOEjd2I_4ntex3web7service17WebServiceFactoryNtNtB1f_13error_default12DefaultErrorE8register15import_vm_image0Ba_
FN:126,_RNCNvNvXs2_NtNtCsaS3fY9lrCeZ_7nanocld8services8vm_imageNtB9_15resize_vm_imageINtNtNtCsUwcWOEjd2I_4ntex3web7service17WebServiceFactoryNtNtB1i_13error_default12DefaultErrorE8register15resize_vm_image0Bd_
FN:40,_RNCNCNvNvXNtNtCsaS3fY9lrCeZ_7nanocld8services8vm_imageNtB8_15import_vm_imageINtNtNtCsUwcWOEjd2I_4ntex3web7service17WebServiceFactoryNtNtB1h_13error_default12DefaultErrorE8register15import_vm_image0s_0Bc_
FN:139,_RNCNvNvXs3_NtNtCsaS3fY9lrCeZ_7nanocld8services8vm_imageNtB9_15delete_vm_imageINtNtNtCsUwcWOEjd2I_4ntex3web7service17WebServiceFactoryNtNtB1i_13error_default12DefaultErrorE8register15delete_vm_image0Bd_
FN:136,_RNvNvXs3_NtNtCsaS3fY9lrCeZ_7nanocld8services8vm_imageNtB7_15delete_vm_imageINtNtNtCsUwcWOEjd2I_4ntex3web7service17WebServiceFactoryNtNtB1g_13error_default12DefaultErrorE8register15delete_vm_image
FN:82,_RNvXs_NtNtCsaS3fY9lrCeZ_7nanocld8services8vm_imageNtB4_11list_imagesINtNtNtCsUwcWOEjd2I_4ntex3web7service17WebServiceFactoryNtNtB19_13error_default12DefaultErrorE8register
FN:135,_RNvXs3_NtNtCsaS3fY9lrCeZ_7nanocld8services8vm_imageNtB5_15delete_vm_imageINtNtNtCsUwcWOEjd2I_4ntex3web7service17WebServiceFactoryNtNtB1e_13error_default12DefaultErrorE8register
FN:51,_RNCNCNvNvXNtNtCsaS3fY9lrCeZ_7nanocld8services8vm_imageNtB8_15import_vm_imageINtNtNtCsUwcWOEjd2I_4ntex3web7service17WebServiceFactoryNtNtB1h_13error_default12DefaultErrorE8register15import_vm_image0s2_0Bc_
FN:110,_RNCNvNvXs1_NtNtCsaS3fY9lrCeZ_7nanocld8services8vm_imageNtB9_14clone_vm_imageINtNtNtCsUwcWOEjd2I_4ntex3web7service17WebServiceFactoryNtNtB1h_13error_default12DefaultErrorE8register14clone_vm_image0Bd_
FNDA:0,_RNCNCNvNvXNtNtCsaS3fY9lrCeZ_7nanocld8services8vm_imageNtB8_15import_vm_imageINtNtNtCsUwcWOEjd2I_4ntex3web7service17WebServiceFactoryNtNtB1h_13error_default12DefaultErrorE8register15import_vm_image0s1_0Bc_
FNDA:34,_RNvXs2_NtNtCsaS3fY9lrCeZ_7nanocld8services8vm_imageNtB5_15resize_vm_imageINtNtNtCsUwcWOEjd2I_4ntex3web7service17WebServiceFactoryNtNtB1e_13error_default12DefaultErrorE8register
FNDA:0,_RNCNCNCNvNvXNtNtCsaS3fY9lrCeZ_7nanocld8services8vm_imageNtBa_15import_vm_imageINtNtNtCsUwcWOEjd2I_4ntex3web7service17WebServiceFactoryNtNtB1j_13error_default12DefaultErrorE8register15import_vm_image0s1_00Be_
FNDA:34,_RNvXs0_NtNtCsaS3fY9lrCeZ_7nanocld8services8vm_imageNtB5_24create_vm_image_snapshotINtNtNtCsUwcWOEjd2I_4ntex3web7service17WebServiceFactoryNtNtB1n_13error_default12DefaultErrorE8register
FNDA:39,_RNvNtNtCsaS3fY9lrCeZ_7nanocld8services8vm_image11ntex_config
FNDA:0,_RNCNCNvNvXNtNtCsaS3fY9lrCeZ_7nanocld8services8vm_imageNtB8_15import_vm_imageINtNtNtCsUwcWOEjd2I_4ntex3web7service17WebServiceFactoryNtNtB1h_13error_default12DefaultErrorE8register15import_vm_image0s3_0Bc_
FNDA:0,_RNCNvNvXs_NtNtCsaS3fY9lrCeZ_7nanocld8services8vm_imageNtB8_11list_imagesINtNtNtCsUwcWOEjd2I_4ntex3web7service17WebServiceFactoryNtNtB1d_13error_default12DefaultErrorE8register11list_images0Bc_
FNDA:0,_RNCNCNvNvXNtNtCsaS3fY9lrCeZ_7nanocld8services8vm_imageNtB8_15import_vm_imageINtNtNtCsUwcWOEjd2I_4ntex3web7service17WebServiceFactoryNtNtB1h_13error_default12DefaultErrorE8register15import_vm_image00Bc_
FNDA:34,_RNvXNtNtCsaS3fY9lrCeZ_7nanocld8services8vm_imageNtB2_15import_vm_imageINtNtNtCsUwcWOEjd2I_4ntex3web7service17WebServiceFactoryNtNtB1b_13error_default12DefaultErrorE8register
FNDA:0,_RNvNvXs2_NtNtCsaS3fY9lrCeZ_7nanocld8services8vm_imageNtB7_15resize_vm_imageINtNtNtCsUwcWOEjd2I_4ntex3web7service17WebServiceFactoryNtNtB1g_13error_default12DefaultErrorE8register15resize_vm_image
FNDA:0,_RNCNvNvXs0_NtNtCsaS3fY9lrCeZ_7nanocld8services8vm_imageNtB9_24create_vm_image_snapshotINtNtNtCsUwcWOEjd2I_4ntex3web7service17WebServiceFactoryNtNtB1r_13error_default12DefaultErrorE8register24create_vm_image_snapshot0Bd_
FNDA:0,_RNvNvXs0_NtNtCsaS3fY9lrCeZ_7nanocld8services8vm_imageNtB7_24create_vm_image_snapshotINtNtNtCsUwcWOEjd2I_4ntex3web7service17WebServiceFactoryNtNtB1p_13error_default12DefaultErrorE8register24create_vm_image_snapshot
FNDA:0,_RNvNvXs_NtNtCsaS3fY9lrCeZ_7nanocld8services8vm_imageNtB6_11list_imagesINtNtNtCsUwcWOEjd2I_4ntex3web7service17WebServiceFactoryNtNtB1b_13error_default12DefaultErrorE8register11list_images
FNDA:0,_RNvNvXs1_NtNtCsaS3fY9lrCeZ_7nanocld8services8vm_imageNtB7_14clone_vm_imageINtNtNtCsUwcWOEjd2I_4ntex3web7service17WebServiceFactoryNtNtB1f_13error_default12DefaultErrorE8register14clone_vm_image
FNDA:0,_RNvNvXNtNtCsaS3fY9lrCeZ_7nanocld8services8vm_imageNtB4_15import_vm_imageINtNtNtCsUwcWOEjd2I_4ntex3web7service17WebServiceFactoryNtNtB1d_13error_default12DefaultErrorE8register15import_vm_image
FNDA:34,_RNvXs1_NtNtCsaS3fY9lrCeZ_7nanocld8services8vm_imageNtB5_14clone_vm_imageINtNtNtCsUwcWOEjd2I_4ntex3web7service17WebServiceFactoryNtNtB1d_13error_default12DefaultErrorE8register
FNDA:0,_RNCNCNvNvXNtNtCsaS3fY9lrCeZ_7nanocld8services8vm_imageNtB8_15import_vm_imageINtNtNtCsUwcWOEjd2I_4ntex3web7service17WebServiceFactoryNtNtB1h_13error_default12DefaultErrorE8register15import_vm_image0s0_0Bc_
FNDA:0,_RNCNvNvXNtNtCsaS3fY9lrCeZ_7nanocld8services8vm_imageNtB6_15import_vm_imageINtNtNtCsUwcWOEjd2I_4ntex3web7service17WebServiceFactoryNtNtB1f_13error_default12DefaultErrorE8register15import_vm_image0Ba_
FNDA:0,_RNCNvNvXs2_NtNtCsaS3fY9lrCeZ_7nanocld8services8vm_imageNtB9_15resize_vm_imageINtNtNtCsUwcWOEjd2I_4ntex3web7service17WebServiceFactoryNtNtB1i_13error_default12DefaultErrorE8register15resize_vm_image0Bd_
FNDA:0,_RNCNCNvNvXNtNtCsaS3fY9lrCeZ_7nanocld8services8vm_imageNtB8_15import_vm_imageINtNtNtCsUwcWOEjd2I_4ntex3web7service17WebServiceFactoryNtNtB1h_13error_default12DefaultErrorE8register15import_vm_image0s_0Bc_
FNDA:0,_RNCNvNvXs3_NtNtCsaS3fY9lrCeZ_7nanocld8services8vm_imageNtB9_15delete_vm_imageINtNtNtCsUwcWOEjd2I_4ntex3web7service17WebServiceFactoryNtNtB1i_13error_default12DefaultErrorE8register15delete_vm_image0Bd_
FNDA:0,_RNvNvXs3_NtNtCsaS3fY9lrCeZ_7nanocld8services8vm_imageNtB7_15delete_vm_imageINtNtNtCsUwcWOEjd2I_4ntex3web7service17WebServiceFactoryNtNtB1g_13error_default12DefaultErrorE8register15delete_vm_image
FNDA:34,_RNvXs_NtNtCsaS3fY9lrCeZ_7nanocld8services8vm_imageNtB4_11list_imagesINtNtNtCsUwcWOEjd2I_4ntex3web7service17WebServiceFactoryNtNtB19_13error_default12DefaultErrorE8register
FNDA:34,_RNvXs3_NtNtCsaS3fY9lrCeZ_7nanocld8services8vm_imageNtB5_15delete_vm_imageINtNtNtCsUwcWOEjd2I_4ntex3web7service17WebServiceFactoryNtNtB1e_13error_default12DefaultErrorE8register
FNDA:0,_RNCNCNvNvXNtNtCsaS3fY9lrCeZ_7nanocld8services8vm_imageNtB8_15import_vm_imageINtNtNtCsUwcWOEjd2I_4ntex3web7service17WebServiceFactoryNtNtB1h_13error_default12DefaultErrorE8register15import_vm_image0s2_0Bc_
FNDA:0,_RNCNvNvXs1_NtNtCsaS3fY9lrCeZ_7nanocld8services8vm_imageNtB9_14clone_vm_imageINtNtNtCsUwcWOEjd2I_4ntex3web7service17WebServiceFactoryNtNtB1h_13error_default12DefaultErrorE8register14clone_vm_image0Bd_
FNF:26
FNH:7
DA:13,34
DA:14,0
DA:15,0
DA:16,0
DA:17,0
DA:18,0
DA:19,0
DA:20,0
DA:21,0
DA:23,0
DA:24,0
DA:25,0
DA:27,0
DA:28,0
DA:29,0
DA:30,0
DA:31,0
DA:32,0
DA:33,0
DA:34,0
DA:35,0
DA:36,0
DA:37,0
DA:38,0
DA:39,0
DA:40,0
DA:41,0
DA:42,0
DA:43,0
DA:44,0
DA:45,0
DA:46,0
DA:47,0
DA:48,0
DA:49,0
DA:50,0
DA:51,0
DA:52,0
DA:53,0
DA:54,0
DA:58,0
DA:59,0
DA:60,0
DA:61,0
DA:63,0
DA:64,0
DA:65,0
DA:66,0
DA:67,0
DA:68,0
DA:69,0
DA:70,0
DA:71,0
DA:72,0
DA:73,0
DA:74,0
DA:75,0
DA:76,0
DA:77,0
DA:79,0
DA:80,0
DA:82,34
DA:83,0
DA:84,0
DA:85,0
DA:86,0
DA:88,0
DA:89,0
DA:91,34
DA:92,0
DA:93,0
DA:94,0
DA:95,0
DA:96,0
DA:97,0
DA:98,0
DA:99,0
DA:100,0
DA:101,0
DA:103,0
DA:104,0
DA:106,34
DA:107,0
DA:108,0
DA:109,0
DA:110,0
DA:111,0
DA:112,0
DA:113,0
DA:114,0
DA:116,0
DA:118,0
DA:119,0
DA:121,34
DA:122,0
DA:123,0
DA:124,0
DA:125,0
DA:126,0
DA:127,0
DA:129,0
DA:130,0
DA:132,0
DA:133,0
DA:135,34
DA:136,0
DA:137,0
DA:138,0
DA:139,0
DA:140,0
DA:141,0
DA:142,0
DA:144,0
DA:145,0
DA:147,39
DA:148,39
DA:149,39
DA:150,39
DA:151,39
DA:152,39
DA:153,39
DA:154,39
BRF:0
BRH:0
LF:137
LH:14
end_of_record
SF:/home/leone/Documents/next-hat/nanocl/bin/nanocld/src/utils/cargo.rs
FN:741,_RNvNtNtCsaS3fY9lrCeZ_7nanocld5utils5cargo4kill
FN:745,_RNCNvNtNtCsaS3fY9lrCeZ_7nanocld5utils5cargo4kill0B7_
FN:719,_RNCNvNtNtCsaS3fY9lrCeZ_7nanocld5utils5cargo12exec_command0B7_
FN:332,_RNCNvNtNtCsaS3fY9lrCeZ_7nanocld5utils5cargo6delete0B7_
FN:788,_RNvNtNtCsaS3fY9lrCeZ_7nanocld5utils5cargo5patch
FN:233,_RNCNvNtNtCsaS3fY9lrCeZ_7nanocld5utils5cargo5start0B7_
FN:202,_RNCNvNtNtCsaS3fY9lrCeZ_7nanocld5utils5cargo6create0B7_
FN:327,_RNvNtNtCsaS3fY9lrCeZ_7nanocld5utils5cargo6delete
FN:644,_RNCNCNvNtNtCsaS3fY9lrCeZ_7nanocld5utils5cargo7inspect0s_0B9_
FN:608,_RNCNvNtNtCsaS3fY9lrCeZ_7nanocld5utils5cargo7inspect0B7_
FN:774,_RNCNvNtNtCsaS3fY9lrCeZ_7nanocld5utils5cargo13create_or_put0B7_
FN:262,_RNCNCNCNCNvNtNtCsaS3fY9lrCeZ_7nanocld5utils5cargo5start0000Bd_
FN:61,_RNCNvNtNtCsaS3fY9lrCeZ_7nanocld5utils5cargo15create_instance0B7_
FN:168,_RNCNvNtNtCsaS3fY9lrCeZ_7nanocld5utils5cargo13list_instance0B7_
FN:298,_RNvNtNtCsaS3fY9lrCeZ_7nanocld5utils5cargo4stop
FN:881,_RNvNtNtCsaS3fY9lrCeZ_7nanocld5utils5cargo8get_logs
FN:715,_RNvNtNtCsaS3fY9lrCeZ_7nanocld5utils5cargo12exec_command
FN:257,_RNCNCNvNtNtCsaS3fY9lrCeZ_7nanocld5utils5cargo5start00B9_
FN:142,_RNCNCNvNtNtCsaS3fY9lrCeZ_7nanocld5utils5cargo15create_instance00B9_
FN:613,_RNCNCNvNtNtCsaS3fY9lrCeZ_7nanocld5utils5cargo7inspect00B9_
FN:302,_RNCNvNtNtCsaS3fY9lrCeZ_7nanocld5utils5cargo4stop0B7_
FN:524,_RNvNtNtCsaS3fY9lrCeZ_7nanocld5utils5cargo4list
FN:528,_RNCNvNtNtCsaS3fY9lrCeZ_7nanocld5utils5cargo4list0B7_
FN:381,_RNCNvNtNtCsaS3fY9lrCeZ_7nanocld5utils5cargo3put0B7_
FN:57,_RNvNtNtCsaS3fY9lrCeZ_7nanocld5utils5cargo15create_instance
FN:272,_RNCNCNvNtNtCsaS3fY9lrCeZ_7nanocld5utils5cargo5start0s_0B9_
FN:499,_RNCNCNvNtNtCsaS3fY9lrCeZ_7nanocld5utils5cargo3put0s0_0B9_
FN:794,_RNCNvNtNtCsaS3fY9lrCeZ_7nanocld5utils5cargo5patch0B7_
FN:165,_RNvNtNtCsaS3fY9lrCeZ_7nanocld5utils5cargo13list_instance
FN:445,_RNCNCNvNtNtCsaS3fY9lrCeZ_7nanocld5utils5cargo3put0s_0B9_
FN:230,_RNvNtNtCsaS3fY9lrCeZ_7nanocld5utils5cargo5start
FN:423,_RNCNCNvNtNtCsaS3fY9lrCeZ_7nanocld5utils5cargo3put00B9_
FN:698,_RNCNvNtNtCsaS3fY9lrCeZ_7nanocld5utils5cargo19delete_by_namespace0B7_
FN:375,_RNvNtNtCsaS3fY9lrCeZ_7nanocld5utils5cargo3put
FN:604,_RNvNtNtCsaS3fY9lrCeZ_7nanocld5utils5cargo7inspect
FN:345,_RNCNCNvNtNtCsaS3fY9lrCeZ_7nanocld5utils5cargo6delete00B9_
